SF:/home/noah/src/batuta/src/analyzer.rs
FN:138,_RNvNtCs2Yt0WxJROpx_6batuta8analyzer10is_ignored
FN:132,_RNvNtCs2Yt0WxJROpx_6batuta8analyzer11count_lines
FN:31,_RNvNtCs2Yt0WxJROpx_6batuta8analyzer15analyze_project
FN:71,_RNvNtCs2Yt0WxJROpx_6batuta8analyzer16detect_languages
FN:235,_RNvNtCs2Yt0WxJROpx_6batuta8analyzer17check_poetry_deps
FN:253,_RNvNtCs2Yt0WxJROpx_6batuta8analyzer18count_dependencies
FN:302,_RNvNtCs2Yt0WxJROpx_6batuta8analyzer19calculate_tdg_score
FN:165,_RNvNtCs2Yt0WxJROpx_6batuta8analyzer19detect_dependencies
FN:216,_RNvNtCs2Yt0WxJROpx_6batuta8analyzer21check_dependency_file
FN:114,_RNvNtCs2Yt0WxJROpx_6batuta8analyzer25detect_language_from_path
FN:155,_RNCNvNtCs2Yt0WxJROpx_6batuta8analyzer10is_ignored0B5_
FN:134,_RNCNvNtCs2Yt0WxJROpx_6batuta8analyzer11count_lines0B5_
FN:77,_RNCNvNtCs2Yt0WxJROpx_6batuta8analyzer16detect_languages0B5_
FN:97,_RNCNvNtCs2Yt0WxJROpx_6batuta8analyzer16detect_languagess0_0B5_
FN:108,_RNCNvNtCs2Yt0WxJROpx_6batuta8analyzer16detect_languagess1_0B5_
FN:262,_RNCNvNtCs2Yt0WxJROpx_6batuta8analyzer18count_dependencies0B5_
FN:291,_RNCNvNtCs2Yt0WxJROpx_6batuta8analyzer18count_dependenciess0_0B5_
FN:292,_RNCNvNtCs2Yt0WxJROpx_6batuta8analyzer18count_dependenciess1_0B5_
FN:292,_RNCNvNtCs2Yt0WxJROpx_6batuta8analyzer18count_dependenciess2_0B5_
FN:290,_RNCNvNtCs2Yt0WxJROpx_6batuta8analyzer18count_dependenciess_0B5_
FN:155,_RNCNvNtCsjH0PaGjVXp8_6batuta8analyzer10is_ignored0B5_
FN:134,_RNCNvNtCsjH0PaGjVXp8_6batuta8analyzer11count_lines0B5_
FN:77,_RNCNvNtCsjH0PaGjVXp8_6batuta8analyzer16detect_languages0B5_
FN:97,_RNCNvNtCsjH0PaGjVXp8_6batuta8analyzer16detect_languagess0_0B5_
FN:108,_RNCNvNtCsjH0PaGjVXp8_6batuta8analyzer16detect_languagess1_0B5_
FN:262,_RNCNvNtCsjH0PaGjVXp8_6batuta8analyzer18count_dependencies0B5_
FN:291,_RNCNvNtCsjH0PaGjVXp8_6batuta8analyzer18count_dependenciess0_0B5_
FN:292,_RNCNvNtCsjH0PaGjVXp8_6batuta8analyzer18count_dependenciess1_0B5_
FN:292,_RNCNvNtCsjH0PaGjVXp8_6batuta8analyzer18count_dependenciess2_0B5_
FN:290,_RNCNvNtCsjH0PaGjVXp8_6batuta8analyzer18count_dependenciess_0B5_
FN:138,_RNvNtCsjH0PaGjVXp8_6batuta8analyzer10is_ignored
FN:132,_RNvNtCsjH0PaGjVXp8_6batuta8analyzer11count_lines
FN:31,_RNvNtCsjH0PaGjVXp8_6batuta8analyzer15analyze_project
FN:71,_RNvNtCsjH0PaGjVXp8_6batuta8analyzer16detect_languages
FN:235,_RNvNtCsjH0PaGjVXp8_6batuta8analyzer17check_poetry_deps
FN:253,_RNvNtCsjH0PaGjVXp8_6batuta8analyzer18count_dependencies
FN:302,_RNvNtCsjH0PaGjVXp8_6batuta8analyzer19calculate_tdg_score
FN:165,_RNvNtCsjH0PaGjVXp8_6batuta8analyzer19detect_dependencies
FN:216,_RNvNtCsjH0PaGjVXp8_6batuta8analyzer21check_dependency_file
FN:114,_RNvNtCsjH0PaGjVXp8_6batuta8analyzer25detect_language_from_path
FN:537,_RNvNtNtCsjH0PaGjVXp8_6batuta8analyzer5testss_19test_is_ignored_git
FN:573,_RNvNtNtCsjH0PaGjVXp8_6batuta8analyzer5testss_19test_is_not_ignored
FN:561,_RNvNtNtCsjH0PaGjVXp8_6batuta8analyzer5testss_20test_is_ignored_venv
FN:549,_RNvNtNtCsjH0PaGjVXp8_6batuta8analyzer5testss_22test_is_ignored_target
FN:486,_RNvNtNtCsjH0PaGjVXp8_6batuta8analyzer5testss_23test_count_lines_simple
FN:555,_RNvNtNtCsjH0PaGjVXp8_6batuta8analyzer5testss_23test_is_ignored_pycache
FN:777,_RNvNtNtCsjH0PaGjVXp8_6batuta8analyzer5testss_26test_analyze_project_basic
FN:686,_RNvNtNtCsjH0PaGjVXp8_6batuta8analyzer5testss_27test_count_dependencies_pip
FN:507,_RNvNtNtCsjH0PaGjVXp8_6batuta8analyzer5testss_27test_count_lines_empty_file
FN:567,_RNvNtNtCsjH0PaGjVXp8_6batuta8analyzer5testss_27test_is_ignored_ide_folders
FN:543,_RNvNtNtCsjH0PaGjVXp8_6batuta8analyzer5testss_28test_is_ignored_node_modules
FN:698,_RNvNtNtCsjH0PaGjVXp8_6batuta8analyzer5testss_29test_count_dependencies_cargo
FN:673,_RNvNtNtCsjH0PaGjVXp8_6batuta8analyzer5testss_29test_detect_dependencies_none
FN:651,_RNvNtNtCsjH0PaGjVXp8_6batuta8analyzer5testss_31test_detect_dependencies_go_mod
FN:517,_RNvNtNtCsjH0PaGjVXp8_6batuta8analyzer5testss_32test_count_lines_whitespace_only
FN:362,_RNvNtNtCsjH0PaGjVXp8_6batuta8analyzer5testss_32test_detect_language_from_path_c
FN:527,_RNvNtNtCsjH0PaGjVXp8_6batuta8analyzer5testss_33test_count_lines_nonexistent_file
FN:496,_RNvNtNtCsjH0PaGjVXp8_6batuta8analyzer5testss_33test_count_lines_with_empty_lines
FN:662,_RNvNtNtCsjH0PaGjVXp8_6batuta8analyzer5testss_33test_detect_dependencies_multiple
FN:458,_RNvNtNtCsjH0PaGjVXp8_6batuta8analyzer5testss_33test_detect_language_from_path_go
FN:745,_RNvNtNtCsjH0PaGjVXp8_6batuta8analyzer5testss_34test_count_dependencies_npm_no_dev
FN:374,_RNvNtNtCsjH0PaGjVXp8_6batuta8analyzer5testss_34test_detect_language_from_path_cpp
FN:621,_RNvNtNtCsjH0PaGjVXp8_6batuta8analyzer5testss_35test_detect_dependencies_rust_cargo
FN:466,_RNvNtNtCsjH0PaGjVXp8_6batuta8analyzer5testss_35test_detect_language_from_path_java
FN:402,_RNvNtNtCsjH0PaGjVXp8_6batuta8analyzer5testss_35test_detect_language_from_path_rust
FN:842,_RNvNtNtCsjH0PaGjVXp8_6batuta8analyzer5testss_36test_analyze_project_empty_directory
FN:809,_RNvNtNtCsjH0PaGjVXp8_6batuta8analyzer5testss_36test_analyze_project_mixed_languages
FN:722,_RNvNtNtCsjH0PaGjVXp8_6batuta8analyzer5testss_36test_count_dependencies_npm_with_dev
FN:414,_RNvNtNtCsjH0PaGjVXp8_6batuta8analyzer5testss_36test_detect_language_from_path_shell
FN:346,_RNvNtNtCsjH0PaGjVXp8_6batuta8analyzer5testss_37test_detect_language_from_path_python
FN:795,_RNvNtNtCsjH0PaGjVXp8_6batuta8analyzer5testss_38test_analyze_project_with_dependencies
FN:607,_RNvNtNtCsjH0PaGjVXp8_6batuta8analyzer5testss_38test_detect_dependencies_python_poetry
FN:474,_RNvNtNtCsjH0PaGjVXp8_6batuta8analyzer5testss_38test_detect_language_from_path_unknown
FN:636,_RNvNtNtCsjH0PaGjVXp8_6batuta8analyzer5testss_39test_detect_dependencies_javascript_npm
FN:596,_RNvNtNtCsjH0PaGjVXp8_6batuta8analyzer5testss_39test_detect_dependencies_python_pipfile
FN:824,_RNvNtNtCsjH0PaGjVXp8_6batuta8analyzer5testss_40test_analyze_project_ignores_directories
FN:430,_RNvNtNtCsjH0PaGjVXp8_6batuta8analyzer5testss_41test_detect_language_from_path_javascript
FN:446,_RNvNtNtCsjH0PaGjVXp8_6batuta8analyzer5testss_41test_detect_language_from_path_typescript
FN:760,_RNvNtNtCsjH0PaGjVXp8_6batuta8analyzer5testss_43test_count_dependencies_unsupported_manager
FN:584,_RNvNtNtCsjH0PaGjVXp8_6batuta8analyzer5testss_44test_detect_dependencies_python_requirements
FN:537,_RNvNtNtCshEp7d2sUZm6_6batuta8analyzer5testss_19test_is_ignored_git
FN:573,_RNvNtNtCshEp7d2sUZm6_6batuta8analyzer5testss_19test_is_not_ignored
FN:561,_RNvNtNtCshEp7d2sUZm6_6batuta8analyzer5testss_20test_is_ignored_venv
FN:549,_RNvNtNtCshEp7d2sUZm6_6batuta8analyzer5testss_22test_is_ignored_target
FN:486,_RNvNtNtCshEp7d2sUZm6_6batuta8analyzer5testss_23test_count_lines_simple
FN:555,_RNvNtNtCshEp7d2sUZm6_6batuta8analyzer5testss_23test_is_ignored_pycache
FN:777,_RNvNtNtCshEp7d2sUZm6_6batuta8analyzer5testss_26test_analyze_project_basic
FN:686,_RNvNtNtCshEp7d2sUZm6_6batuta8analyzer5testss_27test_count_dependencies_pip
FN:507,_RNvNtNtCshEp7d2sUZm6_6batuta8analyzer5testss_27test_count_lines_empty_file
FN:567,_RNvNtNtCshEp7d2sUZm6_6batuta8analyzer5testss_27test_is_ignored_ide_folders
FN:543,_RNvNtNtCshEp7d2sUZm6_6batuta8analyzer5testss_28test_is_ignored_node_modules
FN:698,_RNvNtNtCshEp7d2sUZm6_6batuta8analyzer5testss_29test_count_dependencies_cargo
FN:673,_RNvNtNtCshEp7d2sUZm6_6batuta8analyzer5testss_29test_detect_dependencies_none
FN:651,_RNvNtNtCshEp7d2sUZm6_6batuta8analyzer5testss_31test_detect_dependencies_go_mod
FN:517,_RNvNtNtCshEp7d2sUZm6_6batuta8analyzer5testss_32test_count_lines_whitespace_only
FN:362,_RNvNtNtCshEp7d2sUZm6_6batuta8analyzer5testss_32test_detect_language_from_path_c
FN:527,_RNvNtNtCshEp7d2sUZm6_6batuta8analyzer5testss_33test_count_lines_nonexistent_file
FN:496,_RNvNtNtCshEp7d2sUZm6_6batuta8analyzer5testss_33test_count_lines_with_empty_lines
FN:662,_RNvNtNtCshEp7d2sUZm6_6batuta8analyzer5testss_33test_detect_dependencies_multiple
FN:458,_RNvNtNtCshEp7d2sUZm6_6batuta8analyzer5testss_33test_detect_language_from_path_go
FN:745,_RNvNtNtCshEp7d2sUZm6_6batuta8analyzer5testss_34test_count_dependencies_npm_no_dev
FN:374,_RNvNtNtCshEp7d2sUZm6_6batuta8analyzer5testss_34test_detect_language_from_path_cpp
FN:621,_RNvNtNtCshEp7d2sUZm6_6batuta8analyzer5testss_35test_detect_dependencies_rust_cargo
FN:466,_RNvNtNtCshEp7d2sUZm6_6batuta8analyzer5testss_35test_detect_language_from_path_java
FN:402,_RNvNtNtCshEp7d2sUZm6_6batuta8analyzer5testss_35test_detect_language_from_path_rust
FN:842,_RNvNtNtCshEp7d2sUZm6_6batuta8analyzer5testss_36test_analyze_project_empty_directory
FN:809,_RNvNtNtCshEp7d2sUZm6_6batuta8analyzer5testss_36test_analyze_project_mixed_languages
FN:722,_RNvNtNtCshEp7d2sUZm6_6batuta8analyzer5testss_36test_count_dependencies_npm_with_dev
FN:414,_RNvNtNtCshEp7d2sUZm6_6batuta8analyzer5testss_36test_detect_language_from_path_shell
FN:346,_RNvNtNtCshEp7d2sUZm6_6batuta8analyzer5testss_37test_detect_language_from_path_python
FN:795,_RNvNtNtCshEp7d2sUZm6_6batuta8analyzer5testss_38test_analyze_project_with_dependencies
FN:607,_RNvNtNtCshEp7d2sUZm6_6batuta8analyzer5testss_38test_detect_dependencies_python_poetry
FN:474,_RNvNtNtCshEp7d2sUZm6_6batuta8analyzer5testss_38test_detect_language_from_path_unknown
FN:636,_RNvNtNtCshEp7d2sUZm6_6batuta8analyzer5testss_39test_detect_dependencies_javascript_npm
FN:596,_RNvNtNtCshEp7d2sUZm6_6batuta8analyzer5testss_39test_detect_dependencies_python_pipfile
FN:824,_RNvNtNtCshEp7d2sUZm6_6batuta8analyzer5testss_40test_analyze_project_ignores_directories
FN:430,_RNvNtNtCshEp7d2sUZm6_6batuta8analyzer5testss_41test_detect_language_from_path_javascript
FN:446,_RNvNtNtCshEp7d2sUZm6_6batuta8analyzer5testss_41test_detect_language_from_path_typescript
FN:760,_RNvNtNtCshEp7d2sUZm6_6batuta8analyzer5testss_43test_count_dependencies_unsupported_manager
FN:584,_RNvNtNtCshEp7d2sUZm6_6batuta8analyzer5testss_44test_detect_dependencies_python_requirements
FN:138,_RNvNtCshEp7d2sUZm6_6batuta8analyzer10is_ignored
FN:132,_RNvNtCshEp7d2sUZm6_6batuta8analyzer11count_lines
FN:31,_RNvNtCshEp7d2sUZm6_6batuta8analyzer15analyze_project
FN:71,_RNvNtCshEp7d2sUZm6_6batuta8analyzer16detect_languages
FN:235,_RNvNtCshEp7d2sUZm6_6batuta8analyzer17check_poetry_deps
FN:253,_RNvNtCshEp7d2sUZm6_6batuta8analyzer18count_dependencies
FN:302,_RNvNtCshEp7d2sUZm6_6batuta8analyzer19calculate_tdg_score
FN:165,_RNvNtCshEp7d2sUZm6_6batuta8analyzer19detect_dependencies
FN:216,_RNvNtCshEp7d2sUZm6_6batuta8analyzer21check_dependency_file
FN:114,_RNvNtCshEp7d2sUZm6_6batuta8analyzer25detect_language_from_path
FN:155,_RNCNvNtCshEp7d2sUZm6_6batuta8analyzer10is_ignored0B5_
FN:134,_RNCNvNtCshEp7d2sUZm6_6batuta8analyzer11count_lines0B5_
FN:77,_RNCNvNtCshEp7d2sUZm6_6batuta8analyzer16detect_languages0B5_
FN:97,_RNCNvNtCshEp7d2sUZm6_6batuta8analyzer16detect_languagess0_0B5_
FN:108,_RNCNvNtCshEp7d2sUZm6_6batuta8analyzer16detect_languagess1_0B5_
FN:262,_RNCNvNtCshEp7d2sUZm6_6batuta8analyzer18count_dependencies0B5_
FN:291,_RNCNvNtCshEp7d2sUZm6_6batuta8analyzer18count_dependenciess0_0B5_
FN:292,_RNCNvNtCshEp7d2sUZm6_6batuta8analyzer18count_dependenciess1_0B5_
FN:292,_RNCNvNtCshEp7d2sUZm6_6batuta8analyzer18count_dependenciess2_0B5_
FN:290,_RNCNvNtCshEp7d2sUZm6_6batuta8analyzer18count_dependenciess_0B5_
FN:155,_RNCNvNtCsc3xvWSUKV5Z_6batuta8analyzer10is_ignored0B5_
FN:134,_RNCNvNtCsc3xvWSUKV5Z_6batuta8analyzer11count_lines0B5_
FN:77,_RNCNvNtCsc3xvWSUKV5Z_6batuta8analyzer16detect_languages0B5_
FN:97,_RNCNvNtCsc3xvWSUKV5Z_6batuta8analyzer16detect_languagess0_0B5_
FN:108,_RNCNvNtCsc3xvWSUKV5Z_6batuta8analyzer16detect_languagess1_0B5_
FN:262,_RNCNvNtCsc3xvWSUKV5Z_6batuta8analyzer18count_dependencies0B5_
FN:291,_RNCNvNtCsc3xvWSUKV5Z_6batuta8analyzer18count_dependenciess0_0B5_
FN:292,_RNCNvNtCsc3xvWSUKV5Z_6batuta8analyzer18count_dependenciess1_0B5_
FN:292,_RNCNvNtCsc3xvWSUKV5Z_6batuta8analyzer18count_dependenciess2_0B5_
FN:290,_RNCNvNtCsc3xvWSUKV5Z_6batuta8analyzer18count_dependenciess_0B5_
FN:138,_RNvNtCsc3xvWSUKV5Z_6batuta8analyzer10is_ignored
FN:132,_RNvNtCsc3xvWSUKV5Z_6batuta8analyzer11count_lines
FN:31,_RNvNtCsc3xvWSUKV5Z_6batuta8analyzer15analyze_project
FN:71,_RNvNtCsc3xvWSUKV5Z_6batuta8analyzer16detect_languages
FN:235,_RNvNtCsc3xvWSUKV5Z_6batuta8analyzer17check_poetry_deps
FN:253,_RNvNtCsc3xvWSUKV5Z_6batuta8analyzer18count_dependencies
FN:302,_RNvNtCsc3xvWSUKV5Z_6batuta8analyzer19calculate_tdg_score
FN:165,_RNvNtCsc3xvWSUKV5Z_6batuta8analyzer19detect_dependencies
FN:216,_RNvNtCsc3xvWSUKV5Z_6batuta8analyzer21check_dependency_file
FN:114,_RNvNtCsc3xvWSUKV5Z_6batuta8analyzer25detect_language_from_path
FNDA:291,_RNvNtCs2Yt0WxJROpx_6batuta8analyzer10is_ignored
FNDA:44,_RNvNtCs2Yt0WxJROpx_6batuta8analyzer11count_lines
FNDA:17,_RNvNtCs2Yt0WxJROpx_6batuta8analyzer15analyze_project
FNDA:10,_RNvNtCs2Yt0WxJROpx_6batuta8analyzer16detect_languages
FNDA:8,_RNvNtCs2Yt0WxJROpx_6batuta8analyzer17check_poetry_deps
FNDA:1,_RNvNtCs2Yt0WxJROpx_6batuta8analyzer18count_dependencies
FNDA:8,_RNvNtCs2Yt0WxJROpx_6batuta8analyzer19calculate_tdg_score
FNDA:8,_RNvNtCs2Yt0WxJROpx_6batuta8analyzer19detect_dependencies
FNDA:80,_RNvNtCs2Yt0WxJROpx_6batuta8analyzer21check_dependency_file
FNDA:243,_RNvNtCs2Yt0WxJROpx_6batuta8analyzer25detect_language_from_path
FNDA:1124,_RNCNvNtCs2Yt0WxJROpx_6batuta8analyzer10is_ignored0B5_
FNDA:18751,_RNCNvNtCs2Yt0WxJROpx_6batuta8analyzer11count_lines0B5_
FNDA:291,_RNCNvNtCs2Yt0WxJROpx_6batuta8analyzer16detect_languages0B5_
FNDA:11,_RNCNvNtCs2Yt0WxJROpx_6batuta8analyzer16detect_languagess0_0B5_
FNDA:3,_RNCNvNtCs2Yt0WxJROpx_6batuta8analyzer16detect_languagess1_0B5_
FNDA:2,_RNCNvNtCs2Yt0WxJROpx_6batuta8analyzer18count_dependencies0B5_
FNDA:0,_RNCNvNtCs2Yt0WxJROpx_6batuta8analyzer18count_dependenciess0_0B5_
FNDA:0,_RNCNvNtCs2Yt0WxJROpx_6batuta8analyzer18count_dependenciess1_0B5_
FNDA:0,_RNCNvNtCs2Yt0WxJROpx_6batuta8analyzer18count_dependenciess2_0B5_
FNDA:0,_RNCNvNtCs2Yt0WxJROpx_6batuta8analyzer18count_dependenciess_0B5_
FNDA:113,_RNCNvNtCsjH0PaGjVXp8_6batuta8analyzer10is_ignored0B5_
FNDA:23,_RNCNvNtCsjH0PaGjVXp8_6batuta8analyzer11count_lines0B5_
FNDA:20,_RNCNvNtCsjH0PaGjVXp8_6batuta8analyzer16detect_languages0B5_
FNDA:8,_RNCNvNtCsjH0PaGjVXp8_6batuta8analyzer16detect_languagess0_0B5_
FNDA:2,_RNCNvNtCsjH0PaGjVXp8_6batuta8analyzer16detect_languagess1_0B5_
FNDA:10,_RNCNvNtCsjH0PaGjVXp8_6batuta8analyzer18count_dependencies0B5_
FNDA:1,_RNCNvNtCsjH0PaGjVXp8_6batuta8analyzer18count_dependenciess0_0B5_
FNDA:4,_RNCNvNtCsjH0PaGjVXp8_6batuta8analyzer18count_dependenciess1_0B5_
FNDA:1,_RNCNvNtCsjH0PaGjVXp8_6batuta8analyzer18count_dependenciess2_0B5_
FNDA:4,_RNCNvNtCsjH0PaGjVXp8_6batuta8analyzer18count_dependenciess_0B5_
FNDA:35,_RNvNtCsjH0PaGjVXp8_6batuta8analyzer10is_ignored
FNDA:14,_RNvNtCsjH0PaGjVXp8_6batuta8analyzer11count_lines
FNDA:8,_RNvNtCsjH0PaGjVXp8_6batuta8analyzer15analyze_project
FNDA:8,_RNvNtCsjH0PaGjVXp8_6batuta8analyzer16detect_languages
FNDA:12,_RNvNtCsjH0PaGjVXp8_6batuta8analyzer17check_poetry_deps
FNDA:14,_RNvNtCsjH0PaGjVXp8_6batuta8analyzer18count_dependencies
FNDA:0,_RNvNtCsjH0PaGjVXp8_6batuta8analyzer19calculate_tdg_score
FNDA:12,_RNvNtCsjH0PaGjVXp8_6batuta8analyzer19detect_dependencies
FNDA:120,_RNvNtCsjH0PaGjVXp8_6batuta8analyzer21check_dependency_file
FNDA:37,_RNvNtCsjH0PaGjVXp8_6batuta8analyzer25detect_language_from_path
FNDA:1,_RNvNtNtCsjH0PaGjVXp8_6batuta8analyzer5testss_19test_is_ignored_git
FNDA:1,_RNvNtNtCsjH0PaGjVXp8_6batuta8analyzer5testss_19test_is_not_ignored
FNDA:1,_RNvNtNtCsjH0PaGjVXp8_6batuta8analyzer5testss_20test_is_ignored_venv
FNDA:1,_RNvNtNtCsjH0PaGjVXp8_6batuta8analyzer5testss_22test_is_ignored_target
FNDA:1,_RNvNtNtCsjH0PaGjVXp8_6batuta8analyzer5testss_23test_count_lines_simple
FNDA:1,_RNvNtNtCsjH0PaGjVXp8_6batuta8analyzer5testss_23test_is_ignored_pycache
FNDA:1,_RNvNtNtCsjH0PaGjVXp8_6batuta8analyzer5testss_26test_analyze_project_basic
FNDA:1,_RNvNtNtCsjH0PaGjVXp8_6batuta8analyzer5testss_27test_count_dependencies_pip
FNDA:1,_RNvNtNtCsjH0PaGjVXp8_6batuta8analyzer5testss_27test_count_lines_empty_file
FNDA:1,_RNvNtNtCsjH0PaGjVXp8_6batuta8analyzer5testss_27test_is_ignored_ide_folders
FNDA:1,_RNvNtNtCsjH0PaGjVXp8_6batuta8analyzer5testss_28test_is_ignored_node_modules
FNDA:1,_RNvNtNtCsjH0PaGjVXp8_6batuta8analyzer5testss_29test_count_dependencies_cargo
FNDA:1,_RNvNtNtCsjH0PaGjVXp8_6batuta8analyzer5testss_29test_detect_dependencies_none
FNDA:1,_RNvNtNtCsjH0PaGjVXp8_6batuta8analyzer5testss_31test_detect_dependencies_go_mod
FNDA:1,_RNvNtNtCsjH0PaGjVXp8_6batuta8analyzer5testss_32test_count_lines_whitespace_only
FNDA:1,_RNvNtNtCsjH0PaGjVXp8_6batuta8analyzer5testss_32test_detect_language_from_path_c
FNDA:1,_RNvNtNtCsjH0PaGjVXp8_6batuta8analyzer5testss_33test_count_lines_nonexistent_file
FNDA:1,_RNvNtNtCsjH0PaGjVXp8_6batuta8analyzer5testss_33test_count_lines_with_empty_lines
FNDA:1,_RNvNtNtCsjH0PaGjVXp8_6batuta8analyzer5testss_33test_detect_dependencies_multiple
FNDA:1,_RNvNtNtCsjH0PaGjVXp8_6batuta8analyzer5testss_33test_detect_language_from_path_go
FNDA:1,_RNvNtNtCsjH0PaGjVXp8_6batuta8analyzer5testss_34test_count_dependencies_npm_no_dev
FNDA:1,_RNvNtNtCsjH0PaGjVXp8_6batuta8analyzer5testss_34test_detect_language_from_path_cpp
FNDA:1,_RNvNtNtCsjH0PaGjVXp8_6batuta8analyzer5testss_35test_detect_dependencies_rust_cargo
FNDA:1,_RNvNtNtCsjH0PaGjVXp8_6batuta8analyzer5testss_35test_detect_language_from_path_java
FNDA:1,_RNvNtNtCsjH0PaGjVXp8_6batuta8analyzer5testss_35test_detect_language_from_path_rust
FNDA:1,_RNvNtNtCsjH0PaGjVXp8_6batuta8analyzer5testss_36test_analyze_project_empty_directory
FNDA:1,_RNvNtNtCsjH0PaGjVXp8_6batuta8analyzer5testss_36test_analyze_project_mixed_languages
FNDA:1,_RNvNtNtCsjH0PaGjVXp8_6batuta8analyzer5testss_36test_count_dependencies_npm_with_dev
FNDA:1,_RNvNtNtCsjH0PaGjVXp8_6batuta8analyzer5testss_36test_detect_language_from_path_shell
FNDA:1,_RNvNtNtCsjH0PaGjVXp8_6batuta8analyzer5testss_37test_detect_language_from_path_python
FNDA:1,_RNvNtNtCsjH0PaGjVXp8_6batuta8analyzer5testss_38test_analyze_project_with_dependencies
FNDA:1,_RNvNtNtCsjH0PaGjVXp8_6batuta8analyzer5testss_38test_detect_dependencies_python_poetry
FNDA:1,_RNvNtNtCsjH0PaGjVXp8_6batuta8analyzer5testss_38test_detect_language_from_path_unknown
FNDA:1,_RNvNtNtCsjH0PaGjVXp8_6batuta8analyzer5testss_39test_detect_dependencies_javascript_npm
FNDA:1,_RNvNtNtCsjH0PaGjVXp8_6batuta8analyzer5testss_39test_detect_dependencies_python_pipfile
FNDA:1,_RNvNtNtCsjH0PaGjVXp8_6batuta8analyzer5testss_40test_analyze_project_ignores_directories
FNDA:1,_RNvNtNtCsjH0PaGjVXp8_6batuta8analyzer5testss_41test_detect_language_from_path_javascript
FNDA:1,_RNvNtNtCsjH0PaGjVXp8_6batuta8analyzer5testss_41test_detect_language_from_path_typescript
FNDA:1,_RNvNtNtCsjH0PaGjVXp8_6batuta8analyzer5testss_43test_count_dependencies_unsupported_manager
FNDA:1,_RNvNtNtCsjH0PaGjVXp8_6batuta8analyzer5testss_44test_detect_dependencies_python_requirements
FNDA:1,_RNvNtNtCshEp7d2sUZm6_6batuta8analyzer5testss_19test_is_ignored_git
FNDA:1,_RNvNtNtCshEp7d2sUZm6_6batuta8analyzer5testss_19test_is_not_ignored
FNDA:1,_RNvNtNtCshEp7d2sUZm6_6batuta8analyzer5testss_20test_is_ignored_venv
FNDA:1,_RNvNtNtCshEp7d2sUZm6_6batuta8analyzer5testss_22test_is_ignored_target
FNDA:1,_RNvNtNtCshEp7d2sUZm6_6batuta8analyzer5testss_23test_count_lines_simple
FNDA:1,_RNvNtNtCshEp7d2sUZm6_6batuta8analyzer5testss_23test_is_ignored_pycache
FNDA:1,_RNvNtNtCshEp7d2sUZm6_6batuta8analyzer5testss_26test_analyze_project_basic
FNDA:1,_RNvNtNtCshEp7d2sUZm6_6batuta8analyzer5testss_27test_count_dependencies_pip
FNDA:1,_RNvNtNtCshEp7d2sUZm6_6batuta8analyzer5testss_27test_count_lines_empty_file
FNDA:1,_RNvNtNtCshEp7d2sUZm6_6batuta8analyzer5testss_27test_is_ignored_ide_folders
FNDA:1,_RNvNtNtCshEp7d2sUZm6_6batuta8analyzer5testss_28test_is_ignored_node_modules
FNDA:1,_RNvNtNtCshEp7d2sUZm6_6batuta8analyzer5testss_29test_count_dependencies_cargo
FNDA:1,_RNvNtNtCshEp7d2sUZm6_6batuta8analyzer5testss_29test_detect_dependencies_none
FNDA:1,_RNvNtNtCshEp7d2sUZm6_6batuta8analyzer5testss_31test_detect_dependencies_go_mod
FNDA:1,_RNvNtNtCshEp7d2sUZm6_6batuta8analyzer5testss_32test_count_lines_whitespace_only
FNDA:1,_RNvNtNtCshEp7d2sUZm6_6batuta8analyzer5testss_32test_detect_language_from_path_c
FNDA:1,_RNvNtNtCshEp7d2sUZm6_6batuta8analyzer5testss_33test_count_lines_nonexistent_file
FNDA:1,_RNvNtNtCshEp7d2sUZm6_6batuta8analyzer5testss_33test_count_lines_with_empty_lines
FNDA:1,_RNvNtNtCshEp7d2sUZm6_6batuta8analyzer5testss_33test_detect_dependencies_multiple
FNDA:1,_RNvNtNtCshEp7d2sUZm6_6batuta8analyzer5testss_33test_detect_language_from_path_go
FNDA:1,_RNvNtNtCshEp7d2sUZm6_6batuta8analyzer5testss_34test_count_dependencies_npm_no_dev
FNDA:1,_RNvNtNtCshEp7d2sUZm6_6batuta8analyzer5testss_34test_detect_language_from_path_cpp
FNDA:1,_RNvNtNtCshEp7d2sUZm6_6batuta8analyzer5testss_35test_detect_dependencies_rust_cargo
FNDA:1,_RNvNtNtCshEp7d2sUZm6_6batuta8analyzer5testss_35test_detect_language_from_path_java
FNDA:1,_RNvNtNtCshEp7d2sUZm6_6batuta8analyzer5testss_35test_detect_language_from_path_rust
FNDA:1,_RNvNtNtCshEp7d2sUZm6_6batuta8analyzer5testss_36test_analyze_project_empty_directory
FNDA:1,_RNvNtNtCshEp7d2sUZm6_6batuta8analyzer5testss_36test_analyze_project_mixed_languages
FNDA:1,_RNvNtNtCshEp7d2sUZm6_6batuta8analyzer5testss_36test_count_dependencies_npm_with_dev
FNDA:1,_RNvNtNtCshEp7d2sUZm6_6batuta8analyzer5testss_36test_detect_language_from_path_shell
FNDA:1,_RNvNtNtCshEp7d2sUZm6_6batuta8analyzer5testss_37test_detect_language_from_path_python
FNDA:1,_RNvNtNtCshEp7d2sUZm6_6batuta8analyzer5testss_38test_analyze_project_with_dependencies
FNDA:1,_RNvNtNtCshEp7d2sUZm6_6batuta8analyzer5testss_38test_detect_dependencies_python_poetry
FNDA:1,_RNvNtNtCshEp7d2sUZm6_6batuta8analyzer5testss_38test_detect_language_from_path_unknown
FNDA:1,_RNvNtNtCshEp7d2sUZm6_6batuta8analyzer5testss_39test_detect_dependencies_javascript_npm
FNDA:1,_RNvNtNtCshEp7d2sUZm6_6batuta8analyzer5testss_39test_detect_dependencies_python_pipfile
FNDA:1,_RNvNtNtCshEp7d2sUZm6_6batuta8analyzer5testss_40test_analyze_project_ignores_directories
FNDA:1,_RNvNtNtCshEp7d2sUZm6_6batuta8analyzer5testss_41test_detect_language_from_path_javascript
FNDA:1,_RNvNtNtCshEp7d2sUZm6_6batuta8analyzer5testss_41test_detect_language_from_path_typescript
FNDA:1,_RNvNtNtCshEp7d2sUZm6_6batuta8analyzer5testss_43test_count_dependencies_unsupported_manager
FNDA:1,_RNvNtNtCshEp7d2sUZm6_6batuta8analyzer5testss_44test_detect_dependencies_python_requirements
FNDA:35,_RNvNtCshEp7d2sUZm6_6batuta8analyzer10is_ignored
FNDA:14,_RNvNtCshEp7d2sUZm6_6batuta8analyzer11count_lines
FNDA:8,_RNvNtCshEp7d2sUZm6_6batuta8analyzer15analyze_project
FNDA:8,_RNvNtCshEp7d2sUZm6_6batuta8analyzer16detect_languages
FNDA:12,_RNvNtCshEp7d2sUZm6_6batuta8analyzer17check_poetry_deps
FNDA:14,_RNvNtCshEp7d2sUZm6_6batuta8analyzer18count_dependencies
FNDA:0,_RNvNtCshEp7d2sUZm6_6batuta8analyzer19calculate_tdg_score
FNDA:12,_RNvNtCshEp7d2sUZm6_6batuta8analyzer19detect_dependencies
FNDA:120,_RNvNtCshEp7d2sUZm6_6batuta8analyzer21check_dependency_file
FNDA:37,_RNvNtCshEp7d2sUZm6_6batuta8analyzer25detect_language_from_path
FNDA:113,_RNCNvNtCshEp7d2sUZm6_6batuta8analyzer10is_ignored0B5_
FNDA:23,_RNCNvNtCshEp7d2sUZm6_6batuta8analyzer11count_lines0B5_
FNDA:20,_RNCNvNtCshEp7d2sUZm6_6batuta8analyzer16detect_languages0B5_
FNDA:8,_RNCNvNtCshEp7d2sUZm6_6batuta8analyzer16detect_languagess0_0B5_
FNDA:2,_RNCNvNtCshEp7d2sUZm6_6batuta8analyzer16detect_languagess1_0B5_
FNDA:10,_RNCNvNtCshEp7d2sUZm6_6batuta8analyzer18count_dependencies0B5_
FNDA:1,_RNCNvNtCshEp7d2sUZm6_6batuta8analyzer18count_dependenciess0_0B5_
FNDA:4,_RNCNvNtCshEp7d2sUZm6_6batuta8analyzer18count_dependenciess1_0B5_
FNDA:1,_RNCNvNtCshEp7d2sUZm6_6batuta8analyzer18count_dependenciess2_0B5_
FNDA:4,_RNCNvNtCshEp7d2sUZm6_6batuta8analyzer18count_dependenciess_0B5_
FNDA:0,_RNCNvNtCsc3xvWSUKV5Z_6batuta8analyzer10is_ignored0B5_
FNDA:0,_RNCNvNtCsc3xvWSUKV5Z_6batuta8analyzer11count_lines0B5_
FNDA:0,_RNCNvNtCsc3xvWSUKV5Z_6batuta8analyzer16detect_languages0B5_
FNDA:0,_RNCNvNtCsc3xvWSUKV5Z_6batuta8analyzer16detect_languagess0_0B5_
FNDA:0,_RNCNvNtCsc3xvWSUKV5Z_6batuta8analyzer16detect_languagess1_0B5_
FNDA:0,_RNCNvNtCsc3xvWSUKV5Z_6batuta8analyzer18count_dependencies0B5_
FNDA:0,_RNCNvNtCsc3xvWSUKV5Z_6batuta8analyzer18count_dependenciess0_0B5_
FNDA:0,_RNCNvNtCsc3xvWSUKV5Z_6batuta8analyzer18count_dependenciess1_0B5_
FNDA:0,_RNCNvNtCsc3xvWSUKV5Z_6batuta8analyzer18count_dependenciess2_0B5_
FNDA:0,_RNCNvNtCsc3xvWSUKV5Z_6batuta8analyzer18count_dependenciess_0B5_
FNDA:0,_RNvNtCsc3xvWSUKV5Z_6batuta8analyzer10is_ignored
FNDA:0,_RNvNtCsc3xvWSUKV5Z_6batuta8analyzer11count_lines
FNDA:0,_RNvNtCsc3xvWSUKV5Z_6batuta8analyzer15analyze_project
FNDA:0,_RNvNtCsc3xvWSUKV5Z_6batuta8analyzer16detect_languages
FNDA:0,_RNvNtCsc3xvWSUKV5Z_6batuta8analyzer17check_poetry_deps
FNDA:0,_RNvNtCsc3xvWSUKV5Z_6batuta8analyzer18count_dependencies
FNDA:0,_RNvNtCsc3xvWSUKV5Z_6batuta8analyzer19calculate_tdg_score
FNDA:0,_RNvNtCsc3xvWSUKV5Z_6batuta8analyzer19detect_dependencies
FNDA:0,_RNvNtCsc3xvWSUKV5Z_6batuta8analyzer21check_dependency_file
FNDA:0,_RNvNtCsc3xvWSUKV5Z_6batuta8analyzer25detect_language_from_path
FNF:60
FNH:60
DA:31,33
DA:32,33
DA:33,33
DA:34,33
DA:35,33
DA:36,33
DA:37,33
DA:39,33
DA:41,33
DA:42,26
DA:43,26
DA:44,25
DA:47,25
DA:48,21
DA:49,21
DA:52,25
DA:53,25
DA:54,7
DA:56,32
DA:57,16
DA:58,16
DA:59,16
DA:61,32
DA:62,8
DA:63,8
DA:64,24
DA:66,32
DA:67,33
DA:71,26
DA:72,26
DA:74,328
DA:75,26
DA:76,26
DA:77,331
DA:79,328
DA:80,327
DA:81,64
DA:82,263
DA:84,263
DA:85,62
DA:86,62
DA:87,62
DA:88,62
DA:89,201
DA:93,25
DA:94,25
DA:95,25
DA:96,25
DA:97,27
DA:98,27
DA:99,27
DA:100,27
DA:101,27
DA:103,0
DA:105,27
DA:106,25
DA:108,25
DA:110,25
DA:111,26
DA:114,317
DA:115,317
DA:117,307
DA:118,307
DA:119,287
DA:120,283
DA:121,271
DA:122,224
DA:123,213
DA:124,207
DA:125,203
DA:126,201
DA:127,199
DA:129,317
DA:132,72
DA:133,72
DA:134,18797
DA:135,72
DA:138,361
DA:139,361
DA:140,361
DA:141,361
DA:142,361
DA:143,361
DA:144,361
DA:145,361
DA:146,361
DA:147,361
DA:148,361
DA:149,361
DA:150,361
DA:151,361
DA:152,361
DA:153,361
DA:155,1350
DA:156,1350
DA:157,1350
DA:159,0
DA:161,1350
DA:162,361
DA:165,32
DA:166,32
DA:169,32
DA:170,7
DA:171,25
DA:172,32
DA:173,2
DA:174,30
DA:175,32
DA:176,2
DA:177,30
DA:178,32
DA:179,0
DA:180,32
DA:183,32
DA:184,2
DA:185,30
DA:188,32
DA:189,4
DA:190,28
DA:191,32
DA:192,0
DA:193,32
DA:196,32
DA:197,2
DA:198,30
DA:201,32
DA:202,0
DA:203,32
DA:204,32
DA:205,0
DA:206,32
DA:209,32
DA:210,0
DA:211,32
DA:213,32
DA:214,32
DA:216,320
DA:217,320
DA:218,320
DA:219,320
DA:220,320
DA:221,320
DA:222,320
DA:223,17
DA:224,17
DA:225,17
DA:226,17
DA:227,17
DA:228,17
DA:229,17
DA:231,303
DA:233,320
DA:235,32
DA:236,32
DA:237,32
DA:238,2
DA:239,2
DA:240,2
DA:241,2
DA:242,2
DA:243,2
DA:244,2
DA:245,2
DA:246,2
DA:247,0
DA:248,0
DA:249,30
DA:250,30
DA:251,32
DA:253,29
DA:254,29
DA:256,29
DA:260,9
DA:261,9
DA:262,22
DA:263,22
DA:264,22
DA:265,22
DA:266,9
DA:271,4
DA:272,4
DA:273,4
DA:275,30
DA:276,26
DA:277,26
DA:278,6
DA:279,20
DA:280,4
DA:281,16
DA:282,8
DA:283,8
DA:285,4
DA:289,8
DA:290,8
DA:291,8
DA:292,8
DA:294,0
DA:297,8
DA:299,29
DA:302,8
DA:303,8
DA:305,8
DA:306,8
DA:307,8
DA:308,8
DA:309,8
DA:311,8
DA:312,0
DA:313,0
DA:314,8
DA:316,8
DA:319,32
DA:320,32
DA:321,8
DA:323,8
DA:324,8
DA:325,8
DA:326,0
DA:327,0
DA:328,0
DA:329,24
DA:332,0
DA:333,8
DA:346,2
DA:347,2
DA:348,2
DA:351,2
DA:352,2
DA:355,2
DA:356,2
DA:359,2
DA:362,2
DA:363,2
DA:364,2
DA:367,2
DA:368,2
DA:371,2
DA:374,2
DA:375,2
DA:376,2
DA:379,2
DA:380,2
DA:383,2
DA:384,2
DA:387,2
DA:388,2
DA:391,2
DA:392,2
DA:395,2
DA:396,2
DA:399,2
DA:402,2
DA:403,2
DA:404,2
DA:407,2
DA:408,2
DA:411,2
DA:414,2
DA:415,2
DA:416,2
DA:419,2
DA:420,2
DA:423,2
DA:424,2
DA:427,2
DA:430,2
DA:431,2
DA:432,2
DA:435,2
DA:436,2
DA:439,2
DA:440,2
DA:443,2
DA:446,2
DA:447,2
DA:448,2
DA:451,2
DA:452,2
DA:455,2
DA:458,2
DA:459,2
DA:460,2
DA:463,2
DA:466,2
DA:467,2
DA:468,2
DA:471,2
DA:474,2
DA:475,2
DA:476,2
DA:477,2
DA:478,2
DA:479,2
DA:486,2
DA:487,2
DA:488,2
DA:490,2
DA:492,2
DA:493,2
DA:496,2
DA:497,2
DA:498,2
DA:500,2
DA:503,2
DA:504,2
DA:507,2
DA:508,2
DA:509,2
DA:511,2
DA:513,2
DA:514,2
DA:517,2
DA:518,2
DA:519,2
DA:521,2
DA:523,2
DA:524,2
DA:527,2
DA:528,2
DA:529,2
DA:530,2
DA:537,2
DA:538,2
DA:539,2
DA:540,2
DA:543,2
DA:544,2
DA:545,2
DA:546,2
DA:549,2
DA:550,2
DA:551,2
DA:552,2
DA:555,2
DA:556,2
DA:557,2
DA:558,2
DA:561,2
DA:562,2
DA:563,2
DA:564,2
DA:567,2
DA:568,2
DA:569,2
DA:570,2
DA:573,2
DA:574,2
DA:575,2
DA:576,2
DA:577,2
DA:584,2
DA:585,2
DA:586,2
DA:588,2
DA:590,2
DA:591,2
DA:592,2
DA:593,2
DA:596,2
DA:597,2
DA:598,2
DA:600,2
DA:602,2
DA:603,2
DA:604,2
DA:607,2
DA:608,2
DA:609,2
DA:610,2
DA:612,2
DA:614,2
DA:616,2
DA:617,2
DA:618,2
DA:621,2
DA:622,2
DA:623,2
DA:624,2
DA:626,2
DA:628,2
DA:630,2
DA:631,2
DA:632,2
DA:633,2
DA:636,2
DA:637,2
DA:638,2
DA:639,2
DA:641,2
DA:643,2
DA:645,2
DA:646,2
DA:647,2
DA:648,2
DA:651,2
DA:652,2
DA:653,2
DA:655,2
DA:657,2
DA:658,2
DA:659,2
DA:662,2
DA:663,2
DA:664,2
DA:665,2
DA:667,2
DA:669,2
DA:670,2
DA:673,2
DA:674,2
DA:676,2
DA:678,2
DA:679,2
DA:686,2
DA:687,2
DA:688,2
DA:690,2
DA:692,2
DA:694,2
DA:695,2
DA:698,2
DA:699,2
DA:700,2
DA:702,2
DA:703,2
DA:714,2
DA:716,2
DA:718,2
DA:719,2
DA:722,2
DA:723,2
DA:724,2
DA:726,2
DA:727,2
DA:737,2
DA:739,2
DA:741,2
DA:742,2
DA:745,2
DA:746,2
DA:747,2
DA:749,2
DA:750,2
DA:752,2
DA:754,2
DA:756,2
DA:757,2
DA:760,2
DA:761,2
DA:762,2
DA:764,2
DA:766,2
DA:768,2
DA:769,2
DA:777,2
DA:778,2
DA:781,2
DA:782,2
DA:784,2
DA:786,2
DA:787,2
DA:788,2
DA:789,2
DA:790,2
DA:791,2
DA:795,2
DA:796,2
DA:798,2
DA:799,2
DA:801,2
DA:803,2
DA:804,2
DA:805,2
DA:809,2
DA:810,2
DA:812,2
DA:813,2
DA:814,2
DA:816,2
DA:818,2
DA:819,2
DA:820,2
DA:824,2
DA:825,2
DA:828,2
DA:831,2
DA:832,2
DA:834,2
DA:837,2
DA:838,2
DA:839,2
DA:842,2
DA:843,2
DA:845,2
DA:848,2
DA:849,2
DA:850,2
DA:851,2
DA:852,2
DA:853,2
BRF:0
BRH:0
LF:509
LH:493
end_of_record
SF:/home/noah/src/batuta/src/backend.rs
FN:268,_RNvMs0_NtCs2Yt0WxJROpx_6batuta7backendNtB5_15BackendSelector10vector_add
FN:148,_RNvMs0_NtCs2Yt0WxJROpx_6batuta7backendNtB5_15BackendSelector14select_backend
FN:290,_RNvMs0_NtCs2Yt0WxJROpx_6batuta7backendNtB5_15BackendSelector15matrix_multiply
FN:223,_RNvMs0_NtCs2Yt0WxJROpx_6batuta7backendNtB5_15BackendSelector15select_with_moe
FN:117,_RNvMs0_NtCs2Yt0WxJROpx_6batuta7backendNtB5_15BackendSelector15with_gpu_gflops
FN:172,_RNvMs0_NtCs2Yt0WxJROpx_6batuta7backendNtB5_15BackendSelector17select_for_matmul
FN:258,_RNvMs0_NtCs2Yt0WxJROpx_6batuta7backendNtB5_15BackendSelector17to_trueno_backend
FN:111,_RNvMs0_NtCs2Yt0WxJROpx_6batuta7backendNtB5_15BackendSelector19with_pcie_bandwidth
FN:187,_RNvMs0_NtCs2Yt0WxJROpx_6batuta7backendNtB5_15BackendSelector20select_for_vector_op
FN:200,_RNvMs0_NtCs2Yt0WxJROpx_6batuta7backendNtB5_15BackendSelector22select_for_elementwise
FN:123,_RNvMs0_NtCs2Yt0WxJROpx_6batuta7backendNtB5_15BackendSelector23with_min_dispatch_ratio
FN:106,_RNvMs0_NtCs2Yt0WxJROpx_6batuta7backendNtB5_15BackendSelector3new
FN:60,_RNvXNtCs2Yt0WxJROpx_6batuta7backendNtB2_7BackendNtNtCs6RpC691fUBl_4core3fmt7Display3fmt
FN:96,_RNvXs_NtCs2Yt0WxJROpx_6batuta7backendNtB4_15BackendSelectorNtNtCs6RpC691fUBl_4core7default7Default7default
FN:258,_RNvMs0_NtCsjH0PaGjVXp8_6batuta7backendNtB5_15BackendSelector17to_trueno_backend
FN:1042,_RNvNtNtCsjH0PaGjVXp8_6batuta7backend5testss_18test_backend_debug
FN:1014,_RNvNtNtCsjH0PaGjVXp8_6batuta7backend5testss_20test_backend_display
FN:1021,_RNvNtNtCsjH0PaGjVXp8_6batuta7backend5testss_21test_backend_equality
FN:485,_RNvNtNtCsjH0PaGjVXp8_6batuta7backend5testss_22test_trueno_vector_add
FN:1032,_RNvNtNtCsjH0PaGjVXp8_6batuta7backend5testss_23test_backend_clone_copy
FN:414,_RNvNtNtCsjH0PaGjVXp8_6batuta7backend5testss_23test_moe_low_complexity
FN:460,_RNvNtNtCsjH0PaGjVXp8_6batuta7backend5testss_24test_moe_high_complexity
FN:1099,_RNvNtNtCsjH0PaGjVXp8_6batuta7backend5testss_24test_op_complexity_debug
FN:1110,_RNvNtNtCsjH0PaGjVXp8_6batuta7backend5testss_25test_backend_selector_new
FN:854,_RNvNtNtCsjH0PaGjVXp8_6batuta7backend5testss_25test_elementwise_boundary
FN:886,_RNvNtNtCsjH0PaGjVXp8_6batuta7backend5testss_25test_zero_size_operations
FN:1049,_RNvNtNtCsjH0PaGjVXp8_6batuta7backend5testss_26test_backend_serialization
FN:403,_RNvNtNtCsjH0PaGjVXp8_6batuta7backend5testss_26test_custom_dispatch_ratio
FN:437,_RNvNtNtCsjH0PaGjVXp8_6batuta7backend5testss_26test_moe_medium_complexity
FN:941,_RNvNtNtCsjH0PaGjVXp8_6batuta7backend5testss_26test_very_large_operations
FN:967,_RNvNtNtCsjH0PaGjVXp8_6batuta7backend5testss_27test_custom_hardware_params
FN:1079,_RNvNtNtCsjH0PaGjVXp8_6batuta7backend5testss_27test_op_complexity_equality
FN:1068,_RNvNtNtCsjH0PaGjVXp8_6batuta7backend5testss_27test_op_complexity_ordering
FN:498,_RNvNtNtCsjH0PaGjVXp8_6batuta7backend5testss_27test_trueno_matrix_multiply
FN:1118,_RNvNtNtCsjH0PaGjVXp8_6batuta7backend5testss_29test_backend_selector_default
FN:636,_RNvNtNtCsjH0PaGjVXp8_6batuta7backend5testss_29test_matmul_flops_calculation
FN:1089,_RNvNtNtCsjH0PaGjVXp8_6batuta7backend5testss_29test_op_complexity_clone_copy
FN:917,_RNvNtNtCsjH0PaGjVXp8_6batuta7backend5testss_30test_single_element_operations
FN:733,_RNvNtNtCsjH0PaGjVXp8_6batuta7backend5testss_32test_moe_low_complexity_boundary
FN:679,_RNvNtNtCsjH0PaGjVXp8_6batuta7backend5testss_32test_vector_op_flops_calculation
FN:378,_RNvNtNtCsjH0PaGjVXp8_6batuta7backend5testss_34test_backend_selection_dot_product
FN:390,_RNvNtNtCsjH0PaGjVXp8_6batuta7backend5testss_34test_backend_selection_elementwise
FN:699,_RNvNtNtCsjH0PaGjVXp8_6batuta7backend5testss_34test_dispatch_ratio_multiplication
FN:586,_RNvNtNtCsjH0PaGjVXp8_6batuta7backend5testss_34test_matmul_data_bytes_calculation
FN:345,_RNvNtNtCsjH0PaGjVXp8_6batuta7backend5testss_35test_backend_selection_large_matmul
FN:331,_RNvNtNtCsjH0PaGjVXp8_6batuta7backend5testss_35test_backend_selection_small_matmul
FN:808,_RNvNtNtCsjH0PaGjVXp8_6batuta7backend5testss_35test_moe_high_complexity_boundaries
FN:1139,_RNvNtNtCsjH0PaGjVXp8_6batuta7backend5testss_37test_backend_selector_with_gpu_gflops
FN:762,_RNvNtNtCsjH0PaGjVXp8_6batuta7backend5testss_37test_moe_medium_complexity_boundaries
FN:659,_RNvNtNtCsjH0PaGjVXp8_6batuta7backend5testss_37test_vector_op_data_bytes_calculation
FN:1159,_RNvNtNtCsjH0PaGjVXp8_6batuta7backend5testss_38test_backend_selector_builder_chaining
FN:361,_RNvNtNtCsjH0PaGjVXp8_6batuta7backend5testss_40test_backend_selection_very_large_matmul
FN:1172,_RNvNtNtCsjH0PaGjVXp8_6batuta7backend5testss_40test_backend_selector_extreme_parameters
FN:1129,_RNvNtNtCsjH0PaGjVXp8_6batuta7backend5testss_41test_backend_selector_with_pcie_bandwidth
FN:516,_RNvNtNtCsjH0PaGjVXp8_6batuta7backend5testss_42test_select_backend_arithmetic_correctness
FN:1149,_RNvNtNtCsjH0PaGjVXp8_6batuta7backend5testss_45test_backend_selector_with_min_dispatch_ratio
FN:554,_RNvNtNtCsjH0PaGjVXp8_6batuta7backend5testss_49test_select_backend_arithmetic_mutation_detection
FN:268,_RNvMs0_NtCsjH0PaGjVXp8_6batuta7backendNtB5_15BackendSelector10vector_add
FN:148,_RNvMs0_NtCsjH0PaGjVXp8_6batuta7backendNtB5_15BackendSelector14select_backend
FN:290,_RNvMs0_NtCsjH0PaGjVXp8_6batuta7backendNtB5_15BackendSelector15matrix_multiply
FN:223,_RNvMs0_NtCsjH0PaGjVXp8_6batuta7backendNtB5_15BackendSelector15select_with_moe
FN:117,_RNvMs0_NtCsjH0PaGjVXp8_6batuta7backendNtB5_15BackendSelector15with_gpu_gflops
FN:172,_RNvMs0_NtCsjH0PaGjVXp8_6batuta7backendNtB5_15BackendSelector17select_for_matmul
FN:111,_RNvMs0_NtCsjH0PaGjVXp8_6batuta7backendNtB5_15BackendSelector19with_pcie_bandwidth
FN:187,_RNvMs0_NtCsjH0PaGjVXp8_6batuta7backendNtB5_15BackendSelector20select_for_vector_op
FN:200,_RNvMs0_NtCsjH0PaGjVXp8_6batuta7backendNtB5_15BackendSelector22select_for_elementwise
FN:123,_RNvMs0_NtCsjH0PaGjVXp8_6batuta7backendNtB5_15BackendSelector23with_min_dispatch_ratio
FN:106,_RNvMs0_NtCsjH0PaGjVXp8_6batuta7backendNtB5_15BackendSelector3new
FN:60,_RNvXNtCsjH0PaGjVXp8_6batuta7backendNtB2_7BackendNtNtCs6RpC691fUBl_4core3fmt7Display3fmt
FN:96,_RNvXs_NtCsjH0PaGjVXp8_6batuta7backendNtB4_15BackendSelectorNtNtCs6RpC691fUBl_4core7default7Default7default
FN:258,_RNvMs0_NtCshEp7d2sUZm6_6batuta7backendNtB5_15BackendSelector17to_trueno_backend
FN:1042,_RNvNtNtCshEp7d2sUZm6_6batuta7backend5testss_18test_backend_debug
FN:1014,_RNvNtNtCshEp7d2sUZm6_6batuta7backend5testss_20test_backend_display
FN:1021,_RNvNtNtCshEp7d2sUZm6_6batuta7backend5testss_21test_backend_equality
FN:485,_RNvNtNtCshEp7d2sUZm6_6batuta7backend5testss_22test_trueno_vector_add
FN:1032,_RNvNtNtCshEp7d2sUZm6_6batuta7backend5testss_23test_backend_clone_copy
FN:414,_RNvNtNtCshEp7d2sUZm6_6batuta7backend5testss_23test_moe_low_complexity
FN:460,_RNvNtNtCshEp7d2sUZm6_6batuta7backend5testss_24test_moe_high_complexity
FN:1099,_RNvNtNtCshEp7d2sUZm6_6batuta7backend5testss_24test_op_complexity_debug
FN:1110,_RNvNtNtCshEp7d2sUZm6_6batuta7backend5testss_25test_backend_selector_new
FN:854,_RNvNtNtCshEp7d2sUZm6_6batuta7backend5testss_25test_elementwise_boundary
FN:886,_RNvNtNtCshEp7d2sUZm6_6batuta7backend5testss_25test_zero_size_operations
FN:1049,_RNvNtNtCshEp7d2sUZm6_6batuta7backend5testss_26test_backend_serialization
FN:403,_RNvNtNtCshEp7d2sUZm6_6batuta7backend5testss_26test_custom_dispatch_ratio
FN:437,_RNvNtNtCshEp7d2sUZm6_6batuta7backend5testss_26test_moe_medium_complexity
FN:941,_RNvNtNtCshEp7d2sUZm6_6batuta7backend5testss_26test_very_large_operations
FN:967,_RNvNtNtCshEp7d2sUZm6_6batuta7backend5testss_27test_custom_hardware_params
FN:1079,_RNvNtNtCshEp7d2sUZm6_6batuta7backend5testss_27test_op_complexity_equality
FN:1068,_RNvNtNtCshEp7d2sUZm6_6batuta7backend5testss_27test_op_complexity_ordering
FN:498,_RNvNtNtCshEp7d2sUZm6_6batuta7backend5testss_27test_trueno_matrix_multiply
FN:1118,_RNvNtNtCshEp7d2sUZm6_6batuta7backend5testss_29test_backend_selector_default
FN:636,_RNvNtNtCshEp7d2sUZm6_6batuta7backend5testss_29test_matmul_flops_calculation
FN:1089,_RNvNtNtCshEp7d2sUZm6_6batuta7backend5testss_29test_op_complexity_clone_copy
FN:917,_RNvNtNtCshEp7d2sUZm6_6batuta7backend5testss_30test_single_element_operations
FN:733,_RNvNtNtCshEp7d2sUZm6_6batuta7backend5testss_32test_moe_low_complexity_boundary
FN:679,_RNvNtNtCshEp7d2sUZm6_6batuta7backend5testss_32test_vector_op_flops_calculation
FN:378,_RNvNtNtCshEp7d2sUZm6_6batuta7backend5testss_34test_backend_selection_dot_product
FN:390,_RNvNtNtCshEp7d2sUZm6_6batuta7backend5testss_34test_backend_selection_elementwise
FN:699,_RNvNtNtCshEp7d2sUZm6_6batuta7backend5testss_34test_dispatch_ratio_multiplication
FN:586,_RNvNtNtCshEp7d2sUZm6_6batuta7backend5testss_34test_matmul_data_bytes_calculation
FN:345,_RNvNtNtCshEp7d2sUZm6_6batuta7backend5testss_35test_backend_selection_large_matmul
FN:331,_RNvNtNtCshEp7d2sUZm6_6batuta7backend5testss_35test_backend_selection_small_matmul
FN:808,_RNvNtNtCshEp7d2sUZm6_6batuta7backend5testss_35test_moe_high_complexity_boundaries
FN:1139,_RNvNtNtCshEp7d2sUZm6_6batuta7backend5testss_37test_backend_selector_with_gpu_gflops
FN:762,_RNvNtNtCshEp7d2sUZm6_6batuta7backend5testss_37test_moe_medium_complexity_boundaries
FN:659,_RNvNtNtCshEp7d2sUZm6_6batuta7backend5testss_37test_vector_op_data_bytes_calculation
FN:1159,_RNvNtNtCshEp7d2sUZm6_6batuta7backend5testss_38test_backend_selector_builder_chaining
FN:361,_RNvNtNtCshEp7d2sUZm6_6batuta7backend5testss_40test_backend_selection_very_large_matmul
FN:1172,_RNvNtNtCshEp7d2sUZm6_6batuta7backend5testss_40test_backend_selector_extreme_parameters
FN:1129,_RNvNtNtCshEp7d2sUZm6_6batuta7backend5testss_41test_backend_selector_with_pcie_bandwidth
FN:516,_RNvNtNtCshEp7d2sUZm6_6batuta7backend5testss_42test_select_backend_arithmetic_correctness
FN:1149,_RNvNtNtCshEp7d2sUZm6_6batuta7backend5testss_45test_backend_selector_with_min_dispatch_ratio
FN:554,_RNvNtNtCshEp7d2sUZm6_6batuta7backend5testss_49test_select_backend_arithmetic_mutation_detection
FN:268,_RNvMs0_NtCshEp7d2sUZm6_6batuta7backendNtB5_15BackendSelector10vector_add
FN:148,_RNvMs0_NtCshEp7d2sUZm6_6batuta7backendNtB5_15BackendSelector14select_backend
FN:290,_RNvMs0_NtCshEp7d2sUZm6_6batuta7backendNtB5_15BackendSelector15matrix_multiply
FN:223,_RNvMs0_NtCshEp7d2sUZm6_6batuta7backendNtB5_15BackendSelector15select_with_moe
FN:117,_RNvMs0_NtCshEp7d2sUZm6_6batuta7backendNtB5_15BackendSelector15with_gpu_gflops
FN:172,_RNvMs0_NtCshEp7d2sUZm6_6batuta7backendNtB5_15BackendSelector17select_for_matmul
FN:111,_RNvMs0_NtCshEp7d2sUZm6_6batuta7backendNtB5_15BackendSelector19with_pcie_bandwidth
FN:187,_RNvMs0_NtCshEp7d2sUZm6_6batuta7backendNtB5_15BackendSelector20select_for_vector_op
FN:200,_RNvMs0_NtCshEp7d2sUZm6_6batuta7backendNtB5_15BackendSelector22select_for_elementwise
FN:123,_RNvMs0_NtCshEp7d2sUZm6_6batuta7backendNtB5_15BackendSelector23with_min_dispatch_ratio
FN:106,_RNvMs0_NtCshEp7d2sUZm6_6batuta7backendNtB5_15BackendSelector3new
FN:60,_RNvXNtCshEp7d2sUZm6_6batuta7backendNtB2_7BackendNtNtCs6RpC691fUBl_4core3fmt7Display3fmt
FN:96,_RNvXs_NtCshEp7d2sUZm6_6batuta7backendNtB4_15BackendSelectorNtNtCs6RpC691fUBl_4core7default7Default7default
FN:268,_RNvMs0_NtCsc3xvWSUKV5Z_6batuta7backendNtB5_15BackendSelector10vector_add
FN:148,_RNvMs0_NtCsc3xvWSUKV5Z_6batuta7backendNtB5_15BackendSelector14select_backend
FN:290,_RNvMs0_NtCsc3xvWSUKV5Z_6batuta7backendNtB5_15BackendSelector15matrix_multiply
FN:223,_RNvMs0_NtCsc3xvWSUKV5Z_6batuta7backendNtB5_15BackendSelector15select_with_moe
FN:117,_RNvMs0_NtCsc3xvWSUKV5Z_6batuta7backendNtB5_15BackendSelector15with_gpu_gflops
FN:172,_RNvMs0_NtCsc3xvWSUKV5Z_6batuta7backendNtB5_15BackendSelector17select_for_matmul
FN:258,_RNvMs0_NtCsc3xvWSUKV5Z_6batuta7backendNtB5_15BackendSelector17to_trueno_backend
FN:111,_RNvMs0_NtCsc3xvWSUKV5Z_6batuta7backendNtB5_15BackendSelector19with_pcie_bandwidth
FN:187,_RNvMs0_NtCsc3xvWSUKV5Z_6batuta7backendNtB5_15BackendSelector20select_for_vector_op
FN:200,_RNvMs0_NtCsc3xvWSUKV5Z_6batuta7backendNtB5_15BackendSelector22select_for_elementwise
FN:123,_RNvMs0_NtCsc3xvWSUKV5Z_6batuta7backendNtB5_15BackendSelector23with_min_dispatch_ratio
FN:106,_RNvMs0_NtCsc3xvWSUKV5Z_6batuta7backendNtB5_15BackendSelector3new
FN:60,_RNvXNtCsc3xvWSUKV5Z_6batuta7backendNtB2_7BackendNtNtCs6RpC691fUBl_4core3fmt7Display3fmt
FN:96,_RNvXs_NtCsc3xvWSUKV5Z_6batuta7backendNtB4_15BackendSelectorNtNtCs6RpC691fUBl_4core7default7Default7default
FNDA:0,_RNvMs0_NtCs2Yt0WxJROpx_6batuta7backendNtB5_15BackendSelector10vector_add
FNDA:0,_RNvMs0_NtCs2Yt0WxJROpx_6batuta7backendNtB5_15BackendSelector14select_backend
FNDA:0,_RNvMs0_NtCs2Yt0WxJROpx_6batuta7backendNtB5_15BackendSelector15matrix_multiply
FNDA:0,_RNvMs0_NtCs2Yt0WxJROpx_6batuta7backendNtB5_15BackendSelector15select_with_moe
FNDA:0,_RNvMs0_NtCs2Yt0WxJROpx_6batuta7backendNtB5_15BackendSelector15with_gpu_gflops
FNDA:0,_RNvMs0_NtCs2Yt0WxJROpx_6batuta7backendNtB5_15BackendSelector17select_for_matmul
FNDA:0,_RNvMs0_NtCs2Yt0WxJROpx_6batuta7backendNtB5_15BackendSelector17to_trueno_backend
FNDA:0,_RNvMs0_NtCs2Yt0WxJROpx_6batuta7backendNtB5_15BackendSelector19with_pcie_bandwidth
FNDA:0,_RNvMs0_NtCs2Yt0WxJROpx_6batuta7backendNtB5_15BackendSelector20select_for_vector_op
FNDA:0,_RNvMs0_NtCs2Yt0WxJROpx_6batuta7backendNtB5_15BackendSelector22select_for_elementwise
FNDA:0,_RNvMs0_NtCs2Yt0WxJROpx_6batuta7backendNtB5_15BackendSelector23with_min_dispatch_ratio
FNDA:0,_RNvMs0_NtCs2Yt0WxJROpx_6batuta7backendNtB5_15BackendSelector3new
FNDA:0,_RNvXNtCs2Yt0WxJROpx_6batuta7backendNtB2_7BackendNtNtCs6RpC691fUBl_4core3fmt7Display3fmt
FNDA:0,_RNvXs_NtCs2Yt0WxJROpx_6batuta7backendNtB4_15BackendSelectorNtNtCs6RpC691fUBl_4core7default7Default7default
FNDA:0,_RNvMs0_NtCsjH0PaGjVXp8_6batuta7backendNtB5_15BackendSelector17to_trueno_backend
FNDA:1,_RNvNtNtCsjH0PaGjVXp8_6batuta7backend5testss_18test_backend_debug
FNDA:1,_RNvNtNtCsjH0PaGjVXp8_6batuta7backend5testss_20test_backend_display
FNDA:1,_RNvNtNtCsjH0PaGjVXp8_6batuta7backend5testss_21test_backend_equality
FNDA:0,_RNvNtNtCsjH0PaGjVXp8_6batuta7backend5testss_22test_trueno_vector_add
FNDA:1,_RNvNtNtCsjH0PaGjVXp8_6batuta7backend5testss_23test_backend_clone_copy
FNDA:1,_RNvNtNtCsjH0PaGjVXp8_6batuta7backend5testss_23test_moe_low_complexity
FNDA:1,_RNvNtNtCsjH0PaGjVXp8_6batuta7backend5testss_24test_moe_high_complexity
FNDA:1,_RNvNtNtCsjH0PaGjVXp8_6batuta7backend5testss_24test_op_complexity_debug
FNDA:1,_RNvNtNtCsjH0PaGjVXp8_6batuta7backend5testss_25test_backend_selector_new
FNDA:1,_RNvNtNtCsjH0PaGjVXp8_6batuta7backend5testss_25test_elementwise_boundary
FNDA:1,_RNvNtNtCsjH0PaGjVXp8_6batuta7backend5testss_25test_zero_size_operations
FNDA:1,_RNvNtNtCsjH0PaGjVXp8_6batuta7backend5testss_26test_backend_serialization
FNDA:1,_RNvNtNtCsjH0PaGjVXp8_6batuta7backend5testss_26test_custom_dispatch_ratio
FNDA:1,_RNvNtNtCsjH0PaGjVXp8_6batuta7backend5testss_26test_moe_medium_complexity
FNDA:1,_RNvNtNtCsjH0PaGjVXp8_6batuta7backend5testss_26test_very_large_operations
FNDA:1,_RNvNtNtCsjH0PaGjVXp8_6batuta7backend5testss_27test_custom_hardware_params
FNDA:1,_RNvNtNtCsjH0PaGjVXp8_6batuta7backend5testss_27test_op_complexity_equality
FNDA:1,_RNvNtNtCsjH0PaGjVXp8_6batuta7backend5testss_27test_op_complexity_ordering
FNDA:0,_RNvNtNtCsjH0PaGjVXp8_6batuta7backend5testss_27test_trueno_matrix_multiply
FNDA:1,_RNvNtNtCsjH0PaGjVXp8_6batuta7backend5testss_29test_backend_selector_default
FNDA:1,_RNvNtNtCsjH0PaGjVXp8_6batuta7backend5testss_29test_matmul_flops_calculation
FNDA:1,_RNvNtNtCsjH0PaGjVXp8_6batuta7backend5testss_29test_op_complexity_clone_copy
FNDA:1,_RNvNtNtCsjH0PaGjVXp8_6batuta7backend5testss_30test_single_element_operations
FNDA:1,_RNvNtNtCsjH0PaGjVXp8_6batuta7backend5testss_32test_moe_low_complexity_boundary
FNDA:1,_RNvNtNtCsjH0PaGjVXp8_6batuta7backend5testss_32test_vector_op_flops_calculation
FNDA:1,_RNvNtNtCsjH0PaGjVXp8_6batuta7backend5testss_34test_backend_selection_dot_product
FNDA:1,_RNvNtNtCsjH0PaGjVXp8_6batuta7backend5testss_34test_backend_selection_elementwise
FNDA:1,_RNvNtNtCsjH0PaGjVXp8_6batuta7backend5testss_34test_dispatch_ratio_multiplication
FNDA:1,_RNvNtNtCsjH0PaGjVXp8_6batuta7backend5testss_34test_matmul_data_bytes_calculation
FNDA:1,_RNvNtNtCsjH0PaGjVXp8_6batuta7backend5testss_35test_backend_selection_large_matmul
FNDA:1,_RNvNtNtCsjH0PaGjVXp8_6batuta7backend5testss_35test_backend_selection_small_matmul
FNDA:1,_RNvNtNtCsjH0PaGjVXp8_6batuta7backend5testss_35test_moe_high_complexity_boundaries
FNDA:1,_RNvNtNtCsjH0PaGjVXp8_6batuta7backend5testss_37test_backend_selector_with_gpu_gflops
FNDA:1,_RNvNtNtCsjH0PaGjVXp8_6batuta7backend5testss_37test_moe_medium_complexity_boundaries
FNDA:1,_RNvNtNtCsjH0PaGjVXp8_6batuta7backend5testss_37test_vector_op_data_bytes_calculation
FNDA:1,_RNvNtNtCsjH0PaGjVXp8_6batuta7backend5testss_38test_backend_selector_builder_chaining
FNDA:1,_RNvNtNtCsjH0PaGjVXp8_6batuta7backend5testss_40test_backend_selection_very_large_matmul
FNDA:1,_RNvNtNtCsjH0PaGjVXp8_6batuta7backend5testss_40test_backend_selector_extreme_parameters
FNDA:1,_RNvNtNtCsjH0PaGjVXp8_6batuta7backend5testss_41test_backend_selector_with_pcie_bandwidth
FNDA:1,_RNvNtNtCsjH0PaGjVXp8_6batuta7backend5testss_42test_select_backend_arithmetic_correctness
FNDA:1,_RNvNtNtCsjH0PaGjVXp8_6batuta7backend5testss_45test_backend_selector_with_min_dispatch_ratio
FNDA:1,_RNvNtNtCsjH0PaGjVXp8_6batuta7backend5testss_49test_select_backend_arithmetic_mutation_detection
FNDA:0,_RNvMs0_NtCsjH0PaGjVXp8_6batuta7backendNtB5_15BackendSelector10vector_add
FNDA:32,_RNvMs0_NtCsjH0PaGjVXp8_6batuta7backendNtB5_15BackendSelector14select_backend
FNDA:0,_RNvMs0_NtCsjH0PaGjVXp8_6batuta7backendNtB5_15BackendSelector15matrix_multiply
FNDA:70,_RNvMs0_NtCsjH0PaGjVXp8_6batuta7backendNtB5_15BackendSelector15select_with_moe
FNDA:9,_RNvMs0_NtCsjH0PaGjVXp8_6batuta7backendNtB5_15BackendSelector15with_gpu_gflops
FNDA:7,_RNvMs0_NtCsjH0PaGjVXp8_6batuta7backendNtB5_15BackendSelector17select_for_matmul
FNDA:7,_RNvMs0_NtCsjH0PaGjVXp8_6batuta7backendNtB5_15BackendSelector19with_pcie_bandwidth
FNDA:4,_RNvMs0_NtCsjH0PaGjVXp8_6batuta7backendNtB5_15BackendSelector20select_for_vector_op
FNDA:7,_RNvMs0_NtCsjH0PaGjVXp8_6batuta7backendNtB5_15BackendSelector22select_for_elementwise
FNDA:7,_RNvMs0_NtCsjH0PaGjVXp8_6batuta7backendNtB5_15BackendSelector23with_min_dispatch_ratio
FNDA:134,_RNvMs0_NtCsjH0PaGjVXp8_6batuta7backendNtB5_15BackendSelector3new
FNDA:18,_RNvXNtCsjH0PaGjVXp8_6batuta7backendNtB2_7BackendNtNtCs6RpC691fUBl_4core3fmt7Display3fmt
FNDA:135,_RNvXs_NtCsjH0PaGjVXp8_6batuta7backendNtB4_15BackendSelectorNtNtCs6RpC691fUBl_4core7default7Default7default
FNDA:0,_RNvMs0_NtCshEp7d2sUZm6_6batuta7backendNtB5_15BackendSelector17to_trueno_backend
FNDA:1,_RNvNtNtCshEp7d2sUZm6_6batuta7backend5testss_18test_backend_debug
FNDA:1,_RNvNtNtCshEp7d2sUZm6_6batuta7backend5testss_20test_backend_display
FNDA:1,_RNvNtNtCshEp7d2sUZm6_6batuta7backend5testss_21test_backend_equality
FNDA:0,_RNvNtNtCshEp7d2sUZm6_6batuta7backend5testss_22test_trueno_vector_add
FNDA:1,_RNvNtNtCshEp7d2sUZm6_6batuta7backend5testss_23test_backend_clone_copy
FNDA:1,_RNvNtNtCshEp7d2sUZm6_6batuta7backend5testss_23test_moe_low_complexity
FNDA:1,_RNvNtNtCshEp7d2sUZm6_6batuta7backend5testss_24test_moe_high_complexity
FNDA:1,_RNvNtNtCshEp7d2sUZm6_6batuta7backend5testss_24test_op_complexity_debug
FNDA:1,_RNvNtNtCshEp7d2sUZm6_6batuta7backend5testss_25test_backend_selector_new
FNDA:1,_RNvNtNtCshEp7d2sUZm6_6batuta7backend5testss_25test_elementwise_boundary
FNDA:1,_RNvNtNtCshEp7d2sUZm6_6batuta7backend5testss_25test_zero_size_operations
FNDA:1,_RNvNtNtCshEp7d2sUZm6_6batuta7backend5testss_26test_backend_serialization
FNDA:1,_RNvNtNtCshEp7d2sUZm6_6batuta7backend5testss_26test_custom_dispatch_ratio
FNDA:1,_RNvNtNtCshEp7d2sUZm6_6batuta7backend5testss_26test_moe_medium_complexity
FNDA:1,_RNvNtNtCshEp7d2sUZm6_6batuta7backend5testss_26test_very_large_operations
FNDA:1,_RNvNtNtCshEp7d2sUZm6_6batuta7backend5testss_27test_custom_hardware_params
FNDA:1,_RNvNtNtCshEp7d2sUZm6_6batuta7backend5testss_27test_op_complexity_equality
FNDA:1,_RNvNtNtCshEp7d2sUZm6_6batuta7backend5testss_27test_op_complexity_ordering
FNDA:0,_RNvNtNtCshEp7d2sUZm6_6batuta7backend5testss_27test_trueno_matrix_multiply
FNDA:1,_RNvNtNtCshEp7d2sUZm6_6batuta7backend5testss_29test_backend_selector_default
FNDA:1,_RNvNtNtCshEp7d2sUZm6_6batuta7backend5testss_29test_matmul_flops_calculation
FNDA:1,_RNvNtNtCshEp7d2sUZm6_6batuta7backend5testss_29test_op_complexity_clone_copy
FNDA:1,_RNvNtNtCshEp7d2sUZm6_6batuta7backend5testss_30test_single_element_operations
FNDA:1,_RNvNtNtCshEp7d2sUZm6_6batuta7backend5testss_32test_moe_low_complexity_boundary
FNDA:1,_RNvNtNtCshEp7d2sUZm6_6batuta7backend5testss_32test_vector_op_flops_calculation
FNDA:1,_RNvNtNtCshEp7d2sUZm6_6batuta7backend5testss_34test_backend_selection_dot_product
FNDA:1,_RNvNtNtCshEp7d2sUZm6_6batuta7backend5testss_34test_backend_selection_elementwise
FNDA:1,_RNvNtNtCshEp7d2sUZm6_6batuta7backend5testss_34test_dispatch_ratio_multiplication
FNDA:1,_RNvNtNtCshEp7d2sUZm6_6batuta7backend5testss_34test_matmul_data_bytes_calculation
FNDA:1,_RNvNtNtCshEp7d2sUZm6_6batuta7backend5testss_35test_backend_selection_large_matmul
FNDA:1,_RNvNtNtCshEp7d2sUZm6_6batuta7backend5testss_35test_backend_selection_small_matmul
FNDA:1,_RNvNtNtCshEp7d2sUZm6_6batuta7backend5testss_35test_moe_high_complexity_boundaries
FNDA:1,_RNvNtNtCshEp7d2sUZm6_6batuta7backend5testss_37test_backend_selector_with_gpu_gflops
FNDA:1,_RNvNtNtCshEp7d2sUZm6_6batuta7backend5testss_37test_moe_medium_complexity_boundaries
FNDA:1,_RNvNtNtCshEp7d2sUZm6_6batuta7backend5testss_37test_vector_op_data_bytes_calculation
FNDA:1,_RNvNtNtCshEp7d2sUZm6_6batuta7backend5testss_38test_backend_selector_builder_chaining
FNDA:1,_RNvNtNtCshEp7d2sUZm6_6batuta7backend5testss_40test_backend_selection_very_large_matmul
FNDA:1,_RNvNtNtCshEp7d2sUZm6_6batuta7backend5testss_40test_backend_selector_extreme_parameters
FNDA:1,_RNvNtNtCshEp7d2sUZm6_6batuta7backend5testss_41test_backend_selector_with_pcie_bandwidth
FNDA:1,_RNvNtNtCshEp7d2sUZm6_6batuta7backend5testss_42test_select_backend_arithmetic_correctness
FNDA:1,_RNvNtNtCshEp7d2sUZm6_6batuta7backend5testss_45test_backend_selector_with_min_dispatch_ratio
FNDA:1,_RNvNtNtCshEp7d2sUZm6_6batuta7backend5testss_49test_select_backend_arithmetic_mutation_detection
FNDA:0,_RNvMs0_NtCshEp7d2sUZm6_6batuta7backendNtB5_15BackendSelector10vector_add
FNDA:32,_RNvMs0_NtCshEp7d2sUZm6_6batuta7backendNtB5_15BackendSelector14select_backend
FNDA:0,_RNvMs0_NtCshEp7d2sUZm6_6batuta7backendNtB5_15BackendSelector15matrix_multiply
FNDA:70,_RNvMs0_NtCshEp7d2sUZm6_6batuta7backendNtB5_15BackendSelector15select_with_moe
FNDA:9,_RNvMs0_NtCshEp7d2sUZm6_6batuta7backendNtB5_15BackendSelector15with_gpu_gflops
FNDA:7,_RNvMs0_NtCshEp7d2sUZm6_6batuta7backendNtB5_15BackendSelector17select_for_matmul
FNDA:7,_RNvMs0_NtCshEp7d2sUZm6_6batuta7backendNtB5_15BackendSelector19with_pcie_bandwidth
FNDA:4,_RNvMs0_NtCshEp7d2sUZm6_6batuta7backendNtB5_15BackendSelector20select_for_vector_op
FNDA:7,_RNvMs0_NtCshEp7d2sUZm6_6batuta7backendNtB5_15BackendSelector22select_for_elementwise
FNDA:7,_RNvMs0_NtCshEp7d2sUZm6_6batuta7backendNtB5_15BackendSelector23with_min_dispatch_ratio
FNDA:134,_RNvMs0_NtCshEp7d2sUZm6_6batuta7backendNtB5_15BackendSelector3new
FNDA:18,_RNvXNtCshEp7d2sUZm6_6batuta7backendNtB2_7BackendNtNtCs6RpC691fUBl_4core3fmt7Display3fmt
FNDA:135,_RNvXs_NtCshEp7d2sUZm6_6batuta7backendNtB4_15BackendSelectorNtNtCs6RpC691fUBl_4core7default7Default7default
FNDA:0,_RNvMs0_NtCsc3xvWSUKV5Z_6batuta7backendNtB5_15BackendSelector10vector_add
FNDA:0,_RNvMs0_NtCsc3xvWSUKV5Z_6batuta7backendNtB5_15BackendSelector14select_backend
FNDA:0,_RNvMs0_NtCsc3xvWSUKV5Z_6batuta7backendNtB5_15BackendSelector15matrix_multiply
FNDA:0,_RNvMs0_NtCsc3xvWSUKV5Z_6batuta7backendNtB5_15BackendSelector15select_with_moe
FNDA:0,_RNvMs0_NtCsc3xvWSUKV5Z_6batuta7backendNtB5_15BackendSelector15with_gpu_gflops
FNDA:0,_RNvMs0_NtCsc3xvWSUKV5Z_6batuta7backendNtB5_15BackendSelector17select_for_matmul
FNDA:0,_RNvMs0_NtCsc3xvWSUKV5Z_6batuta7backendNtB5_15BackendSelector17to_trueno_backend
FNDA:0,_RNvMs0_NtCsc3xvWSUKV5Z_6batuta7backendNtB5_15BackendSelector19with_pcie_bandwidth
FNDA:0,_RNvMs0_NtCsc3xvWSUKV5Z_6batuta7backendNtB5_15BackendSelector20select_for_vector_op
FNDA:0,_RNvMs0_NtCsc3xvWSUKV5Z_6batuta7backendNtB5_15BackendSelector22select_for_elementwise
FNDA:0,_RNvMs0_NtCsc3xvWSUKV5Z_6batuta7backendNtB5_15BackendSelector23with_min_dispatch_ratio
FNDA:0,_RNvMs0_NtCsc3xvWSUKV5Z_6batuta7backendNtB5_15BackendSelector3new
FNDA:0,_RNvXNtCsc3xvWSUKV5Z_6batuta7backendNtB2_7BackendNtNtCs6RpC691fUBl_4core3fmt7Display3fmt
FNDA:0,_RNvXs_NtCsc3xvWSUKV5Z_6batuta7backendNtB4_15BackendSelectorNtNtCs6RpC691fUBl_4core7default7Default7default
FNF:56
FNH:51
DA:60,36
DA:61,36
DA:62,12
DA:63,12
DA:64,12
DA:66,36
DA:96,270
DA:97,270
DA:98,270
DA:99,270
DA:100,270
DA:101,270
DA:102,270
DA:106,268
DA:107,268
DA:108,268
DA:111,14
DA:112,14
DA:113,14
DA:114,14
DA:117,18
DA:118,18
DA:119,18
DA:120,18
DA:123,14
DA:124,14
DA:125,14
DA:126,14
DA:148,64
DA:150,64
DA:153,64
DA:156,64
DA:157,14
DA:160,50
DA:162,64
DA:172,14
DA:174,14
DA:177,14
DA:179,14
DA:180,14
DA:187,8
DA:189,8
DA:192,8
DA:194,8
DA:195,8
DA:200,14
DA:203,14
DA:204,4
DA:206,10
DA:208,14
DA:223,140
DA:224,140
DA:227,44
DA:228,12
DA:230,32
DA:235,46
DA:236,8
DA:237,38
DA:238,28
DA:240,10
DA:245,50
DA:246,32
DA:247,18
DA:248,8
DA:250,10
DA:254,140
DA:258,0
DA:259,0
DA:260,0
DA:261,0
DA:262,0
DA:264,0
DA:268,0
DA:269,0
DA:270,0
DA:271,0
DA:272,0
DA:273,0
DA:274,0
DA:275,0
DA:277,0
DA:279,0
DA:280,0
DA:282,0
DA:283,0
DA:284,0
DA:286,0
DA:290,0
DA:291,0
DA:292,0
DA:293,0
DA:294,0
DA:295,0
DA:296,0
DA:297,0
DA:299,0
DA:300,0
DA:301,0
DA:302,0
DA:303,0
DA:304,0
DA:306,0
DA:309,0
DA:310,0
DA:311,0
DA:314,0
DA:315,0
DA:316,0
DA:319,0
DA:320,0
DA:321,0
DA:323,0
DA:331,2
DA:332,2
DA:340,2
DA:341,2
DA:342,2
DA:345,2
DA:346,2
DA:356,2
DA:357,2
DA:358,2
DA:361,2
DA:362,2
DA:371,2
DA:374,2
DA:375,2
DA:378,2
DA:379,2
DA:385,2
DA:386,2
DA:387,2
DA:390,2
DA:391,2
DA:394,2
DA:395,2
DA:398,2
DA:399,2
DA:400,2
DA:403,2
DA:404,2
DA:405,2
DA:408,2
DA:410,2
DA:411,2
DA:414,2
DA:415,2
DA:418,2
DA:419,2
DA:424,2
DA:425,2
DA:430,2
DA:431,2
DA:434,2
DA:437,2
DA:438,2
DA:441,2
DA:442,2
DA:447,2
DA:448,2
DA:453,2
DA:454,2
DA:457,2
DA:460,2
DA:461,2
DA:464,2
DA:465,2
DA:470,2
DA:471,2
DA:476,2
DA:477,2
DA:480,2
DA:485,0
DA:486,0
DA:488,0
DA:489,0
DA:491,0
DA:492,0
DA:493,0
DA:498,0
DA:499,0
DA:502,0
DA:503,0
DA:505,0
DA:508,0
DA:509,0
DA:516,2
DA:520,2
DA:524,2
DA:525,2
DA:533,2
DA:534,2
DA:535,2
DA:536,2
DA:539,2
DA:540,2
DA:543,2
DA:544,2
DA:545,2
DA:548,2
DA:549,2
DA:550,2
DA:551,2
DA:554,2
DA:558,2
DA:562,2
DA:563,2
DA:569,2
DA:570,2
DA:571,0
DA:575,2
DA:580,2
DA:581,2
DA:582,0
DA:583,2
DA:586,2
DA:590,2
DA:593,2
DA:594,2
DA:595,2
DA:605,2
DA:606,2
DA:611,2
DA:612,2
DA:613,2
DA:621,2
DA:622,2
DA:623,2
DA:631,2
DA:632,2
DA:633,2
DA:636,2
DA:640,2
DA:641,2
DA:644,2
DA:645,2
DA:646,2
DA:654,2
DA:655,2
DA:656,2
DA:659,2
DA:663,2
DA:665,2
DA:666,2
DA:674,2
DA:675,2
DA:676,2
DA:679,2
DA:682,2
DA:683,2
DA:685,2
DA:686,2
DA:694,2
DA:695,2
DA:696,2
DA:699,2
DA:704,2
DA:705,2
DA:707,2
DA:708,2
DA:711,2
DA:712,2
DA:713,2
DA:715,2
DA:716,2
DA:717,2
DA:720,2
DA:721,2
DA:724,2
DA:725,2
DA:726,2
DA:733,2
DA:737,2
DA:740,2
DA:741,2
DA:743,0
DA:747,2
DA:748,2
DA:750,0
DA:754,2
DA:755,2
DA:757,0
DA:759,2
DA:762,2
DA:766,2
DA:769,2
DA:770,2
DA:772,0
DA:775,2
DA:776,2
DA:778,0
DA:781,2
DA:782,2
DA:784,0
DA:788,2
DA:789,2
DA:791,0
DA:794,2
DA:795,2
DA:797,0
DA:800,2
DA:801,2
DA:803,0
DA:805,2
DA:808,2
DA:812,2
DA:815,2
DA:816,2
DA:818,0
DA:821,2
DA:822,2
DA:824,0
DA:827,2
DA:828,2
DA:830,0
DA:834,2
DA:835,2
DA:837,0
DA:840,2
DA:841,2
DA:843,0
DA:846,2
DA:847,2
DA:849,0
DA:851,2
DA:854,2
DA:857,2
DA:860,2
DA:861,2
DA:863,0
DA:867,2
DA:868,2
DA:870,0
DA:874,2
DA:875,2
DA:877,0
DA:879,2
DA:886,2
DA:887,2
DA:890,2
DA:891,2
DA:894,2
DA:895,2
DA:898,2
DA:899,2
DA:902,2
DA:903,2
DA:906,2
DA:907,2
DA:910,2
DA:911,2
DA:914,2
DA:917,2
DA:918,2
DA:921,2
DA:922,2
DA:925,2
DA:926,2
DA:929,2
DA:930,2
DA:934,2
DA:935,2
DA:938,2
DA:941,2
DA:942,2
DA:945,2
DA:948,2
DA:949,2
DA:954,2
DA:955,2
DA:960,2
DA:961,2
DA:964,2
DA:967,2
DA:971,2
DA:972,2
DA:973,2
DA:976,2
DA:977,2
DA:978,2
DA:981,2
DA:982,2
DA:986,2
DA:987,2
DA:991,2
DA:992,2
DA:995,2
DA:996,2
DA:1000,2
DA:1001,2
DA:1005,2
DA:1006,2
DA:1007,2
DA:1014,2
DA:1015,2
DA:1016,2
DA:1017,2
DA:1018,2
DA:1021,2
DA:1022,2
DA:1023,2
DA:1024,2
DA:1026,2
DA:1027,2
DA:1028,2
DA:1029,2
DA:1032,2
DA:1033,2
DA:1034,2
DA:1035,2
DA:1037,2
DA:1038,2
DA:1039,2
DA:1042,2
DA:1043,2
DA:1044,2
DA:1045,2
DA:1046,2
DA:1049,2
DA:1050,2
DA:1051,2
DA:1052,2
DA:1053,2
DA:1056,8
DA:1057,6
DA:1058,6
DA:1059,6
DA:1061,2
DA:1068,2
DA:1069,2
DA:1070,2
DA:1071,2
DA:1073,2
DA:1074,2
DA:1075,2
DA:1076,2
DA:1079,2
DA:1080,2
DA:1081,2
DA:1082,2
DA:1084,2
DA:1085,2
DA:1086,2
DA:1089,2
DA:1090,2
DA:1091,2
DA:1092,2
DA:1094,2
DA:1095,2
DA:1096,2
DA:1099,2
DA:1100,2
DA:1101,2
DA:1102,2
DA:1103,2
DA:1110,2
DA:1111,2
DA:1113,2
DA:1114,2
DA:1115,2
DA:1118,2
DA:1119,2
DA:1120,2
DA:1123,2
DA:1124,2
DA:1125,2
DA:1126,2
DA:1129,2
DA:1130,2
DA:1131,2
DA:1134,2
DA:1135,2
DA:1136,2
DA:1139,2
DA:1140,2
DA:1141,2
DA:1144,2
DA:1145,2
DA:1146,2
DA:1149,2
DA:1150,2
DA:1151,2
DA:1154,2
DA:1155,2
DA:1156,2
DA:1159,2
DA:1160,2
DA:1161,2
DA:1162,2
DA:1163,2
DA:1166,2
DA:1168,2
DA:1169,2
DA:1172,2
DA:1175,2
DA:1176,2
DA:1177,2
DA:1178,2
DA:1180,2
DA:1181,2
DA:1183,2
DA:1184,2
DA:1185,2
DA:1186,2
DA:1188,2
DA:1189,2
DA:1190,2
BRF:0
BRH:0
LF:507
LH:427
end_of_record
SF:/home/noah/src/batuta/src/config.rs
FN:359,_RNvMsa_NtCs2Yt0WxJROpx_6batuta6configNtB5_12BatutaConfig13from_analysis
FN:345,_RNvMsa_NtCs2Yt0WxJROpx_6batuta6configNtB5_12BatutaConfig4load
FN:352,_RNvMsa_NtCs2Yt0WxJROpx_6batuta6configNtB5_12BatutaConfig4save
FN:30,_RNvXNtCs2Yt0WxJROpx_6batuta6configNtB2_12BatutaConfigNtNtCs6RpC691fUBl_4core7default7Default7default
FN:86,_RNvXs0_NtCs2Yt0WxJROpx_6batuta6configNtB5_12SourceConfigNtNtCs6RpC691fUBl_4core7default7Default7default
FN:132,_RNvXs1_NtCs2Yt0WxJROpx_6batuta6configNtB5_19TranspilationConfigNtNtCs6RpC691fUBl_4core7default7Default7default
FN:160,_RNvXs2_NtCs2Yt0WxJROpx_6batuta6configNtB5_10DecyConfigNtNtCs6RpC691fUBl_4core7default7Default7default
FN:185,_RNvXs3_NtCs2Yt0WxJROpx_6batuta6configNtB5_13DepylerConfigNtNtCs6RpC691fUBl_4core7default7Default7default
FN:205,_RNvXs4_NtCs2Yt0WxJROpx_6batuta6configNtB5_12BashrsConfigNtNtCs6RpC691fUBl_4core7default7Default7default
FN:235,_RNvXs5_NtCs2Yt0WxJROpx_6batuta6configNtB5_18OptimizationConfigNtNtCs6RpC691fUBl_4core7default7Default7default
FN:260,_RNvXs6_NtCs2Yt0WxJROpx_6batuta6configNtB5_12TruenoConfigNtNtCs6RpC691fUBl_4core7default7Default7default
FN:288,_RNvXs7_NtCs2Yt0WxJROpx_6batuta6configNtB5_16ValidationConfigNtNtCs6RpC691fUBl_4core7default7Default7default
FN:309,_RNvXs8_NtCs2Yt0WxJROpx_6batuta6configNtB5_13RenacerConfigNtNtCs6RpC691fUBl_4core7default7Default7default
FN:333,_RNvXs9_NtCs2Yt0WxJROpx_6batuta6configNtB5_11BuildConfigNtNtCs6RpC691fUBl_4core7default7Default7default
FN:62,_RNvXs_NtCs2Yt0WxJROpx_6batuta6configNtB4_13ProjectConfigNtNtCs6RpC691fUBl_4core7default7Default7default
FN:854,_RNvNtNtCsjH0PaGjVXp8_6batuta6config5testss_17test_config_clone
FN:555,_RNvNtNtCsjH0PaGjVXp8_6batuta6config5testss_22test_load_invalid_toml
FN:838,_RNvNtNtCsjH0PaGjVXp8_6batuta6config5testss_24test_config_modification
FN:442,_RNvNtNtCsjH0PaGjVXp8_6batuta6config5testss_24test_decy_config_default
FN:608,_RNvNtNtCsjH0PaGjVXp8_6batuta6config5testss_24test_from_analysis_basic
FN:507,_RNvNtNtCsjH0PaGjVXp8_6batuta6config5testss_25test_build_config_default
FN:521,_RNvNtNtCsjH0PaGjVXp8_6batuta6config5testss_25test_save_and_load_config
FN:864,_RNvNtNtCsjH0PaGjVXp8_6batuta6config5testss_25test_save_modified_config
FN:461,_RNvNtNtCsjH0PaGjVXp8_6batuta6config5testss_26test_bashrs_config_default
FN:394,_RNvNtNtCsjH0PaGjVXp8_6batuta6config5testss_26test_batuta_config_default
FN:549,_RNvNtNtCsjH0PaGjVXp8_6batuta6config5testss_26test_load_nonexistent_file
FN:418,_RNvNtNtCsjH0PaGjVXp8_6batuta6config5testss_26test_source_config_default
FN:480,_RNvNtNtCsjH0PaGjVXp8_6batuta6config5testss_26test_trueno_config_default
FN:451,_RNvNtNtCsjH0PaGjVXp8_6batuta6config5testss_27test_depyler_config_default
FN:407,_RNvNtNtCsjH0PaGjVXp8_6batuta6config5testss_27test_project_config_default
FN:499,_RNvNtNtCsjH0PaGjVXp8_6batuta6config5testss_27test_renacer_config_default
FN:584,_RNvNtNtCsjH0PaGjVXp8_6batuta6config5testss_28test_save_config_toml_format
FN:758,_RNvNtNtCsjH0PaGjVXp8_6batuta6config5testss_30test_full_toml_deserialization
FN:489,_RNvNtNtCsjH0PaGjVXp8_6batuta6config5testss_30test_validation_config_default
FN:676,_RNvNtNtCsjH0PaGjVXp8_6batuta6config5testss_31test_from_analysis_rust_project
FN:469,_RNvNtNtCsjH0PaGjVXp8_6batuta6config5testss_32test_optimization_config_default
FN:790,_RNvNtNtCsjH0PaGjVXp8_6batuta6config5testss_33test_decy_config_in_transpilation
FN:826,_RNvNtNtCsjH0PaGjVXp8_6batuta6config5testss_33test_renacer_config_in_validation
FN:430,_RNvNtNtCsjH0PaGjVXp8_6batuta6config5testss_33test_transpilation_config_default
FN:770,_RNvNtNtCsjH0PaGjVXp8_6batuta6config5testss_34test_modified_toml_deserialization
FN:817,_RNvNtNtCsjH0PaGjVXp8_6batuta6config5testss_34test_trueno_config_in_optimization
FN:809,_RNvNtNtCsjH0PaGjVXp8_6batuta6config5testss_35test_bashrs_config_in_transpilation
FN:799,_RNvNtNtCsjH0PaGjVXp8_6batuta6config5testss_36test_depyler_config_in_transpilation
FN:567,_RNvNtNtCsjH0PaGjVXp8_6batuta6config5testss_36test_save_config_creates_parent_dirs
FN:694,_RNvNtNtCsjH0PaGjVXp8_6batuta6config5testss_38test_from_analysis_no_primary_language
FN:626,_RNvNtNtCsjH0PaGjVXp8_6batuta6config5testss_39test_from_analysis_with_ml_dependencies
FN:743,_RNvNtNtCsjH0PaGjVXp8_6batuta6config5testss_39test_serialize_deserialize_with_vectors
FN:716,_RNvNtNtCsjH0PaGjVXp8_6batuta6config5testss_40test_serialize_deserialize_batuta_config
FN:652,_RNvNtNtCsjH0PaGjVXp8_6batuta6config5testss_42test_from_analysis_without_ml_dependencies
FN:728,_RNvNtNtCsjH0PaGjVXp8_6batuta6config5testss_47test_serialize_deserialize_with_optional_fields
FN:359,_RNvMsa_NtCsjH0PaGjVXp8_6batuta6configNtB5_12BatutaConfig13from_analysis
FN:345,_RNvMsa_NtCsjH0PaGjVXp8_6batuta6configNtB5_12BatutaConfig4load
FN:352,_RNvMsa_NtCsjH0PaGjVXp8_6batuta6configNtB5_12BatutaConfig4save
FN:30,_RNvXNtCsjH0PaGjVXp8_6batuta6configNtB2_12BatutaConfigNtNtCs6RpC691fUBl_4core7default7Default7default
FN:86,_RNvXs0_NtCsjH0PaGjVXp8_6batuta6configNtB5_12SourceConfigNtNtCs6RpC691fUBl_4core7default7Default7default
FN:132,_RNvXs1_NtCsjH0PaGjVXp8_6batuta6configNtB5_19TranspilationConfigNtNtCs6RpC691fUBl_4core7default7Default7default
FN:160,_RNvXs2_NtCsjH0PaGjVXp8_6batuta6configNtB5_10DecyConfigNtNtCs6RpC691fUBl_4core7default7Default7default
FN:185,_RNvXs3_NtCsjH0PaGjVXp8_6batuta6configNtB5_13DepylerConfigNtNtCs6RpC691fUBl_4core7default7Default7default
FN:205,_RNvXs4_NtCsjH0PaGjVXp8_6batuta6configNtB5_12BashrsConfigNtNtCs6RpC691fUBl_4core7default7Default7default
FN:235,_RNvXs5_NtCsjH0PaGjVXp8_6batuta6configNtB5_18OptimizationConfigNtNtCs6RpC691fUBl_4core7default7Default7default
FN:260,_RNvXs6_NtCsjH0PaGjVXp8_6batuta6configNtB5_12TruenoConfigNtNtCs6RpC691fUBl_4core7default7Default7default
FN:288,_RNvXs7_NtCsjH0PaGjVXp8_6batuta6configNtB5_16ValidationConfigNtNtCs6RpC691fUBl_4core7default7Default7default
FN:309,_RNvXs8_NtCsjH0PaGjVXp8_6batuta6configNtB5_13RenacerConfigNtNtCs6RpC691fUBl_4core7default7Default7default
FN:333,_RNvXs9_NtCsjH0PaGjVXp8_6batuta6configNtB5_11BuildConfigNtNtCs6RpC691fUBl_4core7default7Default7default
FN:62,_RNvXs_NtCsjH0PaGjVXp8_6batuta6configNtB4_13ProjectConfigNtNtCs6RpC691fUBl_4core7default7Default7default
FN:359,_RNvMsa_NtCshEp7d2sUZm6_6batuta6configNtB5_12BatutaConfig13from_analysis
FN:345,_RNvMsa_NtCshEp7d2sUZm6_6batuta6configNtB5_12BatutaConfig4load
FN:352,_RNvMsa_NtCshEp7d2sUZm6_6batuta6configNtB5_12BatutaConfig4save
FN:30,_RNvXNtCshEp7d2sUZm6_6batuta6configNtB2_12BatutaConfigNtNtCs6RpC691fUBl_4core7default7Default7default
FN:86,_RNvXs0_NtCshEp7d2sUZm6_6batuta6configNtB5_12SourceConfigNtNtCs6RpC691fUBl_4core7default7Default7default
FN:132,_RNvXs1_NtCshEp7d2sUZm6_6batuta6configNtB5_19TranspilationConfigNtNtCs6RpC691fUBl_4core7default7Default7default
FN:160,_RNvXs2_NtCshEp7d2sUZm6_6batuta6configNtB5_10DecyConfigNtNtCs6RpC691fUBl_4core7default7Default7default
FN:185,_RNvXs3_NtCshEp7d2sUZm6_6batuta6configNtB5_13DepylerConfigNtNtCs6RpC691fUBl_4core7default7Default7default
FN:205,_RNvXs4_NtCshEp7d2sUZm6_6batuta6configNtB5_12BashrsConfigNtNtCs6RpC691fUBl_4core7default7Default7default
FN:235,_RNvXs5_NtCshEp7d2sUZm6_6batuta6configNtB5_18OptimizationConfigNtNtCs6RpC691fUBl_4core7default7Default7default
FN:260,_RNvXs6_NtCshEp7d2sUZm6_6batuta6configNtB5_12TruenoConfigNtNtCs6RpC691fUBl_4core7default7Default7default
FN:288,_RNvXs7_NtCshEp7d2sUZm6_6batuta6configNtB5_16ValidationConfigNtNtCs6RpC691fUBl_4core7default7Default7default
FN:309,_RNvXs8_NtCshEp7d2sUZm6_6batuta6configNtB5_13RenacerConfigNtNtCs6RpC691fUBl_4core7default7Default7default
FN:333,_RNvXs9_NtCshEp7d2sUZm6_6batuta6configNtB5_11BuildConfigNtNtCs6RpC691fUBl_4core7default7Default7default
FN:62,_RNvXs_NtCshEp7d2sUZm6_6batuta6configNtB4_13ProjectConfigNtNtCs6RpC691fUBl_4core7default7Default7default
FN:854,_RNvNtNtCshEp7d2sUZm6_6batuta6config5testss_17test_config_clone
FN:555,_RNvNtNtCshEp7d2sUZm6_6batuta6config5testss_22test_load_invalid_toml
FN:838,_RNvNtNtCshEp7d2sUZm6_6batuta6config5testss_24test_config_modification
FN:442,_RNvNtNtCshEp7d2sUZm6_6batuta6config5testss_24test_decy_config_default
FN:608,_RNvNtNtCshEp7d2sUZm6_6batuta6config5testss_24test_from_analysis_basic
FN:507,_RNvNtNtCshEp7d2sUZm6_6batuta6config5testss_25test_build_config_default
FN:521,_RNvNtNtCshEp7d2sUZm6_6batuta6config5testss_25test_save_and_load_config
FN:864,_RNvNtNtCshEp7d2sUZm6_6batuta6config5testss_25test_save_modified_config
FN:461,_RNvNtNtCshEp7d2sUZm6_6batuta6config5testss_26test_bashrs_config_default
FN:394,_RNvNtNtCshEp7d2sUZm6_6batuta6config5testss_26test_batuta_config_default
FN:549,_RNvNtNtCshEp7d2sUZm6_6batuta6config5testss_26test_load_nonexistent_file
FN:418,_RNvNtNtCshEp7d2sUZm6_6batuta6config5testss_26test_source_config_default
FN:480,_RNvNtNtCshEp7d2sUZm6_6batuta6config5testss_26test_trueno_config_default
FN:451,_RNvNtNtCshEp7d2sUZm6_6batuta6config5testss_27test_depyler_config_default
FN:407,_RNvNtNtCshEp7d2sUZm6_6batuta6config5testss_27test_project_config_default
FN:499,_RNvNtNtCshEp7d2sUZm6_6batuta6config5testss_27test_renacer_config_default
FN:584,_RNvNtNtCshEp7d2sUZm6_6batuta6config5testss_28test_save_config_toml_format
FN:758,_RNvNtNtCshEp7d2sUZm6_6batuta6config5testss_30test_full_toml_deserialization
FN:489,_RNvNtNtCshEp7d2sUZm6_6batuta6config5testss_30test_validation_config_default
FN:676,_RNvNtNtCshEp7d2sUZm6_6batuta6config5testss_31test_from_analysis_rust_project
FN:469,_RNvNtNtCshEp7d2sUZm6_6batuta6config5testss_32test_optimization_config_default
FN:790,_RNvNtNtCshEp7d2sUZm6_6batuta6config5testss_33test_decy_config_in_transpilation
FN:826,_RNvNtNtCshEp7d2sUZm6_6batuta6config5testss_33test_renacer_config_in_validation
FN:430,_RNvNtNtCshEp7d2sUZm6_6batuta6config5testss_33test_transpilation_config_default
FN:770,_RNvNtNtCshEp7d2sUZm6_6batuta6config5testss_34test_modified_toml_deserialization
FN:817,_RNvNtNtCshEp7d2sUZm6_6batuta6config5testss_34test_trueno_config_in_optimization
FN:809,_RNvNtNtCshEp7d2sUZm6_6batuta6config5testss_35test_bashrs_config_in_transpilation
FN:799,_RNvNtNtCshEp7d2sUZm6_6batuta6config5testss_36test_depyler_config_in_transpilation
FN:567,_RNvNtNtCshEp7d2sUZm6_6batuta6config5testss_36test_save_config_creates_parent_dirs
FN:694,_RNvNtNtCshEp7d2sUZm6_6batuta6config5testss_38test_from_analysis_no_primary_language
FN:626,_RNvNtNtCshEp7d2sUZm6_6batuta6config5testss_39test_from_analysis_with_ml_dependencies
FN:743,_RNvNtNtCshEp7d2sUZm6_6batuta6config5testss_39test_serialize_deserialize_with_vectors
FN:716,_RNvNtNtCshEp7d2sUZm6_6batuta6config5testss_40test_serialize_deserialize_batuta_config
FN:652,_RNvNtNtCshEp7d2sUZm6_6batuta6config5testss_42test_from_analysis_without_ml_dependencies
FN:728,_RNvNtNtCshEp7d2sUZm6_6batuta6config5testss_47test_serialize_deserialize_with_optional_fields
FN:359,_RNvMsa_NtCsc3xvWSUKV5Z_6batuta6configNtB5_12BatutaConfig13from_analysis
FN:345,_RNvMsa_NtCsc3xvWSUKV5Z_6batuta6configNtB5_12BatutaConfig4load
FN:352,_RNvMsa_NtCsc3xvWSUKV5Z_6batuta6configNtB5_12BatutaConfig4save
FN:30,_RNvXNtCsc3xvWSUKV5Z_6batuta6configNtB2_12BatutaConfigNtNtCs6RpC691fUBl_4core7default7Default7default
FN:86,_RNvXs0_NtCsc3xvWSUKV5Z_6batuta6configNtB5_12SourceConfigNtNtCs6RpC691fUBl_4core7default7Default7default
FN:132,_RNvXs1_NtCsc3xvWSUKV5Z_6batuta6configNtB5_19TranspilationConfigNtNtCs6RpC691fUBl_4core7default7Default7default
FN:160,_RNvXs2_NtCsc3xvWSUKV5Z_6batuta6configNtB5_10DecyConfigNtNtCs6RpC691fUBl_4core7default7Default7default
FN:185,_RNvXs3_NtCsc3xvWSUKV5Z_6batuta6configNtB5_13DepylerConfigNtNtCs6RpC691fUBl_4core7default7Default7default
FN:205,_RNvXs4_NtCsc3xvWSUKV5Z_6batuta6configNtB5_12BashrsConfigNtNtCs6RpC691fUBl_4core7default7Default7default
FN:235,_RNvXs5_NtCsc3xvWSUKV5Z_6batuta6configNtB5_18OptimizationConfigNtNtCs6RpC691fUBl_4core7default7Default7default
FN:260,_RNvXs6_NtCsc3xvWSUKV5Z_6batuta6configNtB5_12TruenoConfigNtNtCs6RpC691fUBl_4core7default7Default7default
FN:288,_RNvXs7_NtCsc3xvWSUKV5Z_6batuta6configNtB5_16ValidationConfigNtNtCs6RpC691fUBl_4core7default7Default7default
FN:309,_RNvXs8_NtCsc3xvWSUKV5Z_6batuta6configNtB5_13RenacerConfigNtNtCs6RpC691fUBl_4core7default7Default7default
FN:333,_RNvXs9_NtCsc3xvWSUKV5Z_6batuta6configNtB5_11BuildConfigNtNtCs6RpC691fUBl_4core7default7Default7default
FN:62,_RNvXs_NtCsc3xvWSUKV5Z_6batuta6configNtB4_13ProjectConfigNtNtCs6RpC691fUBl_4core7default7Default7default
FNDA:2,_RNvMsa_NtCs2Yt0WxJROpx_6batuta6configNtB5_12BatutaConfig13from_analysis
FNDA:0,_RNvMsa_NtCs2Yt0WxJROpx_6batuta6configNtB5_12BatutaConfig4load
FNDA:2,_RNvMsa_NtCs2Yt0WxJROpx_6batuta6configNtB5_12BatutaConfig4save
FNDA:2,_RNvXNtCs2Yt0WxJROpx_6batuta6configNtB2_12BatutaConfigNtNtCs6RpC691fUBl_4core7default7Default7default
FNDA:2,_RNvXs0_NtCs2Yt0WxJROpx_6batuta6configNtB5_12SourceConfigNtNtCs6RpC691fUBl_4core7default7Default7default
FNDA:2,_RNvXs1_NtCs2Yt0WxJROpx_6batuta6configNtB5_19TranspilationConfigNtNtCs6RpC691fUBl_4core7default7Default7default
FNDA:2,_RNvXs2_NtCs2Yt0WxJROpx_6batuta6configNtB5_10DecyConfigNtNtCs6RpC691fUBl_4core7default7Default7default
FNDA:2,_RNvXs3_NtCs2Yt0WxJROpx_6batuta6configNtB5_13DepylerConfigNtNtCs6RpC691fUBl_4core7default7Default7default
FNDA:2,_RNvXs4_NtCs2Yt0WxJROpx_6batuta6configNtB5_12BashrsConfigNtNtCs6RpC691fUBl_4core7default7Default7default
FNDA:2,_RNvXs5_NtCs2Yt0WxJROpx_6batuta6configNtB5_18OptimizationConfigNtNtCs6RpC691fUBl_4core7default7Default7default
FNDA:2,_RNvXs6_NtCs2Yt0WxJROpx_6batuta6configNtB5_12TruenoConfigNtNtCs6RpC691fUBl_4core7default7Default7default
FNDA:2,_RNvXs7_NtCs2Yt0WxJROpx_6batuta6configNtB5_16ValidationConfigNtNtCs6RpC691fUBl_4core7default7Default7default
FNDA:2,_RNvXs8_NtCs2Yt0WxJROpx_6batuta6configNtB5_13RenacerConfigNtNtCs6RpC691fUBl_4core7default7Default7default
FNDA:2,_RNvXs9_NtCs2Yt0WxJROpx_6batuta6configNtB5_11BuildConfigNtNtCs6RpC691fUBl_4core7default7Default7default
FNDA:2,_RNvXs_NtCs2Yt0WxJROpx_6batuta6configNtB4_13ProjectConfigNtNtCs6RpC691fUBl_4core7default7Default7default
FNDA:1,_RNvNtNtCsjH0PaGjVXp8_6batuta6config5testss_17test_config_clone
FNDA:1,_RNvNtNtCsjH0PaGjVXp8_6batuta6config5testss_22test_load_invalid_toml
FNDA:1,_RNvNtNtCsjH0PaGjVXp8_6batuta6config5testss_24test_config_modification
FNDA:1,_RNvNtNtCsjH0PaGjVXp8_6batuta6config5testss_24test_decy_config_default
FNDA:1,_RNvNtNtCsjH0PaGjVXp8_6batuta6config5testss_24test_from_analysis_basic
FNDA:1,_RNvNtNtCsjH0PaGjVXp8_6batuta6config5testss_25test_build_config_default
FNDA:1,_RNvNtNtCsjH0PaGjVXp8_6batuta6config5testss_25test_save_and_load_config
FNDA:1,_RNvNtNtCsjH0PaGjVXp8_6batuta6config5testss_25test_save_modified_config
FNDA:1,_RNvNtNtCsjH0PaGjVXp8_6batuta6config5testss_26test_bashrs_config_default
FNDA:1,_RNvNtNtCsjH0PaGjVXp8_6batuta6config5testss_26test_batuta_config_default
FNDA:1,_RNvNtNtCsjH0PaGjVXp8_6batuta6config5testss_26test_load_nonexistent_file
FNDA:1,_RNvNtNtCsjH0PaGjVXp8_6batuta6config5testss_26test_source_config_default
FNDA:1,_RNvNtNtCsjH0PaGjVXp8_6batuta6config5testss_26test_trueno_config_default
FNDA:1,_RNvNtNtCsjH0PaGjVXp8_6batuta6config5testss_27test_depyler_config_default
FNDA:1,_RNvNtNtCsjH0PaGjVXp8_6batuta6config5testss_27test_project_config_default
FNDA:1,_RNvNtNtCsjH0PaGjVXp8_6batuta6config5testss_27test_renacer_config_default
FNDA:1,_RNvNtNtCsjH0PaGjVXp8_6batuta6config5testss_28test_save_config_toml_format
FNDA:1,_RNvNtNtCsjH0PaGjVXp8_6batuta6config5testss_30test_full_toml_deserialization
FNDA:1,_RNvNtNtCsjH0PaGjVXp8_6batuta6config5testss_30test_validation_config_default
FNDA:1,_RNvNtNtCsjH0PaGjVXp8_6batuta6config5testss_31test_from_analysis_rust_project
FNDA:1,_RNvNtNtCsjH0PaGjVXp8_6batuta6config5testss_32test_optimization_config_default
FNDA:1,_RNvNtNtCsjH0PaGjVXp8_6batuta6config5testss_33test_decy_config_in_transpilation
FNDA:1,_RNvNtNtCsjH0PaGjVXp8_6batuta6config5testss_33test_renacer_config_in_validation
FNDA:1,_RNvNtNtCsjH0PaGjVXp8_6batuta6config5testss_33test_transpilation_config_default
FNDA:1,_RNvNtNtCsjH0PaGjVXp8_6batuta6config5testss_34test_modified_toml_deserialization
FNDA:1,_RNvNtNtCsjH0PaGjVXp8_6batuta6config5testss_34test_trueno_config_in_optimization
FNDA:1,_RNvNtNtCsjH0PaGjVXp8_6batuta6config5testss_35test_bashrs_config_in_transpilation
FNDA:1,_RNvNtNtCsjH0PaGjVXp8_6batuta6config5testss_36test_depyler_config_in_transpilation
FNDA:1,_RNvNtNtCsjH0PaGjVXp8_6batuta6config5testss_36test_save_config_creates_parent_dirs
FNDA:1,_RNvNtNtCsjH0PaGjVXp8_6batuta6config5testss_38test_from_analysis_no_primary_language
FNDA:1,_RNvNtNtCsjH0PaGjVXp8_6batuta6config5testss_39test_from_analysis_with_ml_dependencies
FNDA:1,_RNvNtNtCsjH0PaGjVXp8_6batuta6config5testss_39test_serialize_deserialize_with_vectors
FNDA:1,_RNvNtNtCsjH0PaGjVXp8_6batuta6config5testss_40test_serialize_deserialize_batuta_config
FNDA:1,_RNvNtNtCsjH0PaGjVXp8_6batuta6config5testss_42test_from_analysis_without_ml_dependencies
FNDA:1,_RNvNtNtCsjH0PaGjVXp8_6batuta6config5testss_47test_serialize_deserialize_with_optional_fields
FNDA:5,_RNvMsa_NtCsjH0PaGjVXp8_6batuta6configNtB5_12BatutaConfig13from_analysis
FNDA:4,_RNvMsa_NtCsjH0PaGjVXp8_6batuta6configNtB5_12BatutaConfig4load
FNDA:4,_RNvMsa_NtCsjH0PaGjVXp8_6batuta6configNtB5_12BatutaConfig4save
FNDA:22,_RNvXNtCsjH0PaGjVXp8_6batuta6configNtB2_12BatutaConfigNtNtCs6RpC691fUBl_4core7default7Default7default
FNDA:23,_RNvXs0_NtCsjH0PaGjVXp8_6batuta6configNtB5_12SourceConfigNtNtCs6RpC691fUBl_4core7default7Default7default
FNDA:23,_RNvXs1_NtCsjH0PaGjVXp8_6batuta6configNtB5_19TranspilationConfigNtNtCs6RpC691fUBl_4core7default7Default7default
FNDA:24,_RNvXs2_NtCsjH0PaGjVXp8_6batuta6configNtB5_10DecyConfigNtNtCs6RpC691fUBl_4core7default7Default7default
FNDA:24,_RNvXs3_NtCsjH0PaGjVXp8_6batuta6configNtB5_13DepylerConfigNtNtCs6RpC691fUBl_4core7default7Default7default
FNDA:24,_RNvXs4_NtCsjH0PaGjVXp8_6batuta6configNtB5_12BashrsConfigNtNtCs6RpC691fUBl_4core7default7Default7default
FNDA:23,_RNvXs5_NtCsjH0PaGjVXp8_6batuta6configNtB5_18OptimizationConfigNtNtCs6RpC691fUBl_4core7default7Default7default
FNDA:24,_RNvXs6_NtCsjH0PaGjVXp8_6batuta6configNtB5_12TruenoConfigNtNtCs6RpC691fUBl_4core7default7Default7default
FNDA:23,_RNvXs7_NtCsjH0PaGjVXp8_6batuta6configNtB5_16ValidationConfigNtNtCs6RpC691fUBl_4core7default7Default7default
FNDA:24,_RNvXs8_NtCsjH0PaGjVXp8_6batuta6configNtB5_13RenacerConfigNtNtCs6RpC691fUBl_4core7default7Default7default
FNDA:23,_RNvXs9_NtCsjH0PaGjVXp8_6batuta6configNtB5_11BuildConfigNtNtCs6RpC691fUBl_4core7default7Default7default
FNDA:23,_RNvXs_NtCsjH0PaGjVXp8_6batuta6configNtB4_13ProjectConfigNtNtCs6RpC691fUBl_4core7default7Default7default
FNDA:5,_RNvMsa_NtCshEp7d2sUZm6_6batuta6configNtB5_12BatutaConfig13from_analysis
FNDA:4,_RNvMsa_NtCshEp7d2sUZm6_6batuta6configNtB5_12BatutaConfig4load
FNDA:4,_RNvMsa_NtCshEp7d2sUZm6_6batuta6configNtB5_12BatutaConfig4save
FNDA:22,_RNvXNtCshEp7d2sUZm6_6batuta6configNtB2_12BatutaConfigNtNtCs6RpC691fUBl_4core7default7Default7default
FNDA:23,_RNvXs0_NtCshEp7d2sUZm6_6batuta6configNtB5_12SourceConfigNtNtCs6RpC691fUBl_4core7default7Default7default
FNDA:23,_RNvXs1_NtCshEp7d2sUZm6_6batuta6configNtB5_19TranspilationConfigNtNtCs6RpC691fUBl_4core7default7Default7default
FNDA:24,_RNvXs2_NtCshEp7d2sUZm6_6batuta6configNtB5_10DecyConfigNtNtCs6RpC691fUBl_4core7default7Default7default
FNDA:24,_RNvXs3_NtCshEp7d2sUZm6_6batuta6configNtB5_13DepylerConfigNtNtCs6RpC691fUBl_4core7default7Default7default
FNDA:24,_RNvXs4_NtCshEp7d2sUZm6_6batuta6configNtB5_12BashrsConfigNtNtCs6RpC691fUBl_4core7default7Default7default
FNDA:23,_RNvXs5_NtCshEp7d2sUZm6_6batuta6configNtB5_18OptimizationConfigNtNtCs6RpC691fUBl_4core7default7Default7default
FNDA:24,_RNvXs6_NtCshEp7d2sUZm6_6batuta6configNtB5_12TruenoConfigNtNtCs6RpC691fUBl_4core7default7Default7default
FNDA:23,_RNvXs7_NtCshEp7d2sUZm6_6batuta6configNtB5_16ValidationConfigNtNtCs6RpC691fUBl_4core7default7Default7default
FNDA:24,_RNvXs8_NtCshEp7d2sUZm6_6batuta6configNtB5_13RenacerConfigNtNtCs6RpC691fUBl_4core7default7Default7default
FNDA:23,_RNvXs9_NtCshEp7d2sUZm6_6batuta6configNtB5_11BuildConfigNtNtCs6RpC691fUBl_4core7default7Default7default
FNDA:23,_RNvXs_NtCshEp7d2sUZm6_6batuta6configNtB4_13ProjectConfigNtNtCs6RpC691fUBl_4core7default7Default7default
FNDA:1,_RNvNtNtCshEp7d2sUZm6_6batuta6config5testss_17test_config_clone
FNDA:1,_RNvNtNtCshEp7d2sUZm6_6batuta6config5testss_22test_load_invalid_toml
FNDA:1,_RNvNtNtCshEp7d2sUZm6_6batuta6config5testss_24test_config_modification
FNDA:1,_RNvNtNtCshEp7d2sUZm6_6batuta6config5testss_24test_decy_config_default
FNDA:1,_RNvNtNtCshEp7d2sUZm6_6batuta6config5testss_24test_from_analysis_basic
FNDA:1,_RNvNtNtCshEp7d2sUZm6_6batuta6config5testss_25test_build_config_default
FNDA:1,_RNvNtNtCshEp7d2sUZm6_6batuta6config5testss_25test_save_and_load_config
FNDA:1,_RNvNtNtCshEp7d2sUZm6_6batuta6config5testss_25test_save_modified_config
FNDA:1,_RNvNtNtCshEp7d2sUZm6_6batuta6config5testss_26test_bashrs_config_default
FNDA:1,_RNvNtNtCshEp7d2sUZm6_6batuta6config5testss_26test_batuta_config_default
FNDA:1,_RNvNtNtCshEp7d2sUZm6_6batuta6config5testss_26test_load_nonexistent_file
FNDA:1,_RNvNtNtCshEp7d2sUZm6_6batuta6config5testss_26test_source_config_default
FNDA:1,_RNvNtNtCshEp7d2sUZm6_6batuta6config5testss_26test_trueno_config_default
FNDA:1,_RNvNtNtCshEp7d2sUZm6_6batuta6config5testss_27test_depyler_config_default
FNDA:1,_RNvNtNtCshEp7d2sUZm6_6batuta6config5testss_27test_project_config_default
FNDA:1,_RNvNtNtCshEp7d2sUZm6_6batuta6config5testss_27test_renacer_config_default
FNDA:1,_RNvNtNtCshEp7d2sUZm6_6batuta6config5testss_28test_save_config_toml_format
FNDA:1,_RNvNtNtCshEp7d2sUZm6_6batuta6config5testss_30test_full_toml_deserialization
FNDA:1,_RNvNtNtCshEp7d2sUZm6_6batuta6config5testss_30test_validation_config_default
FNDA:1,_RNvNtNtCshEp7d2sUZm6_6batuta6config5testss_31test_from_analysis_rust_project
FNDA:1,_RNvNtNtCshEp7d2sUZm6_6batuta6config5testss_32test_optimization_config_default
FNDA:1,_RNvNtNtCshEp7d2sUZm6_6batuta6config5testss_33test_decy_config_in_transpilation
FNDA:1,_RNvNtNtCshEp7d2sUZm6_6batuta6config5testss_33test_renacer_config_in_validation
FNDA:1,_RNvNtNtCshEp7d2sUZm6_6batuta6config5testss_33test_transpilation_config_default
FNDA:1,_RNvNtNtCshEp7d2sUZm6_6batuta6config5testss_34test_modified_toml_deserialization
FNDA:1,_RNvNtNtCshEp7d2sUZm6_6batuta6config5testss_34test_trueno_config_in_optimization
FNDA:1,_RNvNtNtCshEp7d2sUZm6_6batuta6config5testss_35test_bashrs_config_in_transpilation
FNDA:1,_RNvNtNtCshEp7d2sUZm6_6batuta6config5testss_36test_depyler_config_in_transpilation
FNDA:1,_RNvNtNtCshEp7d2sUZm6_6batuta6config5testss_36test_save_config_creates_parent_dirs
FNDA:1,_RNvNtNtCshEp7d2sUZm6_6batuta6config5testss_38test_from_analysis_no_primary_language
FNDA:1,_RNvNtNtCshEp7d2sUZm6_6batuta6config5testss_39test_from_analysis_with_ml_dependencies
FNDA:1,_RNvNtNtCshEp7d2sUZm6_6batuta6config5testss_39test_serialize_deserialize_with_vectors
FNDA:1,_RNvNtNtCshEp7d2sUZm6_6batuta6config5testss_40test_serialize_deserialize_batuta_config
FNDA:1,_RNvNtNtCshEp7d2sUZm6_6batuta6config5testss_42test_from_analysis_without_ml_dependencies
FNDA:1,_RNvNtNtCshEp7d2sUZm6_6batuta6config5testss_47test_serialize_deserialize_with_optional_fields
FNDA:0,_RNvMsa_NtCsc3xvWSUKV5Z_6batuta6configNtB5_12BatutaConfig13from_analysis
FNDA:0,_RNvMsa_NtCsc3xvWSUKV5Z_6batuta6configNtB5_12BatutaConfig4load
FNDA:0,_RNvMsa_NtCsc3xvWSUKV5Z_6batuta6configNtB5_12BatutaConfig4save
FNDA:0,_RNvXNtCsc3xvWSUKV5Z_6batuta6configNtB2_12BatutaConfigNtNtCs6RpC691fUBl_4core7default7Default7default
FNDA:0,_RNvXs0_NtCsc3xvWSUKV5Z_6batuta6configNtB5_12SourceConfigNtNtCs6RpC691fUBl_4core7default7Default7default
FNDA:0,_RNvXs1_NtCsc3xvWSUKV5Z_6batuta6configNtB5_19TranspilationConfigNtNtCs6RpC691fUBl_4core7default7Default7default
FNDA:0,_RNvXs2_NtCsc3xvWSUKV5Z_6batuta6configNtB5_10DecyConfigNtNtCs6RpC691fUBl_4core7default7Default7default
FNDA:0,_RNvXs3_NtCsc3xvWSUKV5Z_6batuta6configNtB5_13DepylerConfigNtNtCs6RpC691fUBl_4core7default7Default7default
FNDA:0,_RNvXs4_NtCsc3xvWSUKV5Z_6batuta6configNtB5_12BashrsConfigNtNtCs6RpC691fUBl_4core7default7Default7default
FNDA:0,_RNvXs5_NtCsc3xvWSUKV5Z_6batuta6configNtB5_18OptimizationConfigNtNtCs6RpC691fUBl_4core7default7Default7default
FNDA:0,_RNvXs6_NtCsc3xvWSUKV5Z_6batuta6configNtB5_12TruenoConfigNtNtCs6RpC691fUBl_4core7default7Default7default
FNDA:0,_RNvXs7_NtCsc3xvWSUKV5Z_6batuta6configNtB5_16ValidationConfigNtNtCs6RpC691fUBl_4core7default7Default7default
FNDA:0,_RNvXs8_NtCsc3xvWSUKV5Z_6batuta6configNtB5_13RenacerConfigNtNtCs6RpC691fUBl_4core7default7Default7default
FNDA:0,_RNvXs9_NtCsc3xvWSUKV5Z_6batuta6configNtB5_11BuildConfigNtNtCs6RpC691fUBl_4core7default7Default7default
FNDA:0,_RNvXs_NtCsc3xvWSUKV5Z_6batuta6configNtB4_13ProjectConfigNtNtCs6RpC691fUBl_4core7default7Default7default
FNF:50
FNH:50
DA:30,46
DA:31,46
DA:32,46
DA:33,46
DA:34,46
DA:35,46
DA:36,46
DA:37,46
DA:38,46
DA:39,46
DA:40,46
DA:62,48
DA:63,48
DA:64,48
DA:65,48
DA:66,48
DA:67,48
DA:68,48
DA:69,48
DA:70,48
DA:86,48
DA:87,48
DA:88,48
DA:89,48
DA:90,48
DA:91,48
DA:92,48
DA:93,48
DA:94,48
DA:95,48
DA:96,48
DA:97,48
DA:98,48
DA:99,48
DA:100,48
DA:101,48
DA:102,48
DA:132,48
DA:133,48
DA:134,48
DA:135,48
DA:136,48
DA:137,48
DA:138,48
DA:139,48
DA:140,48
DA:141,48
DA:142,48
DA:143,48
DA:144,48
DA:160,50
DA:161,50
DA:162,50
DA:163,50
DA:164,50
DA:165,50
DA:166,50
DA:185,50
DA:186,50
DA:187,50
DA:188,50
DA:189,50
DA:190,50
DA:191,50
DA:192,50
DA:205,50
DA:206,50
DA:207,50
DA:208,50
DA:209,50
DA:210,50
DA:235,48
DA:236,48
DA:237,48
DA:238,48
DA:239,48
DA:240,48
DA:241,48
DA:242,48
DA:243,48
DA:244,48
DA:260,50
DA:261,50
DA:262,50
DA:263,50
DA:264,50
DA:265,50
DA:266,50
DA:288,48
DA:289,48
DA:290,48
DA:291,48
DA:292,48
DA:293,48
DA:294,48
DA:295,48
DA:296,48
DA:309,50
DA:310,50
DA:311,50
DA:312,50
DA:313,50
DA:314,50
DA:333,48
DA:334,48
DA:335,48
DA:336,48
DA:337,48
DA:338,48
DA:339,48
DA:340,48
DA:345,8
DA:346,8
DA:347,6
DA:348,4
DA:349,8
DA:352,10
DA:353,10
DA:354,10
DA:355,10
DA:356,10
DA:359,12
DA:360,12
DA:363,12
DA:364,10
DA:365,10
DA:368,12
DA:369,10
DA:370,10
DA:373,12
DA:374,4
DA:375,4
DA:376,4
DA:377,8
DA:379,12
DA:380,12
DA:394,2
DA:395,2
DA:397,2
DA:398,2
DA:399,2
DA:400,2
DA:401,2
DA:402,2
DA:403,2
DA:404,2
DA:407,2
DA:408,2
DA:410,2
DA:411,2
DA:412,2
DA:413,2
DA:414,2
DA:415,2
DA:418,2
DA:419,2
DA:421,2
DA:422,2
DA:423,2
DA:424,2
DA:425,2
DA:426,2
DA:427,2
DA:430,2
DA:431,2
DA:433,2
DA:434,2
DA:435,2
DA:436,2
DA:437,2
DA:438,2
DA:439,2
DA:442,2
DA:443,2
DA:445,2
DA:446,2
DA:447,2
DA:448,2
DA:451,2
DA:452,2
DA:454,2
DA:455,2
DA:456,2
DA:457,2
DA:458,2
DA:461,2
DA:462,2
DA:464,2
DA:465,2
DA:466,2
DA:469,2
DA:470,2
DA:472,2
DA:473,2
DA:474,2
DA:475,2
DA:476,2
DA:477,2
DA:480,2
DA:481,2
DA:483,2
DA:484,2
DA:485,2
DA:486,2
DA:489,2
DA:490,2
DA:492,2
DA:493,2
DA:494,2
DA:495,2
DA:496,2
DA:499,2
DA:500,2
DA:502,2
DA:503,2
DA:504,2
DA:507,2
DA:508,2
DA:510,2
DA:511,2
DA:512,2
DA:513,2
DA:514,2
DA:521,2
DA:522,2
DA:523,2
DA:526,2
DA:527,2
DA:528,2
DA:529,2
DA:530,2
DA:533,2
DA:536,2
DA:539,2
DA:542,2
DA:543,2
DA:544,2
DA:545,2
DA:546,2
DA:549,2
DA:550,2
DA:551,2
DA:552,2
DA:555,2
DA:556,2
DA:557,2
DA:560,2
DA:562,2
DA:563,2
DA:564,2
DA:567,2
DA:568,2
DA:569,2
DA:572,2
DA:573,2
DA:574,2
DA:576,2
DA:577,2
DA:579,2
DA:580,2
DA:581,2
DA:584,2
DA:585,2
DA:586,2
DA:588,2
DA:589,2
DA:592,2
DA:595,2
DA:596,2
DA:597,2
DA:598,2
DA:599,2
DA:600,2
DA:601,2
DA:608,2
DA:609,2
DA:610,2
DA:611,2
DA:612,2
DA:613,2
DA:614,2
DA:615,2
DA:616,2
DA:617,2
DA:619,2
DA:621,2
DA:622,2
DA:623,2
DA:626,2
DA:627,2
DA:628,2
DA:629,2
DA:630,2
DA:631,2
DA:632,2
DA:633,2
DA:634,2
DA:635,2
DA:636,2
DA:637,2
DA:638,2
DA:639,2
DA:640,2
DA:641,2
DA:643,2
DA:646,2
DA:647,2
DA:648,2
DA:649,2
DA:652,2
DA:653,2
DA:654,2
DA:655,2
DA:656,2
DA:657,2
DA:658,2
DA:659,2
DA:660,2
DA:661,2
DA:662,2
DA:663,2
DA:664,2
DA:665,2
DA:666,2
DA:667,2
DA:669,2
DA:672,2
DA:673,2
DA:676,2
DA:677,2
DA:678,2
DA:679,2
DA:680,2
DA:681,2
DA:682,2
DA:683,2
DA:684,2
DA:685,2
DA:687,2
DA:689,2
DA:690,2
DA:691,2
DA:694,2
DA:695,2
DA:696,2
DA:697,2
DA:698,2
DA:699,2
DA:700,2
DA:701,2
DA:702,2
DA:703,2
DA:705,2
DA:707,2
DA:708,2
DA:709,2
DA:716,2
DA:717,2
DA:719,2
DA:720,2
DA:722,2
DA:723,2
DA:724,2
DA:725,2
DA:728,2
DA:729,2
DA:730,2
DA:731,2
DA:732,2
DA:734,2
DA:735,2
DA:737,2
DA:738,2
DA:739,2
DA:740,2
DA:743,2
DA:744,2
DA:745,2
DA:746,2
DA:747,2
DA:749,2
DA:750,2
DA:752,2
DA:753,2
DA:754,2
DA:755,2
DA:758,2
DA:760,2
DA:761,2
DA:762,2
DA:764,2
DA:765,2
DA:766,2
DA:767,2
DA:770,2
DA:772,2
DA:773,2
DA:774,2
DA:775,2
DA:777,2
DA:778,2
DA:780,2
DA:781,2
DA:782,2
DA:783,2
DA:790,2
DA:791,2
DA:793,2
DA:794,2
DA:795,2
DA:796,2
DA:799,2
DA:800,2
DA:802,2
DA:803,2
DA:804,2
DA:805,2
DA:806,2
DA:809,2
DA:810,2
DA:812,2
DA:813,2
DA:814,2
DA:817,2
DA:818,2
DA:820,2
DA:821,2
DA:822,2
DA:823,2
DA:826,2
DA:827,2
DA:829,2
DA:830,2
DA:831,2
DA:838,2
DA:839,2
DA:842,2
DA:843,2
DA:844,2
DA:845,2
DA:847,2
DA:848,2
DA:849,2
DA:850,2
DA:851,2
DA:854,2
DA:855,2
DA:856,2
DA:858,2
DA:859,2
DA:860,2
DA:861,2
DA:864,2
DA:865,2
DA:866,2
DA:868,2
DA:869,2
DA:870,2
DA:871,2
DA:873,2
DA:875,2
DA:877,2
DA:878,2
DA:879,2
DA:880,2
BRF:0
BRH:0
LF:465
LH:465
end_of_record
SF:/home/noah/src/batuta/src/main.rs
FN:1174,_RNvCs2Yt0WxJROpx_6batuta10cmd_report
FN:1254,_RNvCs2Yt0WxJROpx_6batuta10cmd_status
FN:569,_RNvCs2Yt0WxJROpx_6batuta11cmd_analyze
FN:921,_RNvCs2Yt0WxJROpx_6batuta12cmd_optimize
FN:983,_RNvCs2Yt0WxJROpx_6batuta12cmd_validate
FN:769,_RNvCs2Yt0WxJROpx_6batuta13cmd_transpile
FN:637,_RNvCs2Yt0WxJROpx_6batuta16setup_transpiler
FN:538,_RNvCs2Yt0WxJROpx_6batuta17display_tdg_score
FN:27,_RNvCs2Yt0WxJROpx_6batuta19get_state_file_path
FN:674,_RNvCs2Yt0WxJROpx_6batuta20handle_missing_tools
FN:701,_RNvCs2Yt0WxJROpx_6batuta21build_transpiler_args
FN:481,_RNvCs2Yt0WxJROpx_6batuta21display_language_info
FN:510,_RNvCs2Yt0WxJROpx_6batuta23display_dependency_info
FN:828,_RNvCs2Yt0WxJROpx_6batuta23handle_transpile_result
FN:459,_RNvCs2Yt0WxJROpx_6batuta24display_analysis_results
FN:891,_RNvCs2Yt0WxJROpx_6batuta24handle_transpile_failure
FN:843,_RNvCs2Yt0WxJROpx_6batuta24handle_transpile_success
FN:32,_RNvCs2Yt0WxJROpx_6batuta25display_workflow_progress
FN:561,_RNvCs2Yt0WxJROpx_6batuta26display_analyze_next_steps
FN:612,_RNvCs2Yt0WxJROpx_6batuta29check_transpile_prerequisites
FN:741,_RNvCs2Yt0WxJROpx_6batuta30display_transpilation_settings
FN:278,_RNvCs2Yt0WxJROpx_6batuta4main
FN:378,_RNvCs2Yt0WxJROpx_6batuta8cmd_init
FN:1395,_RNvCs2Yt0WxJROpx_6batuta8cmd_parf
FN:1112,_RNvCs2Yt0WxJROpx_6batuta9cmd_build
FN:1341,_RNvCs2Yt0WxJROpx_6batuta9cmd_reset
FN:1180,_RNCNvCs2Yt0WxJROpx_6batuta10cmd_report0B3_
FN:1205,_RNCNvCs2Yt0WxJROpx_6batuta10cmd_reports0_0B3_
FN:1183,_RNCNvCs2Yt0WxJROpx_6batuta10cmd_reports_0B3_
FN:1259,_RNCNvCs2Yt0WxJROpx_6batuta10cmd_status0B3_
FN:1262,_RNCNvCs2Yt0WxJROpx_6batuta10cmd_statuss_0B3_
FN:580,_RNCNvCs2Yt0WxJROpx_6batuta11cmd_analyze0B3_
FN:932,_RNCNvCs2Yt0WxJROpx_6batuta12cmd_optimize0B3_
FN:994,_RNCNvCs2Yt0WxJROpx_6batuta12cmd_validate0B3_
FN:780,_RNCNvCs2Yt0WxJROpx_6batuta13cmd_transpile0B3_
FN:815,_RNCNvCs2Yt0WxJROpx_6batuta13cmd_transpiles_0B3_
FN:656,_RNCNvCs2Yt0WxJROpx_6batuta16setup_transpiler0B3_
FN:661,_RNCNvCs2Yt0WxJROpx_6batuta16setup_transpilers_0B3_
FN:710,_RNCNvCs2Yt0WxJROpx_6batuta21build_transpiler_args0B3_
FN:393,_RNCNvCs2Yt0WxJROpx_6batuta8cmd_init0B3_
FN:1118,_RNCNvCs2Yt0WxJROpx_6batuta9cmd_build0B3_
FN:1357,_RNCNvCs2Yt0WxJROpx_6batuta9cmd_reset0B3_
FN:1180,_RNCNvCshEp7d2sUZm6_6batuta10cmd_report0B3_
FN:1205,_RNCNvCshEp7d2sUZm6_6batuta10cmd_reports0_0B3_
FN:1183,_RNCNvCshEp7d2sUZm6_6batuta10cmd_reports_0B3_
FN:1259,_RNCNvCshEp7d2sUZm6_6batuta10cmd_status0B3_
FN:1262,_RNCNvCshEp7d2sUZm6_6batuta10cmd_statuss_0B3_
FN:580,_RNCNvCshEp7d2sUZm6_6batuta11cmd_analyze0B3_
FN:932,_RNCNvCshEp7d2sUZm6_6batuta12cmd_optimize0B3_
FN:994,_RNCNvCshEp7d2sUZm6_6batuta12cmd_validate0B3_
FN:780,_RNCNvCshEp7d2sUZm6_6batuta13cmd_transpile0B3_
FN:815,_RNCNvCshEp7d2sUZm6_6batuta13cmd_transpiles_0B3_
FN:656,_RNCNvCshEp7d2sUZm6_6batuta16setup_transpiler0B3_
FN:661,_RNCNvCshEp7d2sUZm6_6batuta16setup_transpilers_0B3_
FN:710,_RNCNvCshEp7d2sUZm6_6batuta21build_transpiler_args0B3_
FN:393,_RNCNvCshEp7d2sUZm6_6batuta8cmd_init0B3_
FN:1118,_RNCNvCshEp7d2sUZm6_6batuta9cmd_build0B3_
FN:1357,_RNCNvCshEp7d2sUZm6_6batuta9cmd_reset0B3_
FN:1174,_RNvCshEp7d2sUZm6_6batuta10cmd_report
FN:1254,_RNvCshEp7d2sUZm6_6batuta10cmd_status
FN:569,_RNvCshEp7d2sUZm6_6batuta11cmd_analyze
FN:921,_RNvCshEp7d2sUZm6_6batuta12cmd_optimize
FN:983,_RNvCshEp7d2sUZm6_6batuta12cmd_validate
FN:769,_RNvCshEp7d2sUZm6_6batuta13cmd_transpile
FN:637,_RNvCshEp7d2sUZm6_6batuta16setup_transpiler
FN:538,_RNvCshEp7d2sUZm6_6batuta17display_tdg_score
FN:27,_RNvCshEp7d2sUZm6_6batuta19get_state_file_path
FN:674,_RNvCshEp7d2sUZm6_6batuta20handle_missing_tools
FN:701,_RNvCshEp7d2sUZm6_6batuta21build_transpiler_args
FN:481,_RNvCshEp7d2sUZm6_6batuta21display_language_info
FN:510,_RNvCshEp7d2sUZm6_6batuta23display_dependency_info
FN:828,_RNvCshEp7d2sUZm6_6batuta23handle_transpile_result
FN:459,_RNvCshEp7d2sUZm6_6batuta24display_analysis_results
FN:891,_RNvCshEp7d2sUZm6_6batuta24handle_transpile_failure
FN:843,_RNvCshEp7d2sUZm6_6batuta24handle_transpile_success
FN:32,_RNvCshEp7d2sUZm6_6batuta25display_workflow_progress
FN:561,_RNvCshEp7d2sUZm6_6batuta26display_analyze_next_steps
FN:612,_RNvCshEp7d2sUZm6_6batuta29check_transpile_prerequisites
FN:741,_RNvCshEp7d2sUZm6_6batuta30display_transpilation_settings
FN:278,_RNvCshEp7d2sUZm6_6batuta4main
FN:378,_RNvCshEp7d2sUZm6_6batuta8cmd_init
FN:1395,_RNvCshEp7d2sUZm6_6batuta8cmd_parf
FN:1112,_RNvCshEp7d2sUZm6_6batuta9cmd_build
FN:1341,_RNvCshEp7d2sUZm6_6batuta9cmd_reset
FNDA:5,_RNvCs2Yt0WxJROpx_6batuta10cmd_report
FNDA:3,_RNvCs2Yt0WxJROpx_6batuta10cmd_status
FNDA:11,_RNvCs2Yt0WxJROpx_6batuta11cmd_analyze
FNDA:5,_RNvCs2Yt0WxJROpx_6batuta12cmd_optimize
FNDA:2,_RNvCs2Yt0WxJROpx_6batuta12cmd_validate
FNDA:2,_RNvCs2Yt0WxJROpx_6batuta13cmd_transpile
FNDA:0,_RNvCs2Yt0WxJROpx_6batuta16setup_transpiler
FNDA:10,_RNvCs2Yt0WxJROpx_6batuta17display_tdg_score
FNDA:34,_RNvCs2Yt0WxJROpx_6batuta19get_state_file_path
FNDA:0,_RNvCs2Yt0WxJROpx_6batuta20handle_missing_tools
FNDA:0,_RNvCs2Yt0WxJROpx_6batuta21build_transpiler_args
FNDA:10,_RNvCs2Yt0WxJROpx_6batuta21display_language_info
FNDA:10,_RNvCs2Yt0WxJROpx_6batuta23display_dependency_info
FNDA:0,_RNvCs2Yt0WxJROpx_6batuta23handle_transpile_result
FNDA:10,_RNvCs2Yt0WxJROpx_6batuta24display_analysis_results
FNDA:0,_RNvCs2Yt0WxJROpx_6batuta24handle_transpile_failure
FNDA:0,_RNvCs2Yt0WxJROpx_6batuta24handle_transpile_success
FNDA:26,_RNvCs2Yt0WxJROpx_6batuta25display_workflow_progress
FNDA:10,_RNvCs2Yt0WxJROpx_6batuta26display_analyze_next_steps
FNDA:2,_RNvCs2Yt0WxJROpx_6batuta29check_transpile_prerequisites
FNDA:0,_RNvCs2Yt0WxJROpx_6batuta30display_transpilation_settings
FNDA:46,_RNvCs2Yt0WxJROpx_6batuta4main
FNDA:2,_RNvCs2Yt0WxJROpx_6batuta8cmd_init
FNDA:8,_RNvCs2Yt0WxJROpx_6batuta8cmd_parf
FNDA:4,_RNvCs2Yt0WxJROpx_6batuta9cmd_build
FNDA:2,_RNvCs2Yt0WxJROpx_6batuta9cmd_reset
FNDA:0,_RNCNvCs2Yt0WxJROpx_6batuta10cmd_report0B3_
FNDA:0,_RNCNvCs2Yt0WxJROpx_6batuta10cmd_reports0_0B3_
FNDA:16,_RNCNvCs2Yt0WxJROpx_6batuta10cmd_reports_0B3_
FNDA:0,_RNCNvCs2Yt0WxJROpx_6batuta10cmd_status0B3_
FNDA:10,_RNCNvCs2Yt0WxJROpx_6batuta10cmd_statuss_0B3_
FNDA:0,_RNCNvCs2Yt0WxJROpx_6batuta11cmd_analyze0B3_
FNDA:0,_RNCNvCs2Yt0WxJROpx_6batuta12cmd_optimize0B3_
FNDA:0,_RNCNvCs2Yt0WxJROpx_6batuta12cmd_validate0B3_
FNDA:0,_RNCNvCs2Yt0WxJROpx_6batuta13cmd_transpile0B3_
FNDA:0,_RNCNvCs2Yt0WxJROpx_6batuta13cmd_transpiles_0B3_
FNDA:0,_RNCNvCs2Yt0WxJROpx_6batuta16setup_transpiler0B3_
FNDA:0,_RNCNvCs2Yt0WxJROpx_6batuta16setup_transpilers_0B3_
FNDA:0,_RNCNvCs2Yt0WxJROpx_6batuta21build_transpiler_args0B3_
FNDA:1,_RNCNvCs2Yt0WxJROpx_6batuta8cmd_init0B3_
FNDA:0,_RNCNvCs2Yt0WxJROpx_6batuta9cmd_build0B3_
FNDA:5,_RNCNvCs2Yt0WxJROpx_6batuta9cmd_reset0B3_
FNDA:0,_RNCNvCshEp7d2sUZm6_6batuta10cmd_report0B3_
FNDA:0,_RNCNvCshEp7d2sUZm6_6batuta10cmd_reports0_0B3_
FNDA:0,_RNCNvCshEp7d2sUZm6_6batuta10cmd_reports_0B3_
FNDA:0,_RNCNvCshEp7d2sUZm6_6batuta10cmd_status0B3_
FNDA:0,_RNCNvCshEp7d2sUZm6_6batuta10cmd_statuss_0B3_
FNDA:0,_RNCNvCshEp7d2sUZm6_6batuta11cmd_analyze0B3_
FNDA:0,_RNCNvCshEp7d2sUZm6_6batuta12cmd_optimize0B3_
FNDA:0,_RNCNvCshEp7d2sUZm6_6batuta12cmd_validate0B3_
FNDA:0,_RNCNvCshEp7d2sUZm6_6batuta13cmd_transpile0B3_
FNDA:0,_RNCNvCshEp7d2sUZm6_6batuta13cmd_transpiles_0B3_
FNDA:0,_RNCNvCshEp7d2sUZm6_6batuta16setup_transpiler0B3_
FNDA:0,_RNCNvCshEp7d2sUZm6_6batuta16setup_transpilers_0B3_
FNDA:0,_RNCNvCshEp7d2sUZm6_6batuta21build_transpiler_args0B3_
FNDA:0,_RNCNvCshEp7d2sUZm6_6batuta8cmd_init0B3_
FNDA:0,_RNCNvCshEp7d2sUZm6_6batuta9cmd_build0B3_
FNDA:0,_RNCNvCshEp7d2sUZm6_6batuta9cmd_reset0B3_
FNDA:0,_RNvCshEp7d2sUZm6_6batuta10cmd_report
FNDA:0,_RNvCshEp7d2sUZm6_6batuta10cmd_status
FNDA:0,_RNvCshEp7d2sUZm6_6batuta11cmd_analyze
FNDA:0,_RNvCshEp7d2sUZm6_6batuta12cmd_optimize
FNDA:0,_RNvCshEp7d2sUZm6_6batuta12cmd_validate
FNDA:0,_RNvCshEp7d2sUZm6_6batuta13cmd_transpile
FNDA:0,_RNvCshEp7d2sUZm6_6batuta16setup_transpiler
FNDA:0,_RNvCshEp7d2sUZm6_6batuta17display_tdg_score
FNDA:0,_RNvCshEp7d2sUZm6_6batuta19get_state_file_path
FNDA:0,_RNvCshEp7d2sUZm6_6batuta20handle_missing_tools
FNDA:0,_RNvCshEp7d2sUZm6_6batuta21build_transpiler_args
FNDA:0,_RNvCshEp7d2sUZm6_6batuta21display_language_info
FNDA:0,_RNvCshEp7d2sUZm6_6batuta23display_dependency_info
FNDA:0,_RNvCshEp7d2sUZm6_6batuta23handle_transpile_result
FNDA:0,_RNvCshEp7d2sUZm6_6batuta24display_analysis_results
FNDA:0,_RNvCshEp7d2sUZm6_6batuta24handle_transpile_failure
FNDA:0,_RNvCshEp7d2sUZm6_6batuta24handle_transpile_success
FNDA:0,_RNvCshEp7d2sUZm6_6batuta25display_workflow_progress
FNDA:0,_RNvCshEp7d2sUZm6_6batuta26display_analyze_next_steps
FNDA:0,_RNvCshEp7d2sUZm6_6batuta29check_transpile_prerequisites
FNDA:0,_RNvCshEp7d2sUZm6_6batuta30display_transpilation_settings
FNDA:0,_RNvCshEp7d2sUZm6_6batuta4main
FNDA:0,_RNvCshEp7d2sUZm6_6batuta8cmd_init
FNDA:0,_RNvCshEp7d2sUZm6_6batuta8cmd_parf
FNDA:0,_RNvCshEp7d2sUZm6_6batuta9cmd_build
FNDA:0,_RNvCshEp7d2sUZm6_6batuta9cmd_reset
FNF:42
FNH:23
DA:27,34
DA:28,34
DA:29,34
DA:32,26
DA:33,26
DA:34,26
DA:35,26
DA:37,130
DA:38,130
DA:39,130
DA:40,12
DA:41,0
DA:42,1
DA:43,117
DA:46,130
DA:47,130
DA:49,130
DA:50,130
DA:51,13
DA:52,13
DA:53,13
DA:54,13
DA:55,13
DA:56,13
DA:57,117
DA:58,117
DA:59,117
DA:62,26
DA:63,26
DA:64,26
DA:65,26
DA:66,26
DA:67,26
DA:278,46
DA:279,46
DA:282,46
DA:283,1
DA:284,45
DA:285,1
DA:287,44
DA:290,46
DA:291,46
DA:292,46
DA:293,46
DA:295,46
DA:297,46
DA:298,4
DA:299,4
DA:300,4
DA:303,11
DA:304,11
DA:305,11
DA:306,11
DA:308,11
DA:309,11
DA:312,2
DA:313,2
DA:314,2
DA:315,2
DA:316,2
DA:318,2
DA:319,2
DA:322,5
DA:323,5
DA:324,5
DA:325,5
DA:327,5
DA:328,5
DA:331,2
DA:332,2
DA:333,2
DA:334,2
DA:336,2
DA:337,2
DA:340,4
DA:341,4
DA:342,4
DA:344,4
DA:345,4
DA:347,5
DA:348,5
DA:349,5
DA:352,3
DA:353,3
DA:355,2
DA:356,2
DA:357,2
DA:360,8
DA:361,8
DA:362,8
DA:363,8
DA:364,8
DA:365,8
DA:366,8
DA:368,8
DA:369,8
DA:373,45
DA:374,46
DA:378,2
DA:379,2
DA:380,2
DA:383,2
DA:384,2
DA:386,2
DA:387,2
DA:388,2
DA:389,2
DA:390,2
DA:393,2
DA:394,1
DA:395,1
DA:396,1
DA:397,1
DA:400,2
DA:403,2
DA:406,2
DA:407,2
DA:409,2
DA:412,2
DA:413,2
DA:415,2
DA:416,2
DA:419,2
DA:420,2
DA:421,2
DA:422,2
DA:423,2
DA:424,2
DA:425,2
DA:426,2
DA:429,2
DA:430,2
DA:431,2
DA:433,2
DA:434,0
DA:435,0
DA:436,0
DA:437,2
DA:438,2
DA:441,2
DA:442,2
DA:443,2
DA:444,2
DA:445,2
DA:446,2
DA:449,2
DA:450,2
DA:451,2
DA:452,2
DA:453,2
DA:455,2
DA:456,2
DA:459,10
DA:460,10
DA:461,10
DA:462,10
DA:465,10
DA:466,10
DA:467,10
DA:468,10
DA:471,10
DA:474,10
DA:477,10
DA:478,10
DA:481,10
DA:482,10
DA:483,7
DA:484,3
DA:486,3
DA:487,8
DA:488,5
DA:489,5
DA:490,5
DA:491,5
DA:492,5
DA:493,5
DA:494,5
DA:495,5
DA:496,5
DA:497,3
DA:499,3
DA:500,3
DA:501,3
DA:503,3
DA:504,3
DA:505,3
DA:506,3
DA:507,10
DA:510,10
DA:511,10
DA:512,9
DA:513,1
DA:515,1
DA:516,2
DA:517,1
DA:518,1
DA:520,0
DA:522,1
DA:523,1
DA:525,1
DA:527,1
DA:528,1
DA:529,1
DA:530,1
DA:531,1
DA:532,1
DA:533,1
DA:534,1
DA:535,10
DA:538,10
DA:539,10
DA:540,8
DA:543,2
DA:544,2
DA:545,0
DA:546,0
DA:547,0
DA:548,0
DA:549,0
DA:550,0
DA:552,0
DA:555,2
DA:556,2
DA:557,2
DA:558,10
DA:561,10
DA:562,10
DA:563,10
DA:564,10
DA:565,10
DA:566,10
DA:567,10
DA:569,11
DA:570,11
DA:571,11
DA:572,11
DA:573,11
DA:574,11
DA:575,11
DA:576,11
DA:579,11
DA:580,11
DA:583,11
DA:584,11
DA:587,11
DA:590,11
DA:591,10
DA:592,10
DA:593,10
DA:594,10
DA:596,1
DA:597,1
DA:598,1
DA:599,1
DA:604,10
DA:605,10
DA:606,10
DA:608,10
DA:609,11
DA:612,2
DA:613,2
DA:614,2
DA:615,2
DA:616,2
DA:617,2
DA:618,2
DA:619,2
DA:620,0
DA:622,0
DA:623,0
DA:624,0
DA:625,0
DA:626,0
DA:627,0
DA:628,0
DA:629,0
DA:631,0
DA:632,0
DA:633,0
DA:634,2
DA:637,0
DA:638,0
DA:639,0
DA:641,0
DA:642,0
DA:643,0
DA:644,0
DA:646,0
DA:647,0
DA:648,0
DA:649,0
DA:650,0
DA:651,0
DA:653,0
DA:654,0
DA:655,0
DA:656,0
DA:658,0
DA:660,0
DA:661,0
DA:662,0
DA:664,0
DA:665,0
DA:666,0
DA:667,0
DA:668,0
DA:670,0
DA:671,0
DA:674,0
DA:675,0
DA:676,0
DA:677,0
DA:678,0
DA:680,0
DA:681,0
DA:682,0
DA:683,0
DA:684,0
DA:685,0
DA:686,0
DA:689,0
DA:692,0
DA:693,0
DA:694,0
DA:695,0
DA:696,0
DA:697,0
DA:698,0
DA:701,0
DA:702,0
DA:703,0
DA:704,0
DA:705,0
DA:706,0
DA:707,0
DA:708,0
DA:709,0
DA:710,0
DA:712,0
DA:713,0
DA:714,0
DA:715,0
DA:716,0
DA:719,0
DA:720,0
DA:721,0
DA:723,0
DA:724,0
DA:725,0
DA:727,0
DA:728,0
DA:729,0
DA:731,0
DA:732,0
DA:733,0
DA:734,0
DA:736,0
DA:737,0
DA:738,0
DA:741,0
DA:742,0
DA:743,0
DA:744,0
DA:745,0
DA:746,0
DA:747,0
DA:748,0
DA:749,0
DA:750,0
DA:751,0
DA:752,0
DA:753,0
DA:754,0
DA:756,0
DA:757,0
DA:758,0
DA:760,0
DA:761,0
DA:762,0
DA:763,0
DA:764,0
DA:765,0
DA:766,0
DA:767,0
DA:769,2
DA:770,2
DA:771,2
DA:772,2
DA:773,2
DA:774,2
DA:775,2
DA:776,2
DA:777,2
DA:779,2
DA:780,2
DA:783,2
DA:784,0
DA:785,2
DA:786,2
DA:787,2
DA:788,2
DA:792,0
DA:793,0
DA:796,0
DA:797,0
DA:798,0
DA:799,0
DA:800,0
DA:801,0
DA:806,0
DA:807,0
DA:808,0
DA:810,0
DA:811,0
DA:814,0
DA:815,0
DA:817,0
DA:818,0
DA:819,0
DA:820,0
DA:823,0
DA:824,0
DA:825,2
DA:828,0
DA:829,0
DA:830,0
DA:831,0
DA:832,0
DA:833,0
DA:834,0
DA:835,0
DA:836,0
DA:837,0
DA:838,0
DA:840,0
DA:843,0
DA:844,0
DA:845,0
DA:846,0
DA:847,0
DA:848,0
DA:849,0
DA:850,0
DA:851,0
DA:852,0
DA:855,0
DA:856,0
DA:857,0
DA:858,0
DA:859,0
DA:860,0
DA:861,0
DA:862,0
DA:863,0
DA:864,0
DA:865,0
DA:866,0
DA:869,0
DA:870,0
DA:872,0
DA:875,0
DA:876,0
DA:877,0
DA:878,0
DA:879,0
DA:882,0
DA:883,0
DA:884,0
DA:885,0
DA:887,0
DA:888,0
DA:891,0
DA:892,0
DA:893,0
DA:894,0
DA:895,0
DA:896,0
DA:897,0
DA:898,0
DA:899,0
DA:900,0
DA:901,0
DA:902,0
DA:904,0
DA:905,0
DA:907,0
DA:910,0
DA:911,0
DA:912,0
DA:913,0
DA:914,0
DA:915,0
DA:916,0
DA:918,0
DA:919,0
DA:921,5
DA:922,5
DA:923,5
DA:924,5
DA:925,5
DA:926,5
DA:927,5
DA:928,5
DA:931,5
DA:932,5
DA:935,5
DA:936,5
DA:937,5
DA:938,5
DA:939,5
DA:940,5
DA:941,5
DA:942,0
DA:945,0
DA:946,0
DA:949,0
DA:950,0
DA:951,0
DA:952,0
DA:953,0
DA:954,0
DA:955,0
DA:958,0
DA:959,0
DA:960,0
DA:961,0
DA:962,0
DA:963,0
DA:964,0
DA:965,0
DA:966,0
DA:969,0
DA:970,0
DA:973,0
DA:975,0
DA:976,0
DA:977,0
DA:978,0
DA:980,0
DA:981,5
DA:983,2
DA:984,2
DA:985,2
DA:986,2
DA:987,2
DA:988,2
DA:989,2
DA:990,2
DA:993,2
DA:994,2
DA:997,2
DA:998,2
DA:999,2
DA:1000,2
DA:1001,2
DA:1002,2
DA:1003,2
DA:1004,0
DA:1007,0
DA:1008,0
DA:1011,0
DA:1012,0
DA:1013,0
DA:1014,0
DA:1015,0
DA:1016,0
DA:1017,0
DA:1018,0
DA:1019,0
DA:1020,0
DA:1023,0
DA:1025,0
DA:1026,0
DA:1029,0
DA:1030,0
DA:1032,0
DA:1033,0
DA:1034,0
DA:1035,0
DA:1040,0
DA:1041,0
DA:1042,0
DA:1045,0
DA:1047,0
DA:1048,0
DA:1049,0
DA:1051,0
DA:1052,0
DA:1053,0
DA:1054,0
DA:1055,0
DA:1056,0
DA:1057,0
DA:1058,0
DA:1059,0
DA:1060,0
DA:1061,0
DA:1063,0
DA:1064,0
DA:1065,0
DA:1066,0
DA:1068,0
DA:1069,0
DA:1070,0
DA:1071,0
DA:1072,0
DA:1073,0
DA:1075,0
DA:1076,0
DA:1077,0
DA:1078,0
DA:1079,0
DA:1081,0
DA:1082,0
DA:1083,0
DA:1084,0
DA:1085,0
DA:1087,0
DA:1088,0
DA:1089,0
DA:1090,0
DA:1091,0
DA:1094,0
DA:1095,0
DA:1096,0
DA:1097,0
DA:1098,0
DA:1099,0
DA:1102,0
DA:1104,0
DA:1105,0
DA:1106,0
DA:1107,0
DA:1109,0
DA:1110,2
DA:1112,4
DA:1113,4
DA:1114,4
DA:1117,4
DA:1118,4
DA:1121,4
DA:1122,4
DA:1123,4
DA:1124,4
DA:1125,4
DA:1126,4
DA:1127,4
DA:1128,0
DA:1131,0
DA:1132,0
DA:1135,0
DA:1136,0
DA:1137,0
DA:1138,0
DA:1139,0
DA:1140,0
DA:1141,0
DA:1142,0
DA:1143,0
DA:1146,0
DA:1147,0
DA:1148,0
DA:1149,0
DA:1150,0
DA:1151,0
DA:1152,0
DA:1153,0
DA:1154,0
DA:1157,0
DA:1158,0
DA:1161,0
DA:1163,0
DA:1164,0
DA:1165,0
DA:1166,0
DA:1167,0
DA:1168,0
DA:1169,0
DA:1171,0
DA:1172,4
DA:1174,5
DA:1175,5
DA:1176,5
DA:1179,5
DA:1180,5
DA:1183,16
DA:1184,5
DA:1185,1
DA:1186,1
DA:1187,1
DA:1188,1
DA:1189,1
DA:1190,4
DA:1193,4
DA:1194,4
DA:1195,0
DA:1196,0
DA:1199,4
DA:1203,4
DA:1204,4
DA:1205,4
DA:1206,4
DA:1207,4
DA:1209,4
DA:1212,4
DA:1213,1
DA:1214,1
DA:1215,1
DA:1216,1
DA:1220,4
DA:1222,4
DA:1223,4
DA:1224,4
DA:1225,4
DA:1226,4
DA:1229,4
DA:1230,2
DA:1231,2
DA:1232,2
DA:1233,40
DA:1234,40
DA:1235,40
DA:1236,2
DA:1237,2
DA:1238,2
DA:1239,2
DA:1240,2
DA:1241,2
DA:1243,4
DA:1244,4
DA:1245,4
DA:1246,1
DA:1247,1
DA:1248,3
DA:1249,4
DA:1251,4
DA:1252,5
DA:1254,3
DA:1255,3
DA:1256,3
DA:1258,3
DA:1259,3
DA:1262,10
DA:1264,3
DA:1265,0
DA:1266,0
DA:1267,0
DA:1268,0
DA:1269,0
DA:1270,0
DA:1271,0
DA:1272,3
DA:1274,3
DA:1277,3
DA:1278,3
DA:1280,15
DA:1281,15
DA:1283,15
DA:1284,2
DA:1285,0
DA:1286,1
DA:1287,12
DA:1290,15
DA:1291,15
DA:1293,15
DA:1294,3
DA:1295,12
DA:1297,15
DA:1298,3
DA:1300,3
DA:1301,3
DA:1302,3
DA:1303,3
DA:1304,12
DA:1306,15
DA:1307,1
DA:1308,14
DA:1311,3
DA:1312,3
DA:1313,3
DA:1316,3
DA:1317,3
DA:1318,3
DA:1319,1
DA:1320,1
DA:1321,1
DA:1322,2
DA:1323,2
DA:1324,2
DA:1325,0
DA:1326,0
DA:1327,0
DA:1328,0
DA:1329,0
DA:1330,0
DA:1331,0
DA:1332,0
DA:1333,0
DA:1335,3
DA:1336,0
DA:1338,3
DA:1339,3
DA:1341,2
DA:1342,2
DA:1343,2
DA:1345,2
DA:1347,2
DA:1348,1
DA:1349,1
DA:1350,1
DA:1353,1
DA:1354,1
DA:1355,1
DA:1356,1
DA:1357,5
DA:1358,1
DA:1360,1
DA:1361,1
DA:1362,1
DA:1363,1
DA:1364,1
DA:1367,1
DA:1368,0
DA:1370,0
DA:1372,0
DA:1373,0
DA:1375,0
DA:1376,0
DA:1377,0
DA:1378,0
DA:1379,0
DA:1380,1
DA:1383,1
DA:1385,1
DA:1386,1
DA:1387,1
DA:1388,1
DA:1389,1
DA:1390,1
DA:1392,1
DA:1393,2
DA:1395,8
DA:1396,8
DA:1397,8
DA:1398,8
DA:1399,8
DA:1400,8
DA:1401,8
DA:1402,8
DA:1403,8
DA:1406,8
DA:1407,8
DA:1408,8
DA:1411,8
DA:1414,8
DA:1415,8
DA:1416,8
DA:1417,8
DA:1419,8
DA:1422,8
DA:1423,1
DA:1424,1
DA:1426,1
DA:1428,1
DA:1429,2
DA:1430,2
DA:1431,2
DA:1432,2
DA:1433,2
DA:1434,2
DA:1435,2
DA:1436,2
DA:1437,2
DA:1440,0
DA:1441,0
DA:1444,0
DA:1445,0
DA:1446,0
DA:1447,0
DA:1448,0
DA:1449,0
DA:1450,0
DA:1451,0
DA:1452,0
DA:1453,0
DA:1454,0
DA:1457,7
DA:1460,8
DA:1461,5
DA:1462,5
DA:1464,5
DA:1465,5
DA:1466,5
DA:1467,5
DA:1469,6
DA:1470,1
DA:1471,1
DA:1472,0
DA:1473,0
DA:1474,0
DA:1475,0
DA:1479,5
DA:1480,3
DA:1481,3
DA:1482,3
DA:1483,3
DA:1484,3
DA:1485,3
DA:1486,3
DA:1488,1
DA:1489,1
DA:1491,1
DA:1492,1
DA:1493,1
DA:1494,1
DA:1495,1
DA:1496,1
DA:1497,1
DA:1498,1
DA:1500,3
DA:1503,8
DA:1504,1
DA:1505,1
DA:1507,1
DA:1509,1
DA:1510,1
DA:1511,0
DA:1512,0
DA:1513,0
DA:1514,0
DA:1515,0
DA:1516,0
DA:1517,0
DA:1518,0
DA:1519,1
DA:1520,0
DA:1521,1
DA:1524,0
DA:1525,0
DA:1528,0
DA:1529,0
DA:1530,0
DA:1531,0
DA:1532,0
DA:1533,0
DA:1534,0
DA:1535,0
DA:1536,0
DA:1537,0
DA:1538,0
DA:1541,7
DA:1544,8
DA:1545,0
DA:1546,0
DA:1548,0
DA:1550,0
DA:1551,0
DA:1552,0
DA:1553,0
DA:1554,0
DA:1555,0
DA:1556,0
DA:1557,0
DA:1558,0
DA:1559,0
DA:1560,0
DA:1561,0
DA:1562,0
DA:1563,0
DA:1564,0
DA:1567,0
DA:1568,0
DA:1571,0
DA:1572,0
DA:1573,0
DA:1574,0
DA:1575,0
DA:1576,0
DA:1577,0
DA:1578,0
DA:1579,0
DA:1580,0
DA:1581,0
DA:1582,0
DA:1583,0
DA:1586,8
DA:1589,8
DA:1590,1
DA:1591,1
DA:1592,7
DA:1595,8
DA:1596,1
DA:1597,1
DA:1598,1
DA:1599,7
DA:1600,7
DA:1601,7
DA:1602,7
DA:1604,8
DA:1605,8
DA:1606,8
DA:1608,8
DA:1609,8
BRF:0
BRH:0
LF:1019
LH:548
end_of_record
SF:/home/noah/src/batuta/src/numpy_converter.rs
FN:68,_RNvMNtCs2Yt0WxJROpx_6batuta15numpy_converterNtB2_7NumPyOp10complexity
FN:192,_RNvMs0_NtCs2Yt0WxJROpx_6batuta15numpy_converterNtB5_14NumPyConverter13available_ops
FN:197,_RNvMs0_NtCs2Yt0WxJROpx_6batuta15numpy_converterNtB5_14NumPyConverter17conversion_report
FN:187,_RNvMs0_NtCs2Yt0WxJROpx_6batuta15numpy_converterNtB5_14NumPyConverter17recommend_backend
FN:115,_RNvMs0_NtCs2Yt0WxJROpx_6batuta15numpy_converterNtB5_14NumPyConverter3new
FN:182,_RNvMs0_NtCs2Yt0WxJROpx_6batuta15numpy_converterNtB5_14NumPyConverter7convert
FN:108,_RNvXs_NtCs2Yt0WxJROpx_6batuta15numpy_converterNtB4_14NumPyConverterNtNtCs6RpC691fUBl_4core7default7Default7default
FN:294,_RNvNtNtCsjH0PaGjVXp8_6batuta15numpy_converter5testss_13test_op_clone
FN:288,_RNvNtNtCsjH0PaGjVXp8_6batuta15numpy_converter5testss_16test_op_equality
FN:462,_RNvNtNtCsjH0PaGjVXp8_6batuta15numpy_converter5testss_18test_available_ops
FN:230,_RNvNtNtCsjH0PaGjVXp8_6batuta15numpy_converter5testss_19test_add_conversion
FN:453,_RNvNtNtCsjH0PaGjVXp8_6batuta15numpy_converter5testss_19test_dot_conversion
FN:444,_RNvNtNtCsjH0PaGjVXp8_6batuta15numpy_converter5testss_19test_sum_conversion
FN:360,_RNvNtNtCsjH0PaGjVXp8_6batuta15numpy_converter5testss_20test_trueno_op_clone
FN:414,_RNvNtNtCsjH0PaGjVXp8_6batuta15numpy_converter5testss_21test_array_conversion
FN:255,_RNvNtNtCsjH0PaGjVXp8_6batuta15numpy_converter5testss_22test_conversion_report
FN:378,_RNvNtNtCsjH0PaGjVXp8_6batuta15numpy_converter5testss_22test_converter_default
FN:301,_RNvNtNtCsjH0PaGjVXp8_6batuta15numpy_converter5testss_23test_complexity_low_ops
FN:217,_RNvNtNtCsjH0PaGjVXp8_6batuta15numpy_converter5testss_23test_converter_creation
FN:268,_RNvNtNtCsjH0PaGjVXp8_6batuta15numpy_converter5testss_24test_all_numpy_ops_exist
FN:332,_RNvNtNtCsjH0PaGjVXp8_6batuta15numpy_converter5testss_24test_complexity_high_ops
FN:403,_RNvNtNtCsjH0PaGjVXp8_6batuta15numpy_converter5testss_24test_convert_unmapped_op
FN:435,_RNvNtNtCsjH0PaGjVXp8_6batuta15numpy_converter5testss_24test_multiply_conversion
FN:425,_RNvNtNtCsjH0PaGjVXp8_6batuta15numpy_converter5testss_24test_subtract_conversion
FN:223,_RNvNtNtCsjH0PaGjVXp8_6batuta15numpy_converter5testss_25test_operation_complexity
FN:318,_RNvNtNtCsjH0PaGjVXp8_6batuta15numpy_converter5testss_26test_complexity_medium_ops
FN:238,_RNvNtNtCsjH0PaGjVXp8_6batuta15numpy_converter5testss_27test_backend_recommendation
FN:384,_RNvNtNtCsjH0PaGjVXp8_6batuta15numpy_converter5testss_27test_convert_all_mapped_ops
FN:551,_RNvNtNtCsjH0PaGjVXp8_6batuta15numpy_converter5testss_27test_imports_are_valid_rust
FN:347,_RNvNtNtCsjH0PaGjVXp8_6batuta15numpy_converter5testss_27test_trueno_op_construction
FN:591,_RNvNtNtCsjH0PaGjVXp8_6batuta15numpy_converter5testss_28test_complexity_matches_enum
FN:539,_RNvNtNtCsjH0PaGjVXp8_6batuta15numpy_converter5testss_30test_all_conversions_not_empty
FN:565,_RNvNtNtCsjH0PaGjVXp8_6batuta15numpy_converter5testss_30test_all_ops_use_vector_import
FN:517,_RNvNtNtCsjH0PaGjVXp8_6batuta15numpy_converter5testss_32test_conversion_report_structure
FN:577,_RNvNtNtCsjH0PaGjVXp8_6batuta15numpy_converter5testss_33test_element_wise_ops_have_unwrap
FN:530,_RNvNtNtCsjH0PaGjVXp8_6batuta15numpy_converter5testss_34test_conversion_report_has_all_ops
FN:508,_RNvNtNtCsjH0PaGjVXp8_6batuta15numpy_converter5testss_34test_recommend_backend_dot_product
FN:499,_RNvNtNtCsjH0PaGjVXp8_6batuta15numpy_converter5testss_38test_recommend_backend_reduction_large
FN:490,_RNvNtNtCsjH0PaGjVXp8_6batuta15numpy_converter5testss_39test_recommend_backend_reduction_medium
FN:481,_RNvNtNtCsjH0PaGjVXp8_6batuta15numpy_converter5testss_41test_recommend_backend_element_wise_large
FN:472,_RNvNtNtCsjH0PaGjVXp8_6batuta15numpy_converter5testss_41test_recommend_backend_element_wise_small
FN:234,_RNCNvNtNtCsjH0PaGjVXp8_6batuta15numpy_converter5testss_19test_add_conversion0B7_
FN:420,_RNCNvNtNtCsjH0PaGjVXp8_6batuta15numpy_converter5testss_21test_array_conversion0B7_
FN:440,_RNCNvNtNtCsjH0PaGjVXp8_6batuta15numpy_converter5testss_24test_multiply_conversion0B7_
FN:430,_RNCNvNtNtCsjH0PaGjVXp8_6batuta15numpy_converter5testss_24test_subtract_conversion0B7_
FN:570,_RNCNvNtNtCsjH0PaGjVXp8_6batuta15numpy_converter5testss_30test_all_ops_use_vector_import0B7_
FN:68,_RNvMNtCsjH0PaGjVXp8_6batuta15numpy_converterNtB2_7NumPyOp10complexity
FN:192,_RNvMs0_NtCsjH0PaGjVXp8_6batuta15numpy_converterNtB5_14NumPyConverter13available_ops
FN:197,_RNvMs0_NtCsjH0PaGjVXp8_6batuta15numpy_converterNtB5_14NumPyConverter17conversion_report
FN:187,_RNvMs0_NtCsjH0PaGjVXp8_6batuta15numpy_converterNtB5_14NumPyConverter17recommend_backend
FN:115,_RNvMs0_NtCsjH0PaGjVXp8_6batuta15numpy_converterNtB5_14NumPyConverter3new
FN:182,_RNvMs0_NtCsjH0PaGjVXp8_6batuta15numpy_converterNtB5_14NumPyConverter7convert
FN:108,_RNvXs_NtCsjH0PaGjVXp8_6batuta15numpy_converterNtB4_14NumPyConverterNtNtCs6RpC691fUBl_4core7default7Default7default
FN:294,_RNvNtNtCshEp7d2sUZm6_6batuta15numpy_converter5testss_13test_op_clone
FN:288,_RNvNtNtCshEp7d2sUZm6_6batuta15numpy_converter5testss_16test_op_equality
FN:462,_RNvNtNtCshEp7d2sUZm6_6batuta15numpy_converter5testss_18test_available_ops
FN:230,_RNvNtNtCshEp7d2sUZm6_6batuta15numpy_converter5testss_19test_add_conversion
FN:453,_RNvNtNtCshEp7d2sUZm6_6batuta15numpy_converter5testss_19test_dot_conversion
FN:444,_RNvNtNtCshEp7d2sUZm6_6batuta15numpy_converter5testss_19test_sum_conversion
FN:360,_RNvNtNtCshEp7d2sUZm6_6batuta15numpy_converter5testss_20test_trueno_op_clone
FN:414,_RNvNtNtCshEp7d2sUZm6_6batuta15numpy_converter5testss_21test_array_conversion
FN:255,_RNvNtNtCshEp7d2sUZm6_6batuta15numpy_converter5testss_22test_conversion_report
FN:378,_RNvNtNtCshEp7d2sUZm6_6batuta15numpy_converter5testss_22test_converter_default
FN:301,_RNvNtNtCshEp7d2sUZm6_6batuta15numpy_converter5testss_23test_complexity_low_ops
FN:217,_RNvNtNtCshEp7d2sUZm6_6batuta15numpy_converter5testss_23test_converter_creation
FN:268,_RNvNtNtCshEp7d2sUZm6_6batuta15numpy_converter5testss_24test_all_numpy_ops_exist
FN:332,_RNvNtNtCshEp7d2sUZm6_6batuta15numpy_converter5testss_24test_complexity_high_ops
FN:403,_RNvNtNtCshEp7d2sUZm6_6batuta15numpy_converter5testss_24test_convert_unmapped_op
FN:435,_RNvNtNtCshEp7d2sUZm6_6batuta15numpy_converter5testss_24test_multiply_conversion
FN:425,_RNvNtNtCshEp7d2sUZm6_6batuta15numpy_converter5testss_24test_subtract_conversion
FN:223,_RNvNtNtCshEp7d2sUZm6_6batuta15numpy_converter5testss_25test_operation_complexity
FN:318,_RNvNtNtCshEp7d2sUZm6_6batuta15numpy_converter5testss_26test_complexity_medium_ops
FN:238,_RNvNtNtCshEp7d2sUZm6_6batuta15numpy_converter5testss_27test_backend_recommendation
FN:384,_RNvNtNtCshEp7d2sUZm6_6batuta15numpy_converter5testss_27test_convert_all_mapped_ops
FN:551,_RNvNtNtCshEp7d2sUZm6_6batuta15numpy_converter5testss_27test_imports_are_valid_rust
FN:347,_RNvNtNtCshEp7d2sUZm6_6batuta15numpy_converter5testss_27test_trueno_op_construction
FN:591,_RNvNtNtCshEp7d2sUZm6_6batuta15numpy_converter5testss_28test_complexity_matches_enum
FN:539,_RNvNtNtCshEp7d2sUZm6_6batuta15numpy_converter5testss_30test_all_conversions_not_empty
FN:565,_RNvNtNtCshEp7d2sUZm6_6batuta15numpy_converter5testss_30test_all_ops_use_vector_import
FN:517,_RNvNtNtCshEp7d2sUZm6_6batuta15numpy_converter5testss_32test_conversion_report_structure
FN:577,_RNvNtNtCshEp7d2sUZm6_6batuta15numpy_converter5testss_33test_element_wise_ops_have_unwrap
FN:530,_RNvNtNtCshEp7d2sUZm6_6batuta15numpy_converter5testss_34test_conversion_report_has_all_ops
FN:508,_RNvNtNtCshEp7d2sUZm6_6batuta15numpy_converter5testss_34test_recommend_backend_dot_product
FN:499,_RNvNtNtCshEp7d2sUZm6_6batuta15numpy_converter5testss_38test_recommend_backend_reduction_large
FN:490,_RNvNtNtCshEp7d2sUZm6_6batuta15numpy_converter5testss_39test_recommend_backend_reduction_medium
FN:481,_RNvNtNtCshEp7d2sUZm6_6batuta15numpy_converter5testss_41test_recommend_backend_element_wise_large
FN:472,_RNvNtNtCshEp7d2sUZm6_6batuta15numpy_converter5testss_41test_recommend_backend_element_wise_small
FN:68,_RNvMNtCshEp7d2sUZm6_6batuta15numpy_converterNtB2_7NumPyOp10complexity
FN:192,_RNvMs0_NtCshEp7d2sUZm6_6batuta15numpy_converterNtB5_14NumPyConverter13available_ops
FN:197,_RNvMs0_NtCshEp7d2sUZm6_6batuta15numpy_converterNtB5_14NumPyConverter17conversion_report
FN:187,_RNvMs0_NtCshEp7d2sUZm6_6batuta15numpy_converterNtB5_14NumPyConverter17recommend_backend
FN:115,_RNvMs0_NtCshEp7d2sUZm6_6batuta15numpy_converterNtB5_14NumPyConverter3new
FN:182,_RNvMs0_NtCshEp7d2sUZm6_6batuta15numpy_converterNtB5_14NumPyConverter7convert
FN:108,_RNvXs_NtCshEp7d2sUZm6_6batuta15numpy_converterNtB4_14NumPyConverterNtNtCs6RpC691fUBl_4core7default7Default7default
FN:234,_RNCNvNtNtCshEp7d2sUZm6_6batuta15numpy_converter5testss_19test_add_conversion0B7_
FN:420,_RNCNvNtNtCshEp7d2sUZm6_6batuta15numpy_converter5testss_21test_array_conversion0B7_
FN:440,_RNCNvNtNtCshEp7d2sUZm6_6batuta15numpy_converter5testss_24test_multiply_conversion0B7_
FN:430,_RNCNvNtNtCshEp7d2sUZm6_6batuta15numpy_converter5testss_24test_subtract_conversion0B7_
FN:570,_RNCNvNtNtCshEp7d2sUZm6_6batuta15numpy_converter5testss_30test_all_ops_use_vector_import0B7_
FN:68,_RNvMNtCsc3xvWSUKV5Z_6batuta15numpy_converterNtB2_7NumPyOp10complexity
FN:192,_RNvMs0_NtCsc3xvWSUKV5Z_6batuta15numpy_converterNtB5_14NumPyConverter13available_ops
FN:197,_RNvMs0_NtCsc3xvWSUKV5Z_6batuta15numpy_converterNtB5_14NumPyConverter17conversion_report
FN:187,_RNvMs0_NtCsc3xvWSUKV5Z_6batuta15numpy_converterNtB5_14NumPyConverter17recommend_backend
FN:115,_RNvMs0_NtCsc3xvWSUKV5Z_6batuta15numpy_converterNtB5_14NumPyConverter3new
FN:182,_RNvMs0_NtCsc3xvWSUKV5Z_6batuta15numpy_converterNtB5_14NumPyConverter7convert
FN:108,_RNvXs_NtCsc3xvWSUKV5Z_6batuta15numpy_converterNtB4_14NumPyConverterNtNtCs6RpC691fUBl_4core7default7Default7default
FNDA:0,_RNvMNtCs2Yt0WxJROpx_6batuta15numpy_converterNtB2_7NumPyOp10complexity
FNDA:0,_RNvMs0_NtCs2Yt0WxJROpx_6batuta15numpy_converterNtB5_14NumPyConverter13available_ops
FNDA:0,_RNvMs0_NtCs2Yt0WxJROpx_6batuta15numpy_converterNtB5_14NumPyConverter17conversion_report
FNDA:0,_RNvMs0_NtCs2Yt0WxJROpx_6batuta15numpy_converterNtB5_14NumPyConverter17recommend_backend
FNDA:0,_RNvMs0_NtCs2Yt0WxJROpx_6batuta15numpy_converterNtB5_14NumPyConverter3new
FNDA:0,_RNvMs0_NtCs2Yt0WxJROpx_6batuta15numpy_converterNtB5_14NumPyConverter7convert
FNDA:0,_RNvXs_NtCs2Yt0WxJROpx_6batuta15numpy_converterNtB4_14NumPyConverterNtNtCs6RpC691fUBl_4core7default7Default7default
FNDA:1,_RNvNtNtCsjH0PaGjVXp8_6batuta15numpy_converter5testss_13test_op_clone
FNDA:1,_RNvNtNtCsjH0PaGjVXp8_6batuta15numpy_converter5testss_16test_op_equality
FNDA:1,_RNvNtNtCsjH0PaGjVXp8_6batuta15numpy_converter5testss_18test_available_ops
FNDA:1,_RNvNtNtCsjH0PaGjVXp8_6batuta15numpy_converter5testss_19test_add_conversion
FNDA:1,_RNvNtNtCsjH0PaGjVXp8_6batuta15numpy_converter5testss_19test_dot_conversion
FNDA:1,_RNvNtNtCsjH0PaGjVXp8_6batuta15numpy_converter5testss_19test_sum_conversion
FNDA:1,_RNvNtNtCsjH0PaGjVXp8_6batuta15numpy_converter5testss_20test_trueno_op_clone
FNDA:1,_RNvNtNtCsjH0PaGjVXp8_6batuta15numpy_converter5testss_21test_array_conversion
FNDA:1,_RNvNtNtCsjH0PaGjVXp8_6batuta15numpy_converter5testss_22test_conversion_report
FNDA:1,_RNvNtNtCsjH0PaGjVXp8_6batuta15numpy_converter5testss_22test_converter_default
FNDA:1,_RNvNtNtCsjH0PaGjVXp8_6batuta15numpy_converter5testss_23test_complexity_low_ops
FNDA:1,_RNvNtNtCsjH0PaGjVXp8_6batuta15numpy_converter5testss_23test_converter_creation
FNDA:1,_RNvNtNtCsjH0PaGjVXp8_6batuta15numpy_converter5testss_24test_all_numpy_ops_exist
FNDA:1,_RNvNtNtCsjH0PaGjVXp8_6batuta15numpy_converter5testss_24test_complexity_high_ops
FNDA:1,_RNvNtNtCsjH0PaGjVXp8_6batuta15numpy_converter5testss_24test_convert_unmapped_op
FNDA:1,_RNvNtNtCsjH0PaGjVXp8_6batuta15numpy_converter5testss_24test_multiply_conversion
FNDA:1,_RNvNtNtCsjH0PaGjVXp8_6batuta15numpy_converter5testss_24test_subtract_conversion
FNDA:1,_RNvNtNtCsjH0PaGjVXp8_6batuta15numpy_converter5testss_25test_operation_complexity
FNDA:1,_RNvNtNtCsjH0PaGjVXp8_6batuta15numpy_converter5testss_26test_complexity_medium_ops
FNDA:1,_RNvNtNtCsjH0PaGjVXp8_6batuta15numpy_converter5testss_27test_backend_recommendation
FNDA:1,_RNvNtNtCsjH0PaGjVXp8_6batuta15numpy_converter5testss_27test_convert_all_mapped_ops
FNDA:1,_RNvNtNtCsjH0PaGjVXp8_6batuta15numpy_converter5testss_27test_imports_are_valid_rust
FNDA:1,_RNvNtNtCsjH0PaGjVXp8_6batuta15numpy_converter5testss_27test_trueno_op_construction
FNDA:1,_RNvNtNtCsjH0PaGjVXp8_6batuta15numpy_converter5testss_28test_complexity_matches_enum
FNDA:1,_RNvNtNtCsjH0PaGjVXp8_6batuta15numpy_converter5testss_30test_all_conversions_not_empty
FNDA:1,_RNvNtNtCsjH0PaGjVXp8_6batuta15numpy_converter5testss_30test_all_ops_use_vector_import
FNDA:1,_RNvNtNtCsjH0PaGjVXp8_6batuta15numpy_converter5testss_32test_conversion_report_structure
FNDA:1,_RNvNtNtCsjH0PaGjVXp8_6batuta15numpy_converter5testss_33test_element_wise_ops_have_unwrap
FNDA:1,_RNvNtNtCsjH0PaGjVXp8_6batuta15numpy_converter5testss_34test_conversion_report_has_all_ops
FNDA:1,_RNvNtNtCsjH0PaGjVXp8_6batuta15numpy_converter5testss_34test_recommend_backend_dot_product
FNDA:1,_RNvNtNtCsjH0PaGjVXp8_6batuta15numpy_converter5testss_38test_recommend_backend_reduction_large
FNDA:1,_RNvNtNtCsjH0PaGjVXp8_6batuta15numpy_converter5testss_39test_recommend_backend_reduction_medium
FNDA:1,_RNvNtNtCsjH0PaGjVXp8_6batuta15numpy_converter5testss_41test_recommend_backend_element_wise_large
FNDA:1,_RNvNtNtCsjH0PaGjVXp8_6batuta15numpy_converter5testss_41test_recommend_backend_element_wise_small
FNDA:1,_RNCNvNtNtCsjH0PaGjVXp8_6batuta15numpy_converter5testss_19test_add_conversion0B7_
FNDA:1,_RNCNvNtNtCsjH0PaGjVXp8_6batuta15numpy_converter5testss_21test_array_conversion0B7_
FNDA:1,_RNCNvNtNtCsjH0PaGjVXp8_6batuta15numpy_converter5testss_24test_multiply_conversion0B7_
FNDA:1,_RNCNvNtNtCsjH0PaGjVXp8_6batuta15numpy_converter5testss_24test_subtract_conversion0B7_
FNDA:6,_RNCNvNtNtCsjH0PaGjVXp8_6batuta15numpy_converter5testss_30test_all_ops_use_vector_import0B7_
FNDA:26,_RNvMNtCsjH0PaGjVXp8_6batuta15numpy_converterNtB2_7NumPyOp10complexity
FNDA:6,_RNvMs0_NtCsjH0PaGjVXp8_6batuta15numpy_converterNtB5_14NumPyConverter13available_ops
FNDA:3,_RNvMs0_NtCsjH0PaGjVXp8_6batuta15numpy_converterNtB5_14NumPyConverter17conversion_report
FNDA:8,_RNvMs0_NtCsjH0PaGjVXp8_6batuta15numpy_converterNtB5_14NumPyConverter17recommend_backend
FNDA:30,_RNvMs0_NtCsjH0PaGjVXp8_6batuta15numpy_converterNtB5_14NumPyConverter3new
FNDA:37,_RNvMs0_NtCsjH0PaGjVXp8_6batuta15numpy_converterNtB5_14NumPyConverter7convert
FNDA:1,_RNvXs_NtCsjH0PaGjVXp8_6batuta15numpy_converterNtB4_14NumPyConverterNtNtCs6RpC691fUBl_4core7default7Default7default
FNDA:1,_RNvNtNtCshEp7d2sUZm6_6batuta15numpy_converter5testss_13test_op_clone
FNDA:1,_RNvNtNtCshEp7d2sUZm6_6batuta15numpy_converter5testss_16test_op_equality
FNDA:1,_RNvNtNtCshEp7d2sUZm6_6batuta15numpy_converter5testss_18test_available_ops
FNDA:1,_RNvNtNtCshEp7d2sUZm6_6batuta15numpy_converter5testss_19test_add_conversion
FNDA:1,_RNvNtNtCshEp7d2sUZm6_6batuta15numpy_converter5testss_19test_dot_conversion
FNDA:1,_RNvNtNtCshEp7d2sUZm6_6batuta15numpy_converter5testss_19test_sum_conversion
FNDA:1,_RNvNtNtCshEp7d2sUZm6_6batuta15numpy_converter5testss_20test_trueno_op_clone
FNDA:1,_RNvNtNtCshEp7d2sUZm6_6batuta15numpy_converter5testss_21test_array_conversion
FNDA:1,_RNvNtNtCshEp7d2sUZm6_6batuta15numpy_converter5testss_22test_conversion_report
FNDA:1,_RNvNtNtCshEp7d2sUZm6_6batuta15numpy_converter5testss_22test_converter_default
FNDA:1,_RNvNtNtCshEp7d2sUZm6_6batuta15numpy_converter5testss_23test_complexity_low_ops
FNDA:1,_RNvNtNtCshEp7d2sUZm6_6batuta15numpy_converter5testss_23test_converter_creation
FNDA:1,_RNvNtNtCshEp7d2sUZm6_6batuta15numpy_converter5testss_24test_all_numpy_ops_exist
FNDA:1,_RNvNtNtCshEp7d2sUZm6_6batuta15numpy_converter5testss_24test_complexity_high_ops
FNDA:1,_RNvNtNtCshEp7d2sUZm6_6batuta15numpy_converter5testss_24test_convert_unmapped_op
FNDA:1,_RNvNtNtCshEp7d2sUZm6_6batuta15numpy_converter5testss_24test_multiply_conversion
FNDA:1,_RNvNtNtCshEp7d2sUZm6_6batuta15numpy_converter5testss_24test_subtract_conversion
FNDA:1,_RNvNtNtCshEp7d2sUZm6_6batuta15numpy_converter5testss_25test_operation_complexity
FNDA:1,_RNvNtNtCshEp7d2sUZm6_6batuta15numpy_converter5testss_26test_complexity_medium_ops
FNDA:1,_RNvNtNtCshEp7d2sUZm6_6batuta15numpy_converter5testss_27test_backend_recommendation
FNDA:1,_RNvNtNtCshEp7d2sUZm6_6batuta15numpy_converter5testss_27test_convert_all_mapped_ops
FNDA:1,_RNvNtNtCshEp7d2sUZm6_6batuta15numpy_converter5testss_27test_imports_are_valid_rust
FNDA:1,_RNvNtNtCshEp7d2sUZm6_6batuta15numpy_converter5testss_27test_trueno_op_construction
FNDA:1,_RNvNtNtCshEp7d2sUZm6_6batuta15numpy_converter5testss_28test_complexity_matches_enum
FNDA:1,_RNvNtNtCshEp7d2sUZm6_6batuta15numpy_converter5testss_30test_all_conversions_not_empty
FNDA:1,_RNvNtNtCshEp7d2sUZm6_6batuta15numpy_converter5testss_30test_all_ops_use_vector_import
FNDA:1,_RNvNtNtCshEp7d2sUZm6_6batuta15numpy_converter5testss_32test_conversion_report_structure
FNDA:1,_RNvNtNtCshEp7d2sUZm6_6batuta15numpy_converter5testss_33test_element_wise_ops_have_unwrap
FNDA:1,_RNvNtNtCshEp7d2sUZm6_6batuta15numpy_converter5testss_34test_conversion_report_has_all_ops
FNDA:1,_RNvNtNtCshEp7d2sUZm6_6batuta15numpy_converter5testss_34test_recommend_backend_dot_product
FNDA:1,_RNvNtNtCshEp7d2sUZm6_6batuta15numpy_converter5testss_38test_recommend_backend_reduction_large
FNDA:1,_RNvNtNtCshEp7d2sUZm6_6batuta15numpy_converter5testss_39test_recommend_backend_reduction_medium
FNDA:1,_RNvNtNtCshEp7d2sUZm6_6batuta15numpy_converter5testss_41test_recommend_backend_element_wise_large
FNDA:1,_RNvNtNtCshEp7d2sUZm6_6batuta15numpy_converter5testss_41test_recommend_backend_element_wise_small
FNDA:26,_RNvMNtCshEp7d2sUZm6_6batuta15numpy_converterNtB2_7NumPyOp10complexity
FNDA:6,_RNvMs0_NtCshEp7d2sUZm6_6batuta15numpy_converterNtB5_14NumPyConverter13available_ops
FNDA:3,_RNvMs0_NtCshEp7d2sUZm6_6batuta15numpy_converterNtB5_14NumPyConverter17conversion_report
FNDA:8,_RNvMs0_NtCshEp7d2sUZm6_6batuta15numpy_converterNtB5_14NumPyConverter17recommend_backend
FNDA:30,_RNvMs0_NtCshEp7d2sUZm6_6batuta15numpy_converterNtB5_14NumPyConverter3new
FNDA:37,_RNvMs0_NtCshEp7d2sUZm6_6batuta15numpy_converterNtB5_14NumPyConverter7convert
FNDA:1,_RNvXs_NtCshEp7d2sUZm6_6batuta15numpy_converterNtB4_14NumPyConverterNtNtCs6RpC691fUBl_4core7default7Default7default
FNDA:1,_RNCNvNtNtCshEp7d2sUZm6_6batuta15numpy_converter5testss_19test_add_conversion0B7_
FNDA:1,_RNCNvNtNtCshEp7d2sUZm6_6batuta15numpy_converter5testss_21test_array_conversion0B7_
FNDA:1,_RNCNvNtNtCshEp7d2sUZm6_6batuta15numpy_converter5testss_24test_multiply_conversion0B7_
FNDA:1,_RNCNvNtNtCshEp7d2sUZm6_6batuta15numpy_converter5testss_24test_subtract_conversion0B7_
FNDA:6,_RNCNvNtNtCshEp7d2sUZm6_6batuta15numpy_converter5testss_30test_all_ops_use_vector_import0B7_
FNDA:0,_RNvMNtCsc3xvWSUKV5Z_6batuta15numpy_converterNtB2_7NumPyOp10complexity
FNDA:0,_RNvMs0_NtCsc3xvWSUKV5Z_6batuta15numpy_converterNtB5_14NumPyConverter13available_ops
FNDA:0,_RNvMs0_NtCsc3xvWSUKV5Z_6batuta15numpy_converterNtB5_14NumPyConverter17conversion_report
FNDA:0,_RNvMs0_NtCsc3xvWSUKV5Z_6batuta15numpy_converterNtB5_14NumPyConverter17recommend_backend
FNDA:0,_RNvMs0_NtCsc3xvWSUKV5Z_6batuta15numpy_converterNtB5_14NumPyConverter3new
FNDA:0,_RNvMs0_NtCsc3xvWSUKV5Z_6batuta15numpy_converterNtB5_14NumPyConverter7convert
FNDA:0,_RNvXs_NtCsc3xvWSUKV5Z_6batuta15numpy_converterNtB4_14NumPyConverterNtNtCs6RpC691fUBl_4core7default7Default7default
FNF:46
FNH:46
DA:68,52
DA:71,52
DA:74,20
DA:78,16
DA:81,10
DA:83,6
DA:85,52
DA:108,2
DA:109,2
DA:110,2
DA:115,60
DA:116,60
DA:119,60
DA:120,60
DA:121,60
DA:122,60
DA:123,60
DA:124,60
DA:125,60
DA:129,60
DA:130,60
DA:131,60
DA:132,60
DA:133,60
DA:134,60
DA:135,60
DA:138,60
DA:139,60
DA:140,60
DA:141,60
DA:142,60
DA:143,60
DA:144,60
DA:147,60
DA:148,60
DA:149,60
DA:150,60
DA:151,60
DA:152,60
DA:153,60
DA:157,60
DA:158,60
DA:159,60
DA:160,60
DA:161,60
DA:162,60
DA:163,60
DA:166,60
DA:167,60
DA:168,60
DA:169,60
DA:170,60
DA:171,60
DA:172,60
DA:175,60
DA:176,60
DA:177,60
DA:178,60
DA:179,60
DA:182,74
DA:183,74
DA:184,74
DA:187,16
DA:188,16
DA:189,16
DA:192,12
DA:193,12
DA:194,12
DA:197,6
DA:198,6
DA:199,6
DA:201,42
DA:202,36
DA:203,36
DA:204,36
DA:205,36
DA:206,36
DA:208,6
DA:209,6
DA:217,2
DA:218,2
DA:219,2
DA:220,2
DA:223,2
DA:224,2
DA:225,2
DA:226,2
DA:227,2
DA:230,2
DA:231,2
DA:232,2
DA:233,2
DA:234,2
DA:235,2
DA:238,2
DA:239,2
DA:242,2
DA:243,2
DA:246,2
DA:247,2
DA:250,2
DA:251,2
DA:252,2
DA:255,2
DA:256,2
DA:257,2
DA:258,2
DA:259,2
DA:260,2
DA:261,2
DA:268,2
DA:270,2
DA:271,2
DA:272,2
DA:273,2
DA:274,2
DA:275,2
DA:276,2
DA:277,2
DA:278,2
DA:279,2
DA:280,2
DA:281,2
DA:282,2
DA:284,2
DA:285,2
DA:288,2
DA:289,2
DA:290,2
DA:291,2
DA:294,2
DA:295,2
DA:296,2
DA:297,2
DA:298,2
DA:301,2
DA:302,2
DA:303,2
DA:304,2
DA:305,2
DA:306,2
DA:307,2
DA:308,2
DA:309,2
DA:312,16
DA:313,14
DA:315,2
DA:318,2
DA:319,2
DA:320,2
DA:321,2
DA:322,2
DA:323,2
DA:326,10
DA:327,8
DA:329,2
DA:332,2
DA:333,2
DA:334,2
DA:337,4
DA:338,2
DA:340,2
DA:347,2
DA:348,2
DA:349,2
DA:350,2
DA:351,2
DA:352,2
DA:354,2
DA:355,2
DA:356,2
DA:357,2
DA:360,2
DA:361,2
DA:362,2
DA:363,2
DA:364,2
DA:365,2
DA:367,2
DA:368,2
DA:369,2
DA:370,2
DA:371,2
DA:378,2
DA:379,2
DA:380,2
DA:381,2
DA:384,2
DA:385,2
DA:388,2
DA:389,2
DA:390,2
DA:391,2
DA:392,2
DA:393,2
DA:394,2
DA:397,14
DA:398,12
DA:400,2
DA:403,2
DA:404,2
DA:408,2
DA:410,2
DA:411,2
DA:414,2
DA:415,2
DA:416,2
DA:418,2
DA:419,2
DA:420,2
DA:421,2
DA:422,2
DA:425,2
DA:426,2
DA:427,2
DA:429,2
DA:430,2
DA:431,2
DA:432,2
DA:435,2
DA:436,2
DA:437,2
DA:439,2
DA:440,2
DA:441,2
DA:444,2
DA:445,2
DA:446,2
DA:448,2
DA:449,2
DA:450,2
DA:453,2
DA:454,2
DA:455,2
DA:457,2
DA:458,2
DA:459,2
DA:462,2
DA:463,2
DA:464,2
DA:466,2
DA:468,2
DA:469,2
DA:472,2
DA:473,2
DA:476,2
DA:477,2
DA:478,2
DA:481,2
DA:482,2
DA:485,2
DA:486,2
DA:487,2
DA:490,2
DA:491,2
DA:494,2
DA:495,2
DA:496,2
DA:499,2
DA:500,2
DA:503,2
DA:504,2
DA:505,2
DA:508,2
DA:509,2
DA:512,2
DA:513,2
DA:514,2
DA:517,2
DA:518,2
DA:519,2
DA:522,2
DA:523,2
DA:524,2
DA:525,2
DA:526,2
DA:527,2
DA:530,2
DA:531,2
DA:532,2
DA:535,2
DA:536,2
DA:539,2
DA:540,2
DA:542,12
DA:543,12
DA:544,12
DA:545,12
DA:546,0
DA:548,2
DA:551,2
DA:552,2
DA:554,12
DA:555,12
DA:556,24
DA:557,12
DA:558,12
DA:560,0
DA:562,2
DA:565,2
DA:566,2
DA:568,12
DA:569,12
DA:570,12
DA:571,0
DA:572,0
DA:574,2
DA:577,2
DA:578,2
DA:580,2
DA:582,8
DA:583,6
DA:584,6
DA:585,0
DA:586,0
DA:588,2
DA:591,2
DA:592,2
DA:595,2
DA:596,2
DA:597,0
DA:599,2
DA:600,2
DA:601,0
DA:603,2
DA:604,2
DA:605,0
DA:606,2
BRF:0
BRH:0
LF:333
LH:324
end_of_record
SF:/home/noah/src/batuta/src/parf.rs
FN:139,_RNvXNtCs2Yt0WxJROpx_6batuta4parfNtB2_12ParfAnalyzerNtNtCs6RpC691fUBl_4core7default7Default7default
FN:178,_RNCNvMs_NtCs2Yt0WxJROpx_6batuta4parfNtB6_12ParfAnalyzer10index_file0B8_
FN:180,_RNCNvMs_NtCs2Yt0WxJROpx_6batuta4parfNtB6_12ParfAnalyzer10index_files_0B8_
FN:159,_RNCNvMs_NtCs2Yt0WxJROpx_6batuta4parfNtB6_12ParfAnalyzer14index_codebase0B8_
FN:467,_RNCNvMs_NtCs2Yt0WxJROpx_6batuta4parfNtB6_12ParfAnalyzer17extract_type_name0B8_
FN:176,_RNvMs_NtCs2Yt0WxJROpx_6batuta4parfNtB4_12ParfAnalyzer10index_file
FN:242,_RNvMs_NtCs2Yt0WxJROpx_6batuta4parfNtB4_12ParfAnalyzer14add_definition
FN:364,_RNvMs_NtCs2Yt0WxJROpx_6batuta4parfNtB4_12ParfAnalyzer14find_dead_code
FN:155,_RNvMs_NtCs2Yt0WxJROpx_6batuta4parfNtB4_12ParfAnalyzer14index_codebase
FN:287,_RNvMs_NtCs2Yt0WxJROpx_6batuta4parfNtB4_12ParfAnalyzer15detect_patterns
FN:265,_RNvMs_NtCs2Yt0WxJROpx_6batuta4parfNtB4_12ParfAnalyzer15find_references
FN:409,_RNvMs_NtCs2Yt0WxJROpx_6batuta4parfNtB4_12ParfAnalyzer15generate_report
FN:462,_RNvMs_NtCs2Yt0WxJROpx_6batuta4parfNtB4_12ParfAnalyzer17extract_type_name
FN:334,_RNvMs_NtCs2Yt0WxJROpx_6batuta4parfNtB4_12ParfAnalyzer20analyze_dependencies
FN:451,_RNvMs_NtCs2Yt0WxJROpx_6batuta4parfNtB4_12ParfAnalyzer21extract_function_name
FN:486,_RNvMs_NtCs2Yt0WxJROpx_6batuta4parfNtB4_12ParfAnalyzer25extract_python_class_name
FN:475,_RNvMs_NtCs2Yt0WxJROpx_6batuta4parfNtB4_12ParfAnalyzer28extract_python_function_name
FN:146,_RNvMs_NtCs2Yt0WxJROpx_6batuta4parfNtB4_12ParfAnalyzer3new
FN:176,_RNvMs_NtCsjH0PaGjVXp8_6batuta4parfNtB4_12ParfAnalyzer10index_file
FN:242,_RNvMs_NtCsjH0PaGjVXp8_6batuta4parfNtB4_12ParfAnalyzer14add_definition
FN:364,_RNvMs_NtCsjH0PaGjVXp8_6batuta4parfNtB4_12ParfAnalyzer14find_dead_code
FN:155,_RNvMs_NtCsjH0PaGjVXp8_6batuta4parfNtB4_12ParfAnalyzer14index_codebase
FN:287,_RNvMs_NtCsjH0PaGjVXp8_6batuta4parfNtB4_12ParfAnalyzer15detect_patterns
FN:265,_RNvMs_NtCsjH0PaGjVXp8_6batuta4parfNtB4_12ParfAnalyzer15find_references
FN:409,_RNvMs_NtCsjH0PaGjVXp8_6batuta4parfNtB4_12ParfAnalyzer15generate_report
FN:462,_RNvMs_NtCsjH0PaGjVXp8_6batuta4parfNtB4_12ParfAnalyzer17extract_type_name
FN:334,_RNvMs_NtCsjH0PaGjVXp8_6batuta4parfNtB4_12ParfAnalyzer20analyze_dependencies
FN:451,_RNvMs_NtCsjH0PaGjVXp8_6batuta4parfNtB4_12ParfAnalyzer21extract_function_name
FN:486,_RNvMs_NtCsjH0PaGjVXp8_6batuta4parfNtB4_12ParfAnalyzer25extract_python_class_name
FN:475,_RNvMs_NtCsjH0PaGjVXp8_6batuta4parfNtB4_12ParfAnalyzer28extract_python_function_name
FN:146,_RNvMs_NtCsjH0PaGjVXp8_6batuta4parfNtB4_12ParfAnalyzer3new
FN:139,_RNvXNtCsjH0PaGjVXp8_6batuta4parfNtB2_12ParfAnalyzerNtNtCs6RpC691fUBl_4core7default7Default7default
FN:178,_RNCNvMs_NtCsjH0PaGjVXp8_6batuta4parfNtB6_12ParfAnalyzer10index_file0B8_
FN:180,_RNCNvMs_NtCsjH0PaGjVXp8_6batuta4parfNtB6_12ParfAnalyzer10index_files_0B8_
FN:159,_RNCNvMs_NtCsjH0PaGjVXp8_6batuta4parfNtB6_12ParfAnalyzer14index_codebase0B8_
FN:467,_RNCNvMs_NtCsjH0PaGjVXp8_6batuta4parfNtB6_12ParfAnalyzer17extract_type_name0B8_
FN:864,_RNCNvNtNtCsjH0PaGjVXp8_6batuta4parf5testss_20test_find_references0B7_
FN:584,_RNCNvNtNtCsjH0PaGjVXp8_6batuta4parf5testss_22test_pattern_detection0B7_
FN:585,_RNCNvNtNtCsjH0PaGjVXp8_6batuta4parf5testss_22test_pattern_detections_0B7_
FN:894,_RNCNvNtNtCsjH0PaGjVXp8_6batuta4parf5testss_26test_detect_patterns_fixme0B7_
FN:944,_RNCNvNtNtCsjH0PaGjVXp8_6batuta4parf5testss_30test_analyze_dependencies_rust0B7_
FN:1010,_RNCNvNtNtCsjH0PaGjVXp8_6batuta4parf5testss_30test_find_dead_code_skips_main0B7_
FN:911,_RNCNvNtNtCsjH0PaGjVXp8_6batuta4parf5testss_31test_detect_patterns_deprecated0B7_
FN:994,_RNCNvNtNtCsjH0PaGjVXp8_6batuta4parf5testss_31test_find_dead_code_skips_tests0B7_
FN:960,_RNCNvNtNtCsjH0PaGjVXp8_6batuta4parf5testss_32test_analyze_dependencies_python0B7_
FN:928,_RNCNvNtNtCsjH0PaGjVXp8_6batuta4parf5testss_34test_detect_patterns_file_handling0B7_
FN:978,_RNCNvNtNtCsjH0PaGjVXp8_6batuta4parf5testss_40test_find_dead_code_with_unused_function0B7_
FN:559,_RNvNtNtCsjH0PaGjVXp8_6batuta4parf5testss_19test_index_codebase
FN:851,_RNvNtNtCsjH0PaGjVXp8_6batuta4parf5testss_20test_find_references
FN:1016,_RNvNtNtCsjH0PaGjVXp8_6batuta4parf5testss_20test_generate_report
FN:844,_RNvNtNtCsjH0PaGjVXp8_6batuta4parf5testss_21test_default_analyzer
FN:505,_RNvNtNtCsjH0PaGjVXp8_6batuta4parf5testss_22test_analyzer_creation
FN:1050,_RNvNtNtCsjH0PaGjVXp8_6batuta4parf5testss_22test_index_python_file
FN:575,_RNvNtNtCsjH0PaGjVXp8_6batuta4parf5testss_22test_pattern_detection
FN:1065,_RNvNtNtCsjH0PaGjVXp8_6batuta4parf5testss_25test_index_multiple_files
FN:609,_RNvNtNtCsjH0PaGjVXp8_6batuta4parf5testss_25test_symbol_kind_equality
FN:523,_RNvNtNtCsjH0PaGjVXp8_6batuta4parf5testss_25test_type_name_extraction
FN:885,_RNvNtNtCsjH0PaGjVXp8_6batuta4parf5testss_26test_detect_patterns_fixme
FN:664,_RNvNtNtCsjH0PaGjVXp8_6batuta4parf5testss_27test_code_pattern_tech_debt
FN:808,_RNvNtNtCsjH0PaGjVXp8_6batuta4parf5testss_27test_dead_code_construction
FN:823,_RNvNtNtCsjH0PaGjVXp8_6batuta4parf5testss_28test_dead_code_serialization
FN:783,_RNvNtNtCsjH0PaGjVXp8_6batuta4parf5testss_29test_dependency_kind_equality
FN:511,_RNvNtNtCsjH0PaGjVXp8_6batuta4parf5testss_29test_function_name_extraction
FN:595,_RNvNtNtCsjH0PaGjVXp8_6batuta4parf5testss_29test_symbol_kind_all_variants
FN:934,_RNvNtNtCsjH0PaGjVXp8_6batuta4parf5testss_30test_analyze_dependencies_rust
FN:1000,_RNvNtNtCsjH0PaGjVXp8_6batuta4parf5testss_30test_find_dead_code_skips_main
FN:870,_RNvNtNtCsjH0PaGjVXp8_6batuta4parf5testss_30test_find_references_not_found
FN:615,_RNvNtNtCsjH0PaGjVXp8_6batuta4parf5testss_30test_symbol_kind_serialization
FN:738,_RNvNtNtCsjH0PaGjVXp8_6batuta4parf5testss_31test_code_pattern_serialization
FN:900,_RNvNtNtCsjH0PaGjVXp8_6batuta4parf5testss_31test_detect_patterns_deprecated
FN:984,_RNvNtNtCsjH0PaGjVXp8_6batuta4parf5testss_31test_find_dead_code_skips_tests
FN:950,_RNvNtNtCsjH0PaGjVXp8_6batuta4parf5testss_32test_analyze_dependencies_python
FN:678,_RNvNtNtCsjH0PaGjVXp8_6batuta4parf5testss_32test_code_pattern_deprecated_api
FN:722,_RNvNtNtCsjH0PaGjVXp8_6batuta4parf5testss_32test_code_pattern_duplicate_code
FN:692,_RNvNtNtCsjH0PaGjVXp8_6batuta4parf5testss_32test_code_pattern_error_handling
FN:772,_RNvNtNtCsjH0PaGjVXp8_6batuta4parf5testss_33test_dependency_kind_all_variants
FN:759,_RNvNtNtCsjH0PaGjVXp8_6batuta4parf5testss_33test_file_dependency_construction
FN:547,_RNvNtNtCsjH0PaGjVXp8_6batuta4parf5testss_33test_python_class_name_extraction
FN:917,_RNvNtNtCsjH0PaGjVXp8_6batuta4parf5testss_34test_detect_patterns_file_handling
FN:789,_RNvNtNtCsjH0PaGjVXp8_6batuta4parf5testss_34test_file_dependency_serialization
FN:627,_RNvNtNtCsjH0PaGjVXp8_6batuta4parf5testss_34test_symbol_reference_construction
FN:1034,_RNvNtNtCsjH0PaGjVXp8_6batuta4parf5testss_35test_generate_report_with_dead_code
FN:642,_RNvNtNtCsjH0PaGjVXp8_6batuta4parf5testss_35test_symbol_reference_serialization
FN:1093,_RNvNtNtCsjH0PaGjVXp8_6batuta4parf5testss_36test_extract_type_name_with_generics
FN:535,_RNvNtNtCsjH0PaGjVXp8_6batuta4parf5testss_36test_python_function_name_extraction
FN:706,_RNvNtNtCsjH0PaGjVXp8_6batuta4parf5testss_37test_code_pattern_resource_management
FN:1083,_RNvNtNtCsjH0PaGjVXp8_6batuta4parf5testss_37test_extract_function_name_edge_cases
FN:966,_RNvNtNtCsjH0PaGjVXp8_6batuta4parf5testss_40test_find_dead_code_with_unused_function
FN:1105,_RNvNtNtCsjH0PaGjVXp8_6batuta4parf5testss_43test_extract_python_function_name_with_args
FN:1113,_RNvNtNtCsjH0PaGjVXp8_6batuta4parf5testss_47test_extract_python_class_name_with_inheritance
FN:178,_RNCNvMs_NtCshEp7d2sUZm6_6batuta4parfNtB6_12ParfAnalyzer10index_file0B8_
FN:180,_RNCNvMs_NtCshEp7d2sUZm6_6batuta4parfNtB6_12ParfAnalyzer10index_files_0B8_
FN:159,_RNCNvMs_NtCshEp7d2sUZm6_6batuta4parfNtB6_12ParfAnalyzer14index_codebase0B8_
FN:467,_RNCNvMs_NtCshEp7d2sUZm6_6batuta4parfNtB6_12ParfAnalyzer17extract_type_name0B8_
FN:864,_RNCNvNtNtCshEp7d2sUZm6_6batuta4parf5testss_20test_find_references0B7_
FN:584,_RNCNvNtNtCshEp7d2sUZm6_6batuta4parf5testss_22test_pattern_detection0B7_
FN:585,_RNCNvNtNtCshEp7d2sUZm6_6batuta4parf5testss_22test_pattern_detections_0B7_
FN:894,_RNCNvNtNtCshEp7d2sUZm6_6batuta4parf5testss_26test_detect_patterns_fixme0B7_
FN:944,_RNCNvNtNtCshEp7d2sUZm6_6batuta4parf5testss_30test_analyze_dependencies_rust0B7_
FN:1010,_RNCNvNtNtCshEp7d2sUZm6_6batuta4parf5testss_30test_find_dead_code_skips_main0B7_
FN:911,_RNCNvNtNtCshEp7d2sUZm6_6batuta4parf5testss_31test_detect_patterns_deprecated0B7_
FN:994,_RNCNvNtNtCshEp7d2sUZm6_6batuta4parf5testss_31test_find_dead_code_skips_tests0B7_
FN:960,_RNCNvNtNtCshEp7d2sUZm6_6batuta4parf5testss_32test_analyze_dependencies_python0B7_
FN:928,_RNCNvNtNtCshEp7d2sUZm6_6batuta4parf5testss_34test_detect_patterns_file_handling0B7_
FN:978,_RNCNvNtNtCshEp7d2sUZm6_6batuta4parf5testss_40test_find_dead_code_with_unused_function0B7_
FN:559,_RNvNtNtCshEp7d2sUZm6_6batuta4parf5testss_19test_index_codebase
FN:851,_RNvNtNtCshEp7d2sUZm6_6batuta4parf5testss_20test_find_references
FN:1016,_RNvNtNtCshEp7d2sUZm6_6batuta4parf5testss_20test_generate_report
FN:844,_RNvNtNtCshEp7d2sUZm6_6batuta4parf5testss_21test_default_analyzer
FN:505,_RNvNtNtCshEp7d2sUZm6_6batuta4parf5testss_22test_analyzer_creation
FN:1050,_RNvNtNtCshEp7d2sUZm6_6batuta4parf5testss_22test_index_python_file
FN:575,_RNvNtNtCshEp7d2sUZm6_6batuta4parf5testss_22test_pattern_detection
FN:1065,_RNvNtNtCshEp7d2sUZm6_6batuta4parf5testss_25test_index_multiple_files
FN:609,_RNvNtNtCshEp7d2sUZm6_6batuta4parf5testss_25test_symbol_kind_equality
FN:523,_RNvNtNtCshEp7d2sUZm6_6batuta4parf5testss_25test_type_name_extraction
FN:885,_RNvNtNtCshEp7d2sUZm6_6batuta4parf5testss_26test_detect_patterns_fixme
FN:664,_RNvNtNtCshEp7d2sUZm6_6batuta4parf5testss_27test_code_pattern_tech_debt
FN:808,_RNvNtNtCshEp7d2sUZm6_6batuta4parf5testss_27test_dead_code_construction
FN:823,_RNvNtNtCshEp7d2sUZm6_6batuta4parf5testss_28test_dead_code_serialization
FN:783,_RNvNtNtCshEp7d2sUZm6_6batuta4parf5testss_29test_dependency_kind_equality
FN:511,_RNvNtNtCshEp7d2sUZm6_6batuta4parf5testss_29test_function_name_extraction
FN:595,_RNvNtNtCshEp7d2sUZm6_6batuta4parf5testss_29test_symbol_kind_all_variants
FN:934,_RNvNtNtCshEp7d2sUZm6_6batuta4parf5testss_30test_analyze_dependencies_rust
FN:1000,_RNvNtNtCshEp7d2sUZm6_6batuta4parf5testss_30test_find_dead_code_skips_main
FN:870,_RNvNtNtCshEp7d2sUZm6_6batuta4parf5testss_30test_find_references_not_found
FN:615,_RNvNtNtCshEp7d2sUZm6_6batuta4parf5testss_30test_symbol_kind_serialization
FN:738,_RNvNtNtCshEp7d2sUZm6_6batuta4parf5testss_31test_code_pattern_serialization
FN:900,_RNvNtNtCshEp7d2sUZm6_6batuta4parf5testss_31test_detect_patterns_deprecated
FN:984,_RNvNtNtCshEp7d2sUZm6_6batuta4parf5testss_31test_find_dead_code_skips_tests
FN:950,_RNvNtNtCshEp7d2sUZm6_6batuta4parf5testss_32test_analyze_dependencies_python
FN:678,_RNvNtNtCshEp7d2sUZm6_6batuta4parf5testss_32test_code_pattern_deprecated_api
FN:722,_RNvNtNtCshEp7d2sUZm6_6batuta4parf5testss_32test_code_pattern_duplicate_code
FN:692,_RNvNtNtCshEp7d2sUZm6_6batuta4parf5testss_32test_code_pattern_error_handling
FN:772,_RNvNtNtCshEp7d2sUZm6_6batuta4parf5testss_33test_dependency_kind_all_variants
FN:759,_RNvNtNtCshEp7d2sUZm6_6batuta4parf5testss_33test_file_dependency_construction
FN:547,_RNvNtNtCshEp7d2sUZm6_6batuta4parf5testss_33test_python_class_name_extraction
FN:917,_RNvNtNtCshEp7d2sUZm6_6batuta4parf5testss_34test_detect_patterns_file_handling
FN:789,_RNvNtNtCshEp7d2sUZm6_6batuta4parf5testss_34test_file_dependency_serialization
FN:627,_RNvNtNtCshEp7d2sUZm6_6batuta4parf5testss_34test_symbol_reference_construction
FN:1034,_RNvNtNtCshEp7d2sUZm6_6batuta4parf5testss_35test_generate_report_with_dead_code
FN:642,_RNvNtNtCshEp7d2sUZm6_6batuta4parf5testss_35test_symbol_reference_serialization
FN:1093,_RNvNtNtCshEp7d2sUZm6_6batuta4parf5testss_36test_extract_type_name_with_generics
FN:535,_RNvNtNtCshEp7d2sUZm6_6batuta4parf5testss_36test_python_function_name_extraction
FN:706,_RNvNtNtCshEp7d2sUZm6_6batuta4parf5testss_37test_code_pattern_resource_management
FN:1083,_RNvNtNtCshEp7d2sUZm6_6batuta4parf5testss_37test_extract_function_name_edge_cases
FN:966,_RNvNtNtCshEp7d2sUZm6_6batuta4parf5testss_40test_find_dead_code_with_unused_function
FN:1105,_RNvNtNtCshEp7d2sUZm6_6batuta4parf5testss_43test_extract_python_function_name_with_args
FN:1113,_RNvNtNtCshEp7d2sUZm6_6batuta4parf5testss_47test_extract_python_class_name_with_inheritance
FN:176,_RNvMs_NtCshEp7d2sUZm6_6batuta4parfNtB4_12ParfAnalyzer10index_file
FN:242,_RNvMs_NtCshEp7d2sUZm6_6batuta4parfNtB4_12ParfAnalyzer14add_definition
FN:364,_RNvMs_NtCshEp7d2sUZm6_6batuta4parfNtB4_12ParfAnalyzer14find_dead_code
FN:155,_RNvMs_NtCshEp7d2sUZm6_6batuta4parfNtB4_12ParfAnalyzer14index_codebase
FN:287,_RNvMs_NtCshEp7d2sUZm6_6batuta4parfNtB4_12ParfAnalyzer15detect_patterns
FN:265,_RNvMs_NtCshEp7d2sUZm6_6batuta4parfNtB4_12ParfAnalyzer15find_references
FN:409,_RNvMs_NtCshEp7d2sUZm6_6batuta4parfNtB4_12ParfAnalyzer15generate_report
FN:462,_RNvMs_NtCshEp7d2sUZm6_6batuta4parfNtB4_12ParfAnalyzer17extract_type_name
FN:334,_RNvMs_NtCshEp7d2sUZm6_6batuta4parfNtB4_12ParfAnalyzer20analyze_dependencies
FN:451,_RNvMs_NtCshEp7d2sUZm6_6batuta4parfNtB4_12ParfAnalyzer21extract_function_name
FN:486,_RNvMs_NtCshEp7d2sUZm6_6batuta4parfNtB4_12ParfAnalyzer25extract_python_class_name
FN:475,_RNvMs_NtCshEp7d2sUZm6_6batuta4parfNtB4_12ParfAnalyzer28extract_python_function_name
FN:146,_RNvMs_NtCshEp7d2sUZm6_6batuta4parfNtB4_12ParfAnalyzer3new
FN:139,_RNvXNtCshEp7d2sUZm6_6batuta4parfNtB2_12ParfAnalyzerNtNtCs6RpC691fUBl_4core7default7Default7default
FN:176,_RNvMs_NtCsc3xvWSUKV5Z_6batuta4parfNtB4_12ParfAnalyzer10index_file
FN:242,_RNvMs_NtCsc3xvWSUKV5Z_6batuta4parfNtB4_12ParfAnalyzer14add_definition
FN:364,_RNvMs_NtCsc3xvWSUKV5Z_6batuta4parfNtB4_12ParfAnalyzer14find_dead_code
FN:155,_RNvMs_NtCsc3xvWSUKV5Z_6batuta4parfNtB4_12ParfAnalyzer14index_codebase
FN:287,_RNvMs_NtCsc3xvWSUKV5Z_6batuta4parfNtB4_12ParfAnalyzer15detect_patterns
FN:265,_RNvMs_NtCsc3xvWSUKV5Z_6batuta4parfNtB4_12ParfAnalyzer15find_references
FN:409,_RNvMs_NtCsc3xvWSUKV5Z_6batuta4parfNtB4_12ParfAnalyzer15generate_report
FN:462,_RNvMs_NtCsc3xvWSUKV5Z_6batuta4parfNtB4_12ParfAnalyzer17extract_type_name
FN:334,_RNvMs_NtCsc3xvWSUKV5Z_6batuta4parfNtB4_12ParfAnalyzer20analyze_dependencies
FN:451,_RNvMs_NtCsc3xvWSUKV5Z_6batuta4parfNtB4_12ParfAnalyzer21extract_function_name
FN:486,_RNvMs_NtCsc3xvWSUKV5Z_6batuta4parfNtB4_12ParfAnalyzer25extract_python_class_name
FN:475,_RNvMs_NtCsc3xvWSUKV5Z_6batuta4parfNtB4_12ParfAnalyzer28extract_python_function_name
FN:146,_RNvMs_NtCsc3xvWSUKV5Z_6batuta4parfNtB4_12ParfAnalyzer3new
FN:139,_RNvXNtCsc3xvWSUKV5Z_6batuta4parfNtB2_12ParfAnalyzerNtNtCs6RpC691fUBl_4core7default7Default7default
FN:178,_RNCNvMs_NtCsc3xvWSUKV5Z_6batuta4parfNtB6_12ParfAnalyzer10index_file0B8_
FN:180,_RNCNvMs_NtCsc3xvWSUKV5Z_6batuta4parfNtB6_12ParfAnalyzer10index_files_0B8_
FN:159,_RNCNvMs_NtCsc3xvWSUKV5Z_6batuta4parfNtB6_12ParfAnalyzer14index_codebase0B8_
FN:467,_RNCNvMs_NtCsc3xvWSUKV5Z_6batuta4parfNtB6_12ParfAnalyzer17extract_type_name0B8_
FNDA:0,_RNvXNtCs2Yt0WxJROpx_6batuta4parfNtB2_12ParfAnalyzerNtNtCs6RpC691fUBl_4core7default7Default7default
FNDA:0,_RNCNvMs_NtCs2Yt0WxJROpx_6batuta4parfNtB6_12ParfAnalyzer10index_file0B8_
FNDA:12,_RNCNvMs_NtCs2Yt0WxJROpx_6batuta4parfNtB6_12ParfAnalyzer10index_files_0B8_
FNDA:17,_RNCNvMs_NtCs2Yt0WxJROpx_6batuta4parfNtB6_12ParfAnalyzer14index_codebase0B8_
FNDA:0,_RNCNvMs_NtCs2Yt0WxJROpx_6batuta4parfNtB6_12ParfAnalyzer17extract_type_name0B8_
FNDA:9,_RNvMs_NtCs2Yt0WxJROpx_6batuta4parfNtB4_12ParfAnalyzer10index_file
FNDA:10,_RNvMs_NtCs2Yt0WxJROpx_6batuta4parfNtB4_12ParfAnalyzer14add_definition
FNDA:1,_RNvMs_NtCs2Yt0WxJROpx_6batuta4parfNtB4_12ParfAnalyzer14find_dead_code
FNDA:8,_RNvMs_NtCs2Yt0WxJROpx_6batuta4parfNtB4_12ParfAnalyzer14index_codebase
FNDA:6,_RNvMs_NtCs2Yt0WxJROpx_6batuta4parfNtB4_12ParfAnalyzer15detect_patterns
FNDA:1,_RNvMs_NtCs2Yt0WxJROpx_6batuta4parfNtB4_12ParfAnalyzer15find_references
FNDA:1,_RNvMs_NtCs2Yt0WxJROpx_6batuta4parfNtB4_12ParfAnalyzer15generate_report
FNDA:0,_RNvMs_NtCs2Yt0WxJROpx_6batuta4parfNtB4_12ParfAnalyzer17extract_type_name
FNDA:2,_RNvMs_NtCs2Yt0WxJROpx_6batuta4parfNtB4_12ParfAnalyzer20analyze_dependencies
FNDA:10,_RNvMs_NtCs2Yt0WxJROpx_6batuta4parfNtB4_12ParfAnalyzer21extract_function_name
FNDA:0,_RNvMs_NtCs2Yt0WxJROpx_6batuta4parfNtB4_12ParfAnalyzer25extract_python_class_name
FNDA:0,_RNvMs_NtCs2Yt0WxJROpx_6batuta4parfNtB4_12ParfAnalyzer28extract_python_function_name
FNDA:8,_RNvMs_NtCs2Yt0WxJROpx_6batuta4parfNtB4_12ParfAnalyzer3new
FNDA:18,_RNvMs_NtCsjH0PaGjVXp8_6batuta4parfNtB4_12ParfAnalyzer10index_file
FNDA:19,_RNvMs_NtCsjH0PaGjVXp8_6batuta4parfNtB4_12ParfAnalyzer14add_definition
FNDA:5,_RNvMs_NtCsjH0PaGjVXp8_6batuta4parfNtB4_12ParfAnalyzer14find_dead_code
FNDA:16,_RNvMs_NtCsjH0PaGjVXp8_6batuta4parfNtB4_12ParfAnalyzer14index_codebase
FNDA:6,_RNvMs_NtCsjH0PaGjVXp8_6batuta4parfNtB4_12ParfAnalyzer15detect_patterns
FNDA:2,_RNvMs_NtCsjH0PaGjVXp8_6batuta4parfNtB4_12ParfAnalyzer15find_references
FNDA:2,_RNvMs_NtCsjH0PaGjVXp8_6batuta4parfNtB4_12ParfAnalyzer15generate_report
FNDA:4,_RNvMs_NtCsjH0PaGjVXp8_6batuta4parfNtB4_12ParfAnalyzer17extract_type_name
FNDA:4,_RNvMs_NtCsjH0PaGjVXp8_6batuta4parfNtB4_12ParfAnalyzer20analyze_dependencies
FNDA:21,_RNvMs_NtCsjH0PaGjVXp8_6batuta4parfNtB4_12ParfAnalyzer21extract_function_name
FNDA:4,_RNvMs_NtCsjH0PaGjVXp8_6batuta4parfNtB4_12ParfAnalyzer25extract_python_class_name
FNDA:5,_RNvMs_NtCsjH0PaGjVXp8_6batuta4parfNtB4_12ParfAnalyzer28extract_python_function_name
FNDA:18,_RNvMs_NtCsjH0PaGjVXp8_6batuta4parfNtB4_12ParfAnalyzer3new
FNDA:1,_RNvXNtCsjH0PaGjVXp8_6batuta4parfNtB2_12ParfAnalyzerNtNtCs6RpC691fUBl_4core7default7Default7default
FNDA:0,_RNCNvMs_NtCsjH0PaGjVXp8_6batuta4parfNtB6_12ParfAnalyzer10index_file0B8_
FNDA:38,_RNCNvMs_NtCsjH0PaGjVXp8_6batuta4parfNtB6_12ParfAnalyzer10index_files_0B8_
FNDA:34,_RNCNvMs_NtCsjH0PaGjVXp8_6batuta4parfNtB6_12ParfAnalyzer14index_codebase0B8_
FNDA:27,_RNCNvMs_NtCsjH0PaGjVXp8_6batuta4parfNtB6_12ParfAnalyzer17extract_type_name0B8_
FNDA:1,_RNCNvNtNtCsjH0PaGjVXp8_6batuta4parf5testss_20test_find_references0B7_
FNDA:1,_RNCNvNtNtCsjH0PaGjVXp8_6batuta4parf5testss_22test_pattern_detection0B7_
FNDA:2,_RNCNvNtNtCsjH0PaGjVXp8_6batuta4parf5testss_22test_pattern_detections_0B7_
FNDA:1,_RNCNvNtNtCsjH0PaGjVXp8_6batuta4parf5testss_26test_detect_patterns_fixme0B7_
FNDA:1,_RNCNvNtNtCsjH0PaGjVXp8_6batuta4parf5testss_30test_analyze_dependencies_rust0B7_
FNDA:0,_RNCNvNtNtCsjH0PaGjVXp8_6batuta4parf5testss_30test_find_dead_code_skips_main0B7_
FNDA:1,_RNCNvNtNtCsjH0PaGjVXp8_6batuta4parf5testss_31test_detect_patterns_deprecated0B7_
FNDA:0,_RNCNvNtNtCsjH0PaGjVXp8_6batuta4parf5testss_31test_find_dead_code_skips_tests0B7_
FNDA:1,_RNCNvNtNtCsjH0PaGjVXp8_6batuta4parf5testss_32test_analyze_dependencies_python0B7_
FNDA:1,_RNCNvNtNtCsjH0PaGjVXp8_6batuta4parf5testss_34test_detect_patterns_file_handling0B7_
FNDA:0,_RNCNvNtNtCsjH0PaGjVXp8_6batuta4parf5testss_40test_find_dead_code_with_unused_function0B7_
FNDA:1,_RNvNtNtCsjH0PaGjVXp8_6batuta4parf5testss_19test_index_codebase
FNDA:1,_RNvNtNtCsjH0PaGjVXp8_6batuta4parf5testss_20test_find_references
FNDA:1,_RNvNtNtCsjH0PaGjVXp8_6batuta4parf5testss_20test_generate_report
FNDA:1,_RNvNtNtCsjH0PaGjVXp8_6batuta4parf5testss_21test_default_analyzer
FNDA:1,_RNvNtNtCsjH0PaGjVXp8_6batuta4parf5testss_22test_analyzer_creation
FNDA:1,_RNvNtNtCsjH0PaGjVXp8_6batuta4parf5testss_22test_index_python_file
FNDA:1,_RNvNtNtCsjH0PaGjVXp8_6batuta4parf5testss_22test_pattern_detection
FNDA:1,_RNvNtNtCsjH0PaGjVXp8_6batuta4parf5testss_25test_index_multiple_files
FNDA:1,_RNvNtNtCsjH0PaGjVXp8_6batuta4parf5testss_25test_symbol_kind_equality
FNDA:1,_RNvNtNtCsjH0PaGjVXp8_6batuta4parf5testss_25test_type_name_extraction
FNDA:1,_RNvNtNtCsjH0PaGjVXp8_6batuta4parf5testss_26test_detect_patterns_fixme
FNDA:1,_RNvNtNtCsjH0PaGjVXp8_6batuta4parf5testss_27test_code_pattern_tech_debt
FNDA:1,_RNvNtNtCsjH0PaGjVXp8_6batuta4parf5testss_27test_dead_code_construction
FNDA:1,_RNvNtNtCsjH0PaGjVXp8_6batuta4parf5testss_28test_dead_code_serialization
FNDA:1,_RNvNtNtCsjH0PaGjVXp8_6batuta4parf5testss_29test_dependency_kind_equality
FNDA:1,_RNvNtNtCsjH0PaGjVXp8_6batuta4parf5testss_29test_function_name_extraction
FNDA:1,_RNvNtNtCsjH0PaGjVXp8_6batuta4parf5testss_29test_symbol_kind_all_variants
FNDA:1,_RNvNtNtCsjH0PaGjVXp8_6batuta4parf5testss_30test_analyze_dependencies_rust
FNDA:1,_RNvNtNtCsjH0PaGjVXp8_6batuta4parf5testss_30test_find_dead_code_skips_main
FNDA:1,_RNvNtNtCsjH0PaGjVXp8_6batuta4parf5testss_30test_find_references_not_found
FNDA:1,_RNvNtNtCsjH0PaGjVXp8_6batuta4parf5testss_30test_symbol_kind_serialization
FNDA:1,_RNvNtNtCsjH0PaGjVXp8_6batuta4parf5testss_31test_code_pattern_serialization
FNDA:1,_RNvNtNtCsjH0PaGjVXp8_6batuta4parf5testss_31test_detect_patterns_deprecated
FNDA:1,_RNvNtNtCsjH0PaGjVXp8_6batuta4parf5testss_31test_find_dead_code_skips_tests
FNDA:1,_RNvNtNtCsjH0PaGjVXp8_6batuta4parf5testss_32test_analyze_dependencies_python
FNDA:1,_RNvNtNtCsjH0PaGjVXp8_6batuta4parf5testss_32test_code_pattern_deprecated_api
FNDA:1,_RNvNtNtCsjH0PaGjVXp8_6batuta4parf5testss_32test_code_pattern_duplicate_code
FNDA:1,_RNvNtNtCsjH0PaGjVXp8_6batuta4parf5testss_32test_code_pattern_error_handling
FNDA:1,_RNvNtNtCsjH0PaGjVXp8_6batuta4parf5testss_33test_dependency_kind_all_variants
FNDA:1,_RNvNtNtCsjH0PaGjVXp8_6batuta4parf5testss_33test_file_dependency_construction
FNDA:1,_RNvNtNtCsjH0PaGjVXp8_6batuta4parf5testss_33test_python_class_name_extraction
FNDA:1,_RNvNtNtCsjH0PaGjVXp8_6batuta4parf5testss_34test_detect_patterns_file_handling
FNDA:1,_RNvNtNtCsjH0PaGjVXp8_6batuta4parf5testss_34test_file_dependency_serialization
FNDA:1,_RNvNtNtCsjH0PaGjVXp8_6batuta4parf5testss_34test_symbol_reference_construction
FNDA:1,_RNvNtNtCsjH0PaGjVXp8_6batuta4parf5testss_35test_generate_report_with_dead_code
FNDA:1,_RNvNtNtCsjH0PaGjVXp8_6batuta4parf5testss_35test_symbol_reference_serialization
FNDA:1,_RNvNtNtCsjH0PaGjVXp8_6batuta4parf5testss_36test_extract_type_name_with_generics
FNDA:1,_RNvNtNtCsjH0PaGjVXp8_6batuta4parf5testss_36test_python_function_name_extraction
FNDA:1,_RNvNtNtCsjH0PaGjVXp8_6batuta4parf5testss_37test_code_pattern_resource_management
FNDA:1,_RNvNtNtCsjH0PaGjVXp8_6batuta4parf5testss_37test_extract_function_name_edge_cases
FNDA:1,_RNvNtNtCsjH0PaGjVXp8_6batuta4parf5testss_40test_find_dead_code_with_unused_function
FNDA:1,_RNvNtNtCsjH0PaGjVXp8_6batuta4parf5testss_43test_extract_python_function_name_with_args
FNDA:1,_RNvNtNtCsjH0PaGjVXp8_6batuta4parf5testss_47test_extract_python_class_name_with_inheritance
FNDA:0,_RNCNvMs_NtCshEp7d2sUZm6_6batuta4parfNtB6_12ParfAnalyzer10index_file0B8_
FNDA:38,_RNCNvMs_NtCshEp7d2sUZm6_6batuta4parfNtB6_12ParfAnalyzer10index_files_0B8_
FNDA:34,_RNCNvMs_NtCshEp7d2sUZm6_6batuta4parfNtB6_12ParfAnalyzer14index_codebase0B8_
FNDA:27,_RNCNvMs_NtCshEp7d2sUZm6_6batuta4parfNtB6_12ParfAnalyzer17extract_type_name0B8_
FNDA:1,_RNCNvNtNtCshEp7d2sUZm6_6batuta4parf5testss_20test_find_references0B7_
FNDA:1,_RNCNvNtNtCshEp7d2sUZm6_6batuta4parf5testss_22test_pattern_detection0B7_
FNDA:2,_RNCNvNtNtCshEp7d2sUZm6_6batuta4parf5testss_22test_pattern_detections_0B7_
FNDA:1,_RNCNvNtNtCshEp7d2sUZm6_6batuta4parf5testss_26test_detect_patterns_fixme0B7_
FNDA:1,_RNCNvNtNtCshEp7d2sUZm6_6batuta4parf5testss_30test_analyze_dependencies_rust0B7_
FNDA:0,_RNCNvNtNtCshEp7d2sUZm6_6batuta4parf5testss_30test_find_dead_code_skips_main0B7_
FNDA:1,_RNCNvNtNtCshEp7d2sUZm6_6batuta4parf5testss_31test_detect_patterns_deprecated0B7_
FNDA:0,_RNCNvNtNtCshEp7d2sUZm6_6batuta4parf5testss_31test_find_dead_code_skips_tests0B7_
FNDA:1,_RNCNvNtNtCshEp7d2sUZm6_6batuta4parf5testss_32test_analyze_dependencies_python0B7_
FNDA:1,_RNCNvNtNtCshEp7d2sUZm6_6batuta4parf5testss_34test_detect_patterns_file_handling0B7_
FNDA:0,_RNCNvNtNtCshEp7d2sUZm6_6batuta4parf5testss_40test_find_dead_code_with_unused_function0B7_
FNDA:1,_RNvNtNtCshEp7d2sUZm6_6batuta4parf5testss_19test_index_codebase
FNDA:1,_RNvNtNtCshEp7d2sUZm6_6batuta4parf5testss_20test_find_references
FNDA:1,_RNvNtNtCshEp7d2sUZm6_6batuta4parf5testss_20test_generate_report
FNDA:1,_RNvNtNtCshEp7d2sUZm6_6batuta4parf5testss_21test_default_analyzer
FNDA:1,_RNvNtNtCshEp7d2sUZm6_6batuta4parf5testss_22test_analyzer_creation
FNDA:1,_RNvNtNtCshEp7d2sUZm6_6batuta4parf5testss_22test_index_python_file
FNDA:1,_RNvNtNtCshEp7d2sUZm6_6batuta4parf5testss_22test_pattern_detection
FNDA:1,_RNvNtNtCshEp7d2sUZm6_6batuta4parf5testss_25test_index_multiple_files
FNDA:1,_RNvNtNtCshEp7d2sUZm6_6batuta4parf5testss_25test_symbol_kind_equality
FNDA:1,_RNvNtNtCshEp7d2sUZm6_6batuta4parf5testss_25test_type_name_extraction
FNDA:1,_RNvNtNtCshEp7d2sUZm6_6batuta4parf5testss_26test_detect_patterns_fixme
FNDA:1,_RNvNtNtCshEp7d2sUZm6_6batuta4parf5testss_27test_code_pattern_tech_debt
FNDA:1,_RNvNtNtCshEp7d2sUZm6_6batuta4parf5testss_27test_dead_code_construction
FNDA:1,_RNvNtNtCshEp7d2sUZm6_6batuta4parf5testss_28test_dead_code_serialization
FNDA:1,_RNvNtNtCshEp7d2sUZm6_6batuta4parf5testss_29test_dependency_kind_equality
FNDA:1,_RNvNtNtCshEp7d2sUZm6_6batuta4parf5testss_29test_function_name_extraction
FNDA:1,_RNvNtNtCshEp7d2sUZm6_6batuta4parf5testss_29test_symbol_kind_all_variants
FNDA:1,_RNvNtNtCshEp7d2sUZm6_6batuta4parf5testss_30test_analyze_dependencies_rust
FNDA:1,_RNvNtNtCshEp7d2sUZm6_6batuta4parf5testss_30test_find_dead_code_skips_main
FNDA:1,_RNvNtNtCshEp7d2sUZm6_6batuta4parf5testss_30test_find_references_not_found
FNDA:1,_RNvNtNtCshEp7d2sUZm6_6batuta4parf5testss_30test_symbol_kind_serialization
FNDA:1,_RNvNtNtCshEp7d2sUZm6_6batuta4parf5testss_31test_code_pattern_serialization
FNDA:1,_RNvNtNtCshEp7d2sUZm6_6batuta4parf5testss_31test_detect_patterns_deprecated
FNDA:1,_RNvNtNtCshEp7d2sUZm6_6batuta4parf5testss_31test_find_dead_code_skips_tests
FNDA:1,_RNvNtNtCshEp7d2sUZm6_6batuta4parf5testss_32test_analyze_dependencies_python
FNDA:1,_RNvNtNtCshEp7d2sUZm6_6batuta4parf5testss_32test_code_pattern_deprecated_api
FNDA:1,_RNvNtNtCshEp7d2sUZm6_6batuta4parf5testss_32test_code_pattern_duplicate_code
FNDA:1,_RNvNtNtCshEp7d2sUZm6_6batuta4parf5testss_32test_code_pattern_error_handling
FNDA:1,_RNvNtNtCshEp7d2sUZm6_6batuta4parf5testss_33test_dependency_kind_all_variants
FNDA:1,_RNvNtNtCshEp7d2sUZm6_6batuta4parf5testss_33test_file_dependency_construction
FNDA:1,_RNvNtNtCshEp7d2sUZm6_6batuta4parf5testss_33test_python_class_name_extraction
FNDA:1,_RNvNtNtCshEp7d2sUZm6_6batuta4parf5testss_34test_detect_patterns_file_handling
FNDA:1,_RNvNtNtCshEp7d2sUZm6_6batuta4parf5testss_34test_file_dependency_serialization
FNDA:1,_RNvNtNtCshEp7d2sUZm6_6batuta4parf5testss_34test_symbol_reference_construction
FNDA:1,_RNvNtNtCshEp7d2sUZm6_6batuta4parf5testss_35test_generate_report_with_dead_code
FNDA:1,_RNvNtNtCshEp7d2sUZm6_6batuta4parf5testss_35test_symbol_reference_serialization
FNDA:1,_RNvNtNtCshEp7d2sUZm6_6batuta4parf5testss_36test_extract_type_name_with_generics
FNDA:1,_RNvNtNtCshEp7d2sUZm6_6batuta4parf5testss_36test_python_function_name_extraction
FNDA:1,_RNvNtNtCshEp7d2sUZm6_6batuta4parf5testss_37test_code_pattern_resource_management
FNDA:1,_RNvNtNtCshEp7d2sUZm6_6batuta4parf5testss_37test_extract_function_name_edge_cases
FNDA:1,_RNvNtNtCshEp7d2sUZm6_6batuta4parf5testss_40test_find_dead_code_with_unused_function
FNDA:1,_RNvNtNtCshEp7d2sUZm6_6batuta4parf5testss_43test_extract_python_function_name_with_args
FNDA:1,_RNvNtNtCshEp7d2sUZm6_6batuta4parf5testss_47test_extract_python_class_name_with_inheritance
FNDA:18,_RNvMs_NtCshEp7d2sUZm6_6batuta4parfNtB4_12ParfAnalyzer10index_file
FNDA:19,_RNvMs_NtCshEp7d2sUZm6_6batuta4parfNtB4_12ParfAnalyzer14add_definition
FNDA:5,_RNvMs_NtCshEp7d2sUZm6_6batuta4parfNtB4_12ParfAnalyzer14find_dead_code
FNDA:16,_RNvMs_NtCshEp7d2sUZm6_6batuta4parfNtB4_12ParfAnalyzer14index_codebase
FNDA:6,_RNvMs_NtCshEp7d2sUZm6_6batuta4parfNtB4_12ParfAnalyzer15detect_patterns
FNDA:2,_RNvMs_NtCshEp7d2sUZm6_6batuta4parfNtB4_12ParfAnalyzer15find_references
FNDA:2,_RNvMs_NtCshEp7d2sUZm6_6batuta4parfNtB4_12ParfAnalyzer15generate_report
FNDA:4,_RNvMs_NtCshEp7d2sUZm6_6batuta4parfNtB4_12ParfAnalyzer17extract_type_name
FNDA:4,_RNvMs_NtCshEp7d2sUZm6_6batuta4parfNtB4_12ParfAnalyzer20analyze_dependencies
FNDA:21,_RNvMs_NtCshEp7d2sUZm6_6batuta4parfNtB4_12ParfAnalyzer21extract_function_name
FNDA:4,_RNvMs_NtCshEp7d2sUZm6_6batuta4parfNtB4_12ParfAnalyzer25extract_python_class_name
FNDA:5,_RNvMs_NtCshEp7d2sUZm6_6batuta4parfNtB4_12ParfAnalyzer28extract_python_function_name
FNDA:18,_RNvMs_NtCshEp7d2sUZm6_6batuta4parfNtB4_12ParfAnalyzer3new
FNDA:1,_RNvXNtCshEp7d2sUZm6_6batuta4parfNtB2_12ParfAnalyzerNtNtCs6RpC691fUBl_4core7default7Default7default
FNDA:0,_RNvMs_NtCsc3xvWSUKV5Z_6batuta4parfNtB4_12ParfAnalyzer10index_file
FNDA:0,_RNvMs_NtCsc3xvWSUKV5Z_6batuta4parfNtB4_12ParfAnalyzer14add_definition
FNDA:0,_RNvMs_NtCsc3xvWSUKV5Z_6batuta4parfNtB4_12ParfAnalyzer14find_dead_code
FNDA:0,_RNvMs_NtCsc3xvWSUKV5Z_6batuta4parfNtB4_12ParfAnalyzer14index_codebase
FNDA:0,_RNvMs_NtCsc3xvWSUKV5Z_6batuta4parfNtB4_12ParfAnalyzer15detect_patterns
FNDA:0,_RNvMs_NtCsc3xvWSUKV5Z_6batuta4parfNtB4_12ParfAnalyzer15find_references
FNDA:0,_RNvMs_NtCsc3xvWSUKV5Z_6batuta4parfNtB4_12ParfAnalyzer15generate_report
FNDA:0,_RNvMs_NtCsc3xvWSUKV5Z_6batuta4parfNtB4_12ParfAnalyzer17extract_type_name
FNDA:0,_RNvMs_NtCsc3xvWSUKV5Z_6batuta4parfNtB4_12ParfAnalyzer20analyze_dependencies
FNDA:0,_RNvMs_NtCsc3xvWSUKV5Z_6batuta4parfNtB4_12ParfAnalyzer21extract_function_name
FNDA:0,_RNvMs_NtCsc3xvWSUKV5Z_6batuta4parfNtB4_12ParfAnalyzer25extract_python_class_name
FNDA:0,_RNvMs_NtCsc3xvWSUKV5Z_6batuta4parfNtB4_12ParfAnalyzer28extract_python_function_name
FNDA:0,_RNvMs_NtCsc3xvWSUKV5Z_6batuta4parfNtB4_12ParfAnalyzer3new
FNDA:0,_RNvXNtCsc3xvWSUKV5Z_6batuta4parfNtB2_12ParfAnalyzerNtNtCs6RpC691fUBl_4core7default7Default7default
FNDA:0,_RNCNvMs_NtCsc3xvWSUKV5Z_6batuta4parfNtB6_12ParfAnalyzer10index_file0B8_
FNDA:0,_RNCNvMs_NtCsc3xvWSUKV5Z_6batuta4parfNtB6_12ParfAnalyzer10index_files_0B8_
FNDA:0,_RNCNvMs_NtCsc3xvWSUKV5Z_6batuta4parfNtB6_12ParfAnalyzer14index_codebase0B8_
FNDA:0,_RNCNvMs_NtCsc3xvWSUKV5Z_6batuta4parfNtB6_12ParfAnalyzer17extract_type_name0B8_
FNF:72
FNH:68
DA:139,2
DA:140,2
DA:141,2
DA:146,44
DA:147,44
DA:148,44
DA:149,44
DA:150,44
DA:151,44
DA:152,44
DA:155,40
DA:156,85
DA:157,40
DA:158,40
DA:159,85
DA:161,85
DA:162,45
DA:164,45
DA:165,45
DA:167,45
DA:168,0
DA:169,0
DA:170,40
DA:172,40
DA:173,40
DA:176,45
DA:177,45
DA:178,45
DA:180,88
DA:181,45
DA:184,88
DA:186,88
DA:187,42
DA:188,42
DA:189,42
DA:190,42
DA:191,42
DA:192,42
DA:193,42
DA:194,42
DA:195,42
DA:196,46
DA:199,88
DA:200,0
DA:201,0
DA:202,0
DA:203,0
DA:204,0
DA:205,0
DA:206,0
DA:207,0
DA:208,0
DA:209,88
DA:212,88
DA:213,4
DA:214,4
DA:215,4
DA:216,4
DA:217,4
DA:218,4
DA:219,4
DA:220,4
DA:221,4
DA:222,84
DA:225,88
DA:226,2
DA:227,2
DA:228,2
DA:229,2
DA:230,2
DA:231,2
DA:232,2
DA:233,2
DA:234,2
DA:235,86
DA:238,45
DA:239,45
DA:242,48
DA:243,48
DA:244,48
DA:245,48
DA:246,48
DA:247,48
DA:248,48
DA:249,48
DA:250,48
DA:251,48
DA:252,48
DA:253,48
DA:254,48
DA:255,48
DA:256,48
DA:258,48
DA:259,48
DA:260,48
DA:261,48
DA:262,48
DA:265,5
DA:266,5
DA:269,10
DA:270,14
DA:271,14
DA:272,8
DA:273,8
DA:274,8
DA:275,8
DA:276,8
DA:277,8
DA:278,8
DA:279,8
DA:283,5
DA:284,5
DA:287,18
DA:288,18
DA:290,36
DA:291,29
DA:293,29
DA:294,7
DA:295,7
DA:296,7
DA:297,7
DA:298,7
DA:299,22
DA:302,29
DA:303,2
DA:304,2
DA:305,2
DA:306,2
DA:307,2
DA:308,27
DA:311,29
DA:312,2
DA:313,2
DA:314,2
DA:315,2
DA:316,2
DA:317,27
DA:320,29
DA:321,2
DA:322,2
DA:323,2
DA:324,2
DA:325,2
DA:326,27
DA:330,18
DA:331,18
DA:334,10
DA:335,10
DA:337,21
DA:338,31
DA:340,20
DA:341,4
DA:342,4
DA:343,4
DA:344,4
DA:345,4
DA:346,4
DA:347,16
DA:350,20
DA:351,4
DA:352,4
DA:353,4
DA:354,4
DA:355,4
DA:356,16
DA:360,10
DA:361,10
DA:364,11
DA:365,11
DA:366,11
DA:369,11
DA:370,34
DA:372,35
DA:373,35
DA:374,15
DA:375,20
DA:381,26
DA:382,15
DA:383,0
DA:385,0
DA:386,0
DA:387,0
DA:390,0
DA:391,0
DA:392,0
DA:394,0
DA:395,0
DA:396,0
DA:397,0
DA:398,0
DA:399,0
DA:400,0
DA:402,15
DA:405,11
DA:406,11
DA:409,5
DA:410,5
DA:411,5
DA:413,5
DA:414,5
DA:415,5
DA:416,5
DA:417,5
DA:418,5
DA:419,5
DA:420,5
DA:421,5
DA:422,5
DA:425,5
DA:426,5
DA:428,5
DA:429,0
DA:430,0
DA:431,0
DA:432,0
DA:433,0
DA:434,0
DA:435,0
DA:436,0
DA:437,0
DA:438,0
DA:439,0
DA:440,0
DA:441,0
DA:442,0
DA:443,0
DA:444,5
DA:446,5
DA:447,5
DA:451,52
DA:453,52
DA:454,50
DA:455,50
DA:456,50
DA:457,0
DA:458,2
DA:459,2
DA:460,52
DA:462,8
DA:464,12
DA:465,12
DA:466,8
DA:467,54
DA:468,8
DA:469,0
DA:470,4
DA:472,0
DA:473,8
DA:475,10
DA:477,10
DA:478,10
DA:479,10
DA:480,10
DA:481,0
DA:482,0
DA:483,0
DA:484,10
DA:486,8
DA:488,8
DA:489,8
DA:490,8
DA:491,8
DA:492,0
DA:493,0
DA:494,0
DA:495,8
DA:505,2
DA:506,2
DA:507,2
DA:508,2
DA:511,2
DA:512,2
DA:513,2
DA:514,2
DA:516,2
DA:517,2
DA:518,2
DA:520,2
DA:523,2
DA:524,2
DA:525,2
DA:526,2
DA:528,2
DA:529,2
DA:530,2
DA:532,2
DA:535,2
DA:536,2
DA:537,2
DA:538,2
DA:540,2
DA:541,2
DA:542,2
DA:544,2
DA:547,2
DA:548,2
DA:549,2
DA:550,2
DA:552,2
DA:553,2
DA:554,2
DA:556,2
DA:559,2
DA:560,2
DA:561,2
DA:562,2
DA:564,2
DA:565,2
DA:567,2
DA:568,2
DA:569,2
DA:571,2
DA:572,2
DA:575,2
DA:576,2
DA:577,2
DA:578,2
DA:580,2
DA:581,2
DA:583,2
DA:584,2
DA:585,4
DA:587,2
DA:588,2
DA:595,2
DA:597,2
DA:598,2
DA:599,2
DA:600,2
DA:601,2
DA:602,2
DA:603,2
DA:604,2
DA:605,2
DA:606,2
DA:609,2
DA:610,2
DA:611,2
DA:612,2
DA:615,2
DA:616,2
DA:617,2
DA:618,2
DA:619,2
DA:620,2
DA:627,2
DA:628,2
DA:629,2
DA:630,2
DA:631,2
DA:632,2
DA:633,2
DA:634,2
DA:636,2
DA:637,2
DA:638,2
DA:639,2
DA:642,2
DA:643,2
DA:644,2
DA:645,2
DA:646,2
DA:647,2
DA:648,2
DA:649,2
DA:651,2
DA:652,2
DA:654,2
DA:655,2
DA:656,2
DA:657,2
DA:664,2
DA:665,2
DA:666,2
DA:667,2
DA:668,2
DA:669,2
DA:671,2
DA:672,2
DA:673,0
DA:675,2
DA:678,2
DA:679,2
DA:680,2
DA:681,2
DA:682,2
DA:683,2
DA:685,2
DA:686,2
DA:687,0
DA:689,2
DA:692,2
DA:693,2
DA:694,2
DA:695,2
DA:696,2
DA:697,2
DA:699,2
DA:700,2
DA:701,0
DA:703,2
DA:706,2
DA:707,2
DA:708,2
DA:709,2
DA:710,2
DA:711,2
DA:713,2
DA:714,2
DA:715,2
DA:717,0
DA:719,2
DA:722,2
DA:723,2
DA:724,2
DA:725,2
DA:726,2
DA:727,2
DA:728,2
DA:729,2
DA:731,2
DA:732,2
DA:733,0
DA:735,2
DA:738,2
DA:739,2
DA:740,2
DA:741,2
DA:742,2
DA:743,2
DA:745,2
DA:746,2
DA:748,2
DA:749,2
DA:750,0
DA:752,2
DA:759,2
DA:760,2
DA:761,2
DA:762,2
DA:763,2
DA:764,2
DA:766,2
DA:767,2
DA:768,2
DA:769,2
DA:772,2
DA:773,2
DA:774,2
DA:775,2
DA:776,2
DA:777,2
DA:778,2
DA:779,2
DA:780,2
DA:783,2
DA:784,2
DA:785,2
DA:786,2
DA:789,2
DA:790,2
DA:791,2
DA:792,2
DA:793,2
DA:794,2
DA:796,2
DA:797,2
DA:799,2
DA:800,2
DA:801,2
DA:808,2
DA:809,2
DA:810,2
DA:811,2
DA:812,2
DA:813,2
DA:814,2
DA:815,2
DA:817,2
DA:818,2
DA:819,2
DA:820,2
DA:823,2
DA:824,2
DA:825,2
DA:826,2
DA:827,2
DA:828,2
DA:829,2
DA:830,2
DA:832,2
DA:833,2
DA:835,2
DA:836,2
DA:837,2
DA:844,2
DA:845,2
DA:846,2
DA:847,2
DA:848,2
DA:851,2
DA:852,2
DA:853,2
DA:854,2
DA:855,2
DA:857,0
DA:859,2
DA:860,2
DA:862,2
DA:863,2
DA:864,2
DA:866,2
DA:867,2
DA:870,2
DA:871,2
DA:872,2
DA:873,2
DA:875,2
DA:876,2
DA:878,2
DA:879,2
DA:881,2
DA:882,2
DA:885,2
DA:886,2
DA:887,2
DA:888,2
DA:890,2
DA:891,2
DA:893,2
DA:894,2
DA:896,2
DA:897,2
DA:900,2
DA:901,2
DA:902,2
DA:903,2
DA:905,2
DA:906,2
DA:908,2
DA:909,2
DA:910,2
DA:911,2
DA:913,2
DA:914,2
DA:917,2
DA:918,2
DA:919,2
DA:920,2
DA:922,2
DA:923,2
DA:925,2
DA:926,2
DA:927,2
DA:928,2
DA:930,2
DA:931,2
DA:934,2
DA:935,2
DA:936,2
DA:937,2
DA:939,2
DA:940,2
DA:942,2
DA:943,2
DA:944,2
DA:946,2
DA:947,2
DA:950,2
DA:951,2
DA:952,2
DA:953,2
DA:955,2
DA:956,2
DA:958,2
DA:959,2
DA:960,2
DA:962,2
DA:963,2
DA:966,2
DA:967,2
DA:968,2
DA:970,2
DA:972,2
DA:973,2
DA:975,2
DA:978,2
DA:980,2
DA:981,2
DA:984,2
DA:985,2
DA:986,2
DA:987,2
DA:989,2
DA:990,2
DA:992,2
DA:994,2
DA:996,2
DA:997,2
DA:1000,2
DA:1001,2
DA:1002,2
DA:1003,2
DA:1005,2
DA:1006,2
DA:1008,2
DA:1010,2
DA:1012,2
DA:1013,2
DA:1016,2
DA:1017,2
DA:1018,2
DA:1019,2
DA:1021,2
DA:1022,2
DA:1024,2
DA:1025,2
DA:1026,2
DA:1027,2
DA:1028,2
DA:1030,2
DA:1031,2
DA:1034,2
DA:1035,2
DA:1036,2
DA:1037,2
DA:1039,2
DA:1040,2
DA:1042,2
DA:1044,2
DA:1046,2
DA:1047,2
DA:1050,2
DA:1051,2
DA:1052,2
DA:1053,2
DA:1055,2
DA:1056,2
DA:1058,2
DA:1059,2
DA:1061,2
DA:1062,2
DA:1065,2
DA:1066,2
DA:1067,2
DA:1068,2
DA:1069,2
DA:1071,2
DA:1072,2
DA:1074,2
DA:1075,2
DA:1076,2
DA:1077,2
DA:1079,2
DA:1080,2
DA:1083,2
DA:1084,2
DA:1085,2
DA:1086,2
DA:1088,2
DA:1089,2
DA:1090,2
DA:1093,2
DA:1094,2
DA:1095,2
DA:1096,2
DA:1098,2
DA:1099,2
DA:1100,2
DA:1102,2
DA:1105,2
DA:1106,2
DA:1107,2
DA:1108,2
DA:1110,2
DA:1113,2
DA:1114,2
DA:1115,2
DA:1116,2
DA:1118,2
BRF:0
BRH:0
LF:695
LH:635
end_of_record
SF:/home/noah/src/batuta/src/pipeline.rs
FN:161,_RNCNCNvMs_NtCs2Yt0WxJROpx_6batuta8pipelineNtB8_21TranspilationPipeline3run00Ba_
FN:421,_RNCNCNvXsh_NtCs2Yt0WxJROpx_6batuta8pipelineNtB9_18TranspilationStageNtB9_13PipelineStage7execute0s0_0Bb_
FN:420,_RNCNCNvXsh_NtCs2Yt0WxJROpx_6batuta8pipelineNtB9_18TranspilationStageNtB9_13PipelineStage7execute0s_0Bb_
FN:261,_RNCNvMs0_NtCs2Yt0WxJROpx_6batuta8pipelineNtB7_18TranspilationStage19analyze_numpy_usage0B9_
FN:365,_RNCNvMs0_NtCs2Yt0WxJROpx_6batuta8pipelineNtB7_18TranspilationStage21analyze_pytorch_usage0B9_
FN:312,_RNCNvMs0_NtCs2Yt0WxJROpx_6batuta8pipelineNtB7_18TranspilationStage21analyze_sklearn_usage0B9_
FN:151,_RNCNvMs_NtCs2Yt0WxJROpx_6batuta8pipelineNtB6_21TranspilationPipeline3run0B8_
FN:70,_RNvMNtCs2Yt0WxJROpx_6batuta8pipelineNtB2_15PipelineContext6output
FN:253,_RNvMs0_NtCs2Yt0WxJROpx_6batuta8pipelineNtB5_18TranspilationStage19analyze_numpy_usage
FN:357,_RNvMs0_NtCs2Yt0WxJROpx_6batuta8pipelineNtB5_18TranspilationStage21analyze_pytorch_usage
FN:304,_RNvMs0_NtCs2Yt0WxJROpx_6batuta8pipelineNtB5_18TranspilationStage21analyze_sklearn_usage
FN:241,_RNvMs0_NtCs2Yt0WxJROpx_6batuta8pipelineNtB5_18TranspilationStage3new
FN:629,_RNvMs1_NtCs2Yt0WxJROpx_6batuta8pipelineNtB5_17OptimizationStage21analyze_optimizations
FN:619,_RNvMs1_NtCs2Yt0WxJROpx_6batuta8pipelineNtB5_17OptimizationStage3new
FN:850,_RNvMs3_NtCs2Yt0WxJROpx_6batuta8pipelineNtB5_10BuildStage3new
FN:137,_RNvMs_NtCs2Yt0WxJROpx_6batuta8pipelineNtB4_21TranspilationPipeline3new
FN:151,_RNvMs_NtCs2Yt0WxJROpx_6batuta8pipelineNtB4_21TranspilationPipeline3run
FN:145,_RNvMs_NtCs2Yt0WxJROpx_6batuta8pipelineNtB4_21TranspilationPipeline9add_stage
FN:189,_RNvXsg_NtCs2Yt0WxJROpx_6batuta8pipelineNtB5_13AnalysisStageNtB5_13PipelineStage4name
FN:193,_RNvXsg_NtCs2Yt0WxJROpx_6batuta8pipelineNtB5_13AnalysisStageNtB5_13PipelineStage7execute
FN:216,_RNvXsg_NtCs2Yt0WxJROpx_6batuta8pipelineNtB5_13AnalysisStageNtB5_13PipelineStage8validate
FN:414,_RNvXsh_NtCs2Yt0WxJROpx_6batuta8pipelineNtB5_18TranspilationStageNtB5_13PipelineStage4name
FN:418,_RNvXsh_NtCs2Yt0WxJROpx_6batuta8pipelineNtB5_18TranspilationStageNtB5_13PipelineStage7execute
FN:592,_RNvXsh_NtCs2Yt0WxJROpx_6batuta8pipelineNtB5_18TranspilationStageNtB5_13PipelineStage8validate
FN:653,_RNvXsi_NtCs2Yt0WxJROpx_6batuta8pipelineNtB5_17OptimizationStageNtB5_13PipelineStage4name
FN:657,_RNvXsi_NtCs2Yt0WxJROpx_6batuta8pipelineNtB5_17OptimizationStageNtB5_13PipelineStage7execute
FN:861,_RNvXsk_NtCs2Yt0WxJROpx_6batuta8pipelineNtB5_10BuildStageNtB5_13PipelineStage4name
FN:865,_RNvXsk_NtCs2Yt0WxJROpx_6batuta8pipelineNtB5_10BuildStageNtB5_13PipelineStage7execute
FN:919,_RNvXsk_NtCs2Yt0WxJROpx_6batuta8pipelineNtB5_10BuildStageNtB5_13PipelineStage8validate
FN:119,_RNvYpNtNtCs2Yt0WxJROpx_6batuta8pipeline13PipelineStage8validateB7_
FN:746,_RNCNvMs2_NtCs2Yt0WxJROpx_6batuta8pipelineNtB7_15ValidationStage12trace_binary0B9_
FN:747,_RNCNvMs2_NtCs2Yt0WxJROpx_6batuta8pipelineNtB7_15ValidationStage12trace_binarys_0B9_
FN:715,_RNCNvMs2_NtCs2Yt0WxJROpx_6batuta8pipelineNtB7_15ValidationStage17trace_and_compare0B9_
FN:57,_RNvMNtCs2Yt0WxJROpx_6batuta8pipelineNtB2_15PipelineContext3new
FN:727,_RNvMs2_NtCs2Yt0WxJROpx_6batuta8pipelineNtB5_15ValidationStage12trace_binary
FN:754,_RNvMs2_NtCs2Yt0WxJROpx_6batuta8pipelineNtB5_15ValidationStage14compare_traces
FN:711,_RNvMs2_NtCs2Yt0WxJROpx_6batuta8pipelineNtB5_15ValidationStage17trace_and_compare
FN:703,_RNvMs2_NtCs2Yt0WxJROpx_6batuta8pipelineNtB5_15ValidationStage3new
FN:778,_RNvXsj_NtCs2Yt0WxJROpx_6batuta8pipelineNtB5_15ValidationStageNtB5_13PipelineStage4name
FN:782,_RNvXsj_NtCs2Yt0WxJROpx_6batuta8pipelineNtB5_15ValidationStageNtB5_13PipelineStage7execute
FN:865,_RNvXsk_NtCsjH0PaGjVXp8_6batuta8pipelineNtB5_10BuildStageNtB5_13PipelineStage7execute
FN:119,_RNvYpNtNtCsjH0PaGjVXp8_6batuta8pipeline13PipelineStage8validateB7_
FN:1442,_RNCNCNvNtNtCsjH0PaGjVXp8_6batuta8pipeline5testss_31test_optimization_stage_execute00B9_
FN:1443,_RNCNCNvNtNtCsjH0PaGjVXp8_6batuta8pipeline5testss_31test_optimization_stage_execute0s_0B9_
FN:1484,_RNCNCNvNtNtCsjH0PaGjVXp8_6batuta8pipeline5testss_32test_optimization_stage_gpu_only00B9_
FN:1486,_RNCNCNvNtNtCsjH0PaGjVXp8_6batuta8pipeline5testss_32test_optimization_stage_gpu_only0s0_0B9_
FN:1485,_RNCNCNvNtNtCsjH0PaGjVXp8_6batuta8pipeline5testss_32test_optimization_stage_gpu_only0s_0B9_
FN:1465,_RNCNCNvNtNtCsjH0PaGjVXp8_6batuta8pipeline5testss_33test_optimization_stage_simd_only00B9_
FN:1466,_RNCNCNvNtNtCsjH0PaGjVXp8_6batuta8pipeline5testss_33test_optimization_stage_simd_only0s_0B9_
FN:1228,_RNCNvNtNtCsjH0PaGjVXp8_6batuta8pipeline5testss_22test_pipeline_creation0B7_
FN:1235,_RNCNvNtNtCsjH0PaGjVXp8_6batuta8pipeline5testss_23test_pipeline_add_stage0B7_
FN:1357,_RNCNvNtNtCsjH0PaGjVXp8_6batuta8pipeline5testss_27test_pipeline_no_validation0B7_
FN:1244,_RNCNvNtNtCsjH0PaGjVXp8_6batuta8pipeline5testss_27test_pipeline_run_no_stages0B7_
FN:1259,_RNCNvNtNtCsjH0PaGjVXp8_6batuta8pipeline5testss_30test_pipeline_run_single_stage0B7_
FN:1427,_RNCNvNtNtCsjH0PaGjVXp8_6batuta8pipeline5testss_31test_optimization_stage_execute0B7_
FN:1470,_RNCNvNtNtCsjH0PaGjVXp8_6batuta8pipeline5testss_32test_optimization_stage_gpu_only0B7_
FN:1451,_RNCNvNtNtCsjH0PaGjVXp8_6batuta8pipeline5testss_33test_optimization_stage_simd_only0B7_
FN:1274,_RNCNvNtNtCsjH0PaGjVXp8_6batuta8pipeline5testss_33test_pipeline_run_multiple_stages0B7_
FN:1288,_RNCNvNtNtCsjH0PaGjVXp8_6batuta8pipeline5testss_35test_pipeline_stage_execution_order0B7_
FN:1305,_RNCNvNtNtCsjH0PaGjVXp8_6batuta8pipeline5testss_37test_pipeline_stop_on_error_execution0B7_
FN:1322,_RNCNvNtNtCsjH0PaGjVXp8_6batuta8pipeline5testss_38test_pipeline_stop_on_error_validation0B7_
FN:1908,_RNCNvNtNtCsjH0PaGjVXp8_6batuta8pipeline5testss_41test_validation_stage_execute_no_binaries0B7_
FN:1339,_RNCNvNtNtCsjH0PaGjVXp8_6batuta8pipeline5testss_42test_pipeline_continue_on_error_validation0B7_
FN:1768,_RNCNvNtNtCsjH0PaGjVXp8_6batuta8pipeline5testss_43test_analysis_stage_execute_empty_directory0B7_
FN:1792,_RNCNvNtNtCsjH0PaGjVXp8_6batuta8pipeline5testss_44test_transpilation_stage_creates_directories0B7_
FN:1722,_RNCNvNtNtCsjH0PaGjVXp8_6batuta8pipeline5testss_45test_analysis_stage_execute_with_rust_project0B7_
FN:1927,_RNCNvNtNtCsjH0PaGjVXp8_6batuta8pipeline5testss_45test_validation_stage_execute_without_tracing0B7_
FN:1747,_RNCNvNtNtCsjH0PaGjVXp8_6batuta8pipeline5testss_47test_analysis_stage_execute_with_python_project0B7_
FN:1183,_RNvMNtNtCsjH0PaGjVXp8_6batuta8pipeline5testsNtB2_9MockStage22with_execution_failure
FN:1188,_RNvMNtNtCsjH0PaGjVXp8_6batuta8pipeline5testsNtB2_9MockStage23with_validation_failure
FN:1175,_RNvMNtNtCsjH0PaGjVXp8_6batuta8pipeline5testsNtB2_9MockStage3new
FN:1589,_RNvNtNtCsjH0PaGjVXp8_6batuta8pipeline5testss_21test_build_stage_name
FN:1228,_RNvNtNtCsjH0PaGjVXp8_6batuta8pipeline5testss_22test_pipeline_creation
FN:1235,_RNvNtNtCsjH0PaGjVXp8_6batuta8pipeline5testss_23test_pipeline_add_stage
FN:1616,_RNvNtNtCsjH0PaGjVXp8_6batuta8pipeline5testss_24test_analysis_stage_name
FN:1573,_RNvNtNtCsjH0PaGjVXp8_6batuta8pipeline5testss_25test_build_stage_creation
FN:1977,_RNvNtNtCsjH0PaGjVXp8_6batuta8pipeline5testss_26test_pipeline_output_clone
FN:1501,_RNvNtNtCsjH0PaGjVXp8_6batuta8pipeline5testss_26test_validation_stage_name
FN:1949,_RNvNtNtCsjH0PaGjVXp8_6batuta8pipeline5testss_27test_pipeline_context_clone
FN:1357,_RNvNtNtCsjH0PaGjVXp8_6batuta8pipeline5testss_27test_pipeline_no_validation
FN:1244,_RNvNtNtCsjH0PaGjVXp8_6batuta8pipeline5testss_27test_pipeline_run_no_stages
FN:1407,_RNvNtNtCsjH0PaGjVXp8_6batuta8pipeline5testss_28test_optimization_stage_name
FN:1045,_RNvNtNtCsjH0PaGjVXp8_6batuta8pipeline5testss_28test_pipeline_context_output
FN:1963,_RNvNtNtCsjH0PaGjVXp8_6batuta8pipeline5testss_28test_validation_result_clone
FN:1389,_RNvNtNtCsjH0PaGjVXp8_6batuta8pipeline5testss_29test_transpilation_stage_name
FN:1118,_RNvNtNtCsjH0PaGjVXp8_6batuta8pipeline5testss_29test_validation_result_failed
FN:1103,_RNvNtNtCsjH0PaGjVXp8_6batuta8pipeline5testss_29test_validation_result_passed
FN:1991,_RNvNtNtCsjH0PaGjVXp8_6batuta8pipeline5testss_29test_validation_strategy_copy
FN:1581,_RNvNtNtCsjH0PaGjVXp8_6batuta8pipeline5testss_30test_build_stage_creation_wasm
FN:952,_RNvNtNtCsjH0PaGjVXp8_6batuta8pipeline5testss_30test_pipeline_context_creation
FN:1030,_RNvNtNtCsjH0PaGjVXp8_6batuta8pipeline5testss_30test_pipeline_context_metadata
FN:1259,_RNvNtNtCsjH0PaGjVXp8_6batuta8pipeline5testss_30test_pipeline_run_single_stage
FN:1494,_RNvNtNtCsjH0PaGjVXp8_6batuta8pipeline5testss_30test_validation_stage_creation
FN:1427,_RNvNtNtCsjH0PaGjVXp8_6batuta8pipeline5testss_31test_optimization_stage_execute
FN:1399,_RNvNtNtCsjH0PaGjVXp8_6batuta8pipeline5testss_32test_optimization_stage_creation
FN:1470,_RNvNtNtCsjH0PaGjVXp8_6batuta8pipeline5testss_32test_optimization_stage_gpu_only
FN:1451,_RNvNtNtCsjH0PaGjVXp8_6batuta8pipeline5testss_33test_optimization_stage_simd_only
FN:1274,_RNvNtNtCsjH0PaGjVXp8_6batuta8pipeline5testss_33test_pipeline_run_multiple_stages
FN:1379,_RNvNtNtCsjH0PaGjVXp8_6batuta8pipeline5testss_33test_transpilation_stage_creation
FN:1154,_RNvNtNtCsjH0PaGjVXp8_6batuta8pipeline5testss_33test_validation_strategy_equality
FN:1699,_RNvNtNtCsjH0PaGjVXp8_6batuta8pipeline5testss_34test_pipeline_output_serialization
FN:979,_RNvNtNtCsjH0PaGjVXp8_6batuta8pipeline5testss_35test_pipeline_context_file_mappings
FN:996,_RNvNtNtCsjH0PaGjVXp8_6batuta8pipeline5testss_35test_pipeline_context_optimizations
FN:1661,_RNvNtNtCsjH0PaGjVXp8_6batuta8pipeline5testss_35test_pipeline_context_serialization
FN:968,_RNvNtNtCsjH0PaGjVXp8_6batuta8pipeline5testss_35test_pipeline_context_with_language
FN:1288,_RNvNtNtCsjH0PaGjVXp8_6batuta8pipeline5testss_35test_pipeline_stage_execution_order
FN:1133,_RNvNtNtCsjH0PaGjVXp8_6batuta8pipeline5testss_35test_validation_result_with_details
FN:1681,_RNvNtNtCsjH0PaGjVXp8_6batuta8pipeline5testss_36test_validation_result_serialization
FN:1862,_RNvNtNtCsjH0PaGjVXp8_6batuta8pipeline5testss_37test_build_stage_validate_debug_build
FN:1305,_RNvNtNtCsjH0PaGjVXp8_6batuta8pipeline5testss_37test_pipeline_stop_on_error_execution
FN:1595,_RNvNtNtCsjH0PaGjVXp8_6batuta8pipeline5testss_38test_build_stage_validate_no_build_dir
FN:1998,_RNvNtNtCsjH0PaGjVXp8_6batuta8pipeline5testss_38test_optimization_stage_no_gpu_no_simd
FN:1322,_RNvNtNtCsjH0PaGjVXp8_6batuta8pipeline5testss_38test_pipeline_stop_on_error_validation
FN:1883,_RNvNtNtCsjH0PaGjVXp8_6batuta8pipeline5testss_39test_build_stage_validate_release_build
FN:1622,_RNvNtNtCsjH0PaGjVXp8_6batuta8pipeline5testss_40test_analysis_stage_validate_no_language
FN:1011,_RNvNtNtCsjH0PaGjVXp8_6batuta8pipeline5testss_40test_pipeline_context_validation_results
FN:1908,_RNvNtNtCsjH0PaGjVXp8_6batuta8pipeline5testss_41test_validation_stage_execute_no_binaries
FN:1639,_RNvNtNtCsjH0PaGjVXp8_6batuta8pipeline5testss_42test_analysis_stage_validate_with_language
FN:1339,_RNvNtNtCsjH0PaGjVXp8_6batuta8pipeline5testss_42test_pipeline_continue_on_error_validation
FN:1768,_RNvNtNtCsjH0PaGjVXp8_6batuta8pipeline5testss_43test_analysis_stage_execute_empty_directory
FN:1792,_RNvNtNtCsjH0PaGjVXp8_6batuta8pipeline5testss_44test_transpilation_stage_creates_directories
FN:1836,_RNvNtNtCsjH0PaGjVXp8_6batuta8pipeline5testss_44test_transpilation_stage_validate_with_files
FN:1722,_RNvNtNtCsjH0PaGjVXp8_6batuta8pipeline5testss_45test_analysis_stage_execute_with_rust_project
FN:1413,_RNvNtNtCsjH0PaGjVXp8_6batuta8pipeline5testss_45test_optimization_stage_analyze_optimizations
FN:1927,_RNvNtNtCsjH0PaGjVXp8_6batuta8pipeline5testss_45test_validation_stage_execute_without_tracing
FN:1072,_RNvNtNtCsjH0PaGjVXp8_6batuta8pipeline5testss_46test_pipeline_context_output_validation_failed
FN:1814,_RNvNtNtCsjH0PaGjVXp8_6batuta8pipeline5testss_46test_transpilation_stage_validate_empty_output
FN:1507,_RNvNtNtCsjH0PaGjVXp8_6batuta8pipeline5testss_46test_validation_stage_compare_traces_identical
FN:1747,_RNvNtNtCsjH0PaGjVXp8_6batuta8pipeline5testss_47test_analysis_stage_execute_with_python_project
FN:1524,_RNvNtNtCsjH0PaGjVXp8_6batuta8pipeline5testss_53test_validation_stage_compare_traces_different_length
FN:1538,_RNvNtNtCsjH0PaGjVXp8_6batuta8pipeline5testss_55test_validation_stage_compare_traces_different_syscalls
FN:1553,_RNvNtNtCsjH0PaGjVXp8_6batuta8pipeline5testss_64test_validation_stage_compare_traces_same_syscall_different_args
FN:1196,_RNvXs_NtNtCsjH0PaGjVXp8_6batuta8pipeline5testsNtB4_9MockStageNtB6_13PipelineStage4name
FN:1200,_RNvXs_NtNtCsjH0PaGjVXp8_6batuta8pipeline5testsNtB4_9MockStageNtB6_13PipelineStage7execute
FN:1213,_RNvXs_NtNtCsjH0PaGjVXp8_6batuta8pipeline5testsNtB4_9MockStageNtB6_13PipelineStage8validate
FN:161,_RNCNCNvMs_NtCsjH0PaGjVXp8_6batuta8pipelineNtB8_21TranspilationPipeline3run00Ba_
FN:421,_RNCNCNvXsh_NtCsjH0PaGjVXp8_6batuta8pipelineNtB9_18TranspilationStageNtB9_13PipelineStage7execute0s0_0Bb_
FN:420,_RNCNCNvXsh_NtCsjH0PaGjVXp8_6batuta8pipelineNtB9_18TranspilationStageNtB9_13PipelineStage7execute0s_0Bb_
FN:261,_RNCNvMs0_NtCsjH0PaGjVXp8_6batuta8pipelineNtB7_18TranspilationStage19analyze_numpy_usage0B9_
FN:365,_RNCNvMs0_NtCsjH0PaGjVXp8_6batuta8pipelineNtB7_18TranspilationStage21analyze_pytorch_usage0B9_
FN:312,_RNCNvMs0_NtCsjH0PaGjVXp8_6batuta8pipelineNtB7_18TranspilationStage21analyze_sklearn_usage0B9_
FN:746,_RNCNvMs2_NtCsjH0PaGjVXp8_6batuta8pipelineNtB7_15ValidationStage12trace_binary0B9_
FN:747,_RNCNvMs2_NtCsjH0PaGjVXp8_6batuta8pipelineNtB7_15ValidationStage12trace_binarys_0B9_
FN:715,_RNCNvMs2_NtCsjH0PaGjVXp8_6batuta8pipelineNtB7_15ValidationStage17trace_and_compare0B9_
FN:151,_RNCNvMs_NtCsjH0PaGjVXp8_6batuta8pipelineNtB6_21TranspilationPipeline3run0B8_
FN:57,_RNvMNtCsjH0PaGjVXp8_6batuta8pipelineNtB2_15PipelineContext3new
FN:70,_RNvMNtCsjH0PaGjVXp8_6batuta8pipelineNtB2_15PipelineContext6output
FN:253,_RNvMs0_NtCsjH0PaGjVXp8_6batuta8pipelineNtB5_18TranspilationStage19analyze_numpy_usage
FN:357,_RNvMs0_NtCsjH0PaGjVXp8_6batuta8pipelineNtB5_18TranspilationStage21analyze_pytorch_usage
FN:304,_RNvMs0_NtCsjH0PaGjVXp8_6batuta8pipelineNtB5_18TranspilationStage21analyze_sklearn_usage
FN:241,_RNvMs0_NtCsjH0PaGjVXp8_6batuta8pipelineNtB5_18TranspilationStage3new
FN:629,_RNvMs1_NtCsjH0PaGjVXp8_6batuta8pipelineNtB5_17OptimizationStage21analyze_optimizations
FN:619,_RNvMs1_NtCsjH0PaGjVXp8_6batuta8pipelineNtB5_17OptimizationStage3new
FN:727,_RNvMs2_NtCsjH0PaGjVXp8_6batuta8pipelineNtB5_15ValidationStage12trace_binary
FN:754,_RNvMs2_NtCsjH0PaGjVXp8_6batuta8pipelineNtB5_15ValidationStage14compare_traces
FN:711,_RNvMs2_NtCsjH0PaGjVXp8_6batuta8pipelineNtB5_15ValidationStage17trace_and_compare
FN:703,_RNvMs2_NtCsjH0PaGjVXp8_6batuta8pipelineNtB5_15ValidationStage3new
FN:850,_RNvMs3_NtCsjH0PaGjVXp8_6batuta8pipelineNtB5_10BuildStage3new
FN:137,_RNvMs_NtCsjH0PaGjVXp8_6batuta8pipelineNtB4_21TranspilationPipeline3new
FN:151,_RNvMs_NtCsjH0PaGjVXp8_6batuta8pipelineNtB4_21TranspilationPipeline3run
FN:145,_RNvMs_NtCsjH0PaGjVXp8_6batuta8pipelineNtB4_21TranspilationPipeline9add_stage
FN:189,_RNvXsg_NtCsjH0PaGjVXp8_6batuta8pipelineNtB5_13AnalysisStageNtB5_13PipelineStage4name
FN:193,_RNvXsg_NtCsjH0PaGjVXp8_6batuta8pipelineNtB5_13AnalysisStageNtB5_13PipelineStage7execute
FN:216,_RNvXsg_NtCsjH0PaGjVXp8_6batuta8pipelineNtB5_13AnalysisStageNtB5_13PipelineStage8validate
FN:414,_RNvXsh_NtCsjH0PaGjVXp8_6batuta8pipelineNtB5_18TranspilationStageNtB5_13PipelineStage4name
FN:418,_RNvXsh_NtCsjH0PaGjVXp8_6batuta8pipelineNtB5_18TranspilationStageNtB5_13PipelineStage7execute
FN:592,_RNvXsh_NtCsjH0PaGjVXp8_6batuta8pipelineNtB5_18TranspilationStageNtB5_13PipelineStage8validate
FN:653,_RNvXsi_NtCsjH0PaGjVXp8_6batuta8pipelineNtB5_17OptimizationStageNtB5_13PipelineStage4name
FN:657,_RNvXsi_NtCsjH0PaGjVXp8_6batuta8pipelineNtB5_17OptimizationStageNtB5_13PipelineStage7execute
FN:778,_RNvXsj_NtCsjH0PaGjVXp8_6batuta8pipelineNtB5_15ValidationStageNtB5_13PipelineStage4name
FN:782,_RNvXsj_NtCsjH0PaGjVXp8_6batuta8pipelineNtB5_15ValidationStageNtB5_13PipelineStage7execute
FN:861,_RNvXsk_NtCsjH0PaGjVXp8_6batuta8pipelineNtB5_10BuildStageNtB5_13PipelineStage4name
FN:919,_RNvXsk_NtCsjH0PaGjVXp8_6batuta8pipelineNtB5_10BuildStageNtB5_13PipelineStage8validate
FN:161,_RNCNCNvMs_NtCshEp7d2sUZm6_6batuta8pipelineNtB8_21TranspilationPipeline3run00Ba_
FN:421,_RNCNCNvXsh_NtCshEp7d2sUZm6_6batuta8pipelineNtB9_18TranspilationStageNtB9_13PipelineStage7execute0s0_0Bb_
FN:420,_RNCNCNvXsh_NtCshEp7d2sUZm6_6batuta8pipelineNtB9_18TranspilationStageNtB9_13PipelineStage7execute0s_0Bb_
FN:261,_RNCNvMs0_NtCshEp7d2sUZm6_6batuta8pipelineNtB7_18TranspilationStage19analyze_numpy_usage0B9_
FN:365,_RNCNvMs0_NtCshEp7d2sUZm6_6batuta8pipelineNtB7_18TranspilationStage21analyze_pytorch_usage0B9_
FN:312,_RNCNvMs0_NtCshEp7d2sUZm6_6batuta8pipelineNtB7_18TranspilationStage21analyze_sklearn_usage0B9_
FN:746,_RNCNvMs2_NtCshEp7d2sUZm6_6batuta8pipelineNtB7_15ValidationStage12trace_binary0B9_
FN:747,_RNCNvMs2_NtCshEp7d2sUZm6_6batuta8pipelineNtB7_15ValidationStage12trace_binarys_0B9_
FN:715,_RNCNvMs2_NtCshEp7d2sUZm6_6batuta8pipelineNtB7_15ValidationStage17trace_and_compare0B9_
FN:151,_RNCNvMs_NtCshEp7d2sUZm6_6batuta8pipelineNtB6_21TranspilationPipeline3run0B8_
FN:1442,_RNCNCNvNtNtCshEp7d2sUZm6_6batuta8pipeline5testss_31test_optimization_stage_execute00B9_
FN:1443,_RNCNCNvNtNtCshEp7d2sUZm6_6batuta8pipeline5testss_31test_optimization_stage_execute0s_0B9_
FN:1484,_RNCNCNvNtNtCshEp7d2sUZm6_6batuta8pipeline5testss_32test_optimization_stage_gpu_only00B9_
FN:1486,_RNCNCNvNtNtCshEp7d2sUZm6_6batuta8pipeline5testss_32test_optimization_stage_gpu_only0s0_0B9_
FN:1485,_RNCNCNvNtNtCshEp7d2sUZm6_6batuta8pipeline5testss_32test_optimization_stage_gpu_only0s_0B9_
FN:1465,_RNCNCNvNtNtCshEp7d2sUZm6_6batuta8pipeline5testss_33test_optimization_stage_simd_only00B9_
FN:1466,_RNCNCNvNtNtCshEp7d2sUZm6_6batuta8pipeline5testss_33test_optimization_stage_simd_only0s_0B9_
FN:1228,_RNCNvNtNtCshEp7d2sUZm6_6batuta8pipeline5testss_22test_pipeline_creation0B7_
FN:1235,_RNCNvNtNtCshEp7d2sUZm6_6batuta8pipeline5testss_23test_pipeline_add_stage0B7_
FN:1357,_RNCNvNtNtCshEp7d2sUZm6_6batuta8pipeline5testss_27test_pipeline_no_validation0B7_
FN:1244,_RNCNvNtNtCshEp7d2sUZm6_6batuta8pipeline5testss_27test_pipeline_run_no_stages0B7_
FN:1259,_RNCNvNtNtCshEp7d2sUZm6_6batuta8pipeline5testss_30test_pipeline_run_single_stage0B7_
FN:1427,_RNCNvNtNtCshEp7d2sUZm6_6batuta8pipeline5testss_31test_optimization_stage_execute0B7_
FN:1470,_RNCNvNtNtCshEp7d2sUZm6_6batuta8pipeline5testss_32test_optimization_stage_gpu_only0B7_
FN:1451,_RNCNvNtNtCshEp7d2sUZm6_6batuta8pipeline5testss_33test_optimization_stage_simd_only0B7_
FN:1274,_RNCNvNtNtCshEp7d2sUZm6_6batuta8pipeline5testss_33test_pipeline_run_multiple_stages0B7_
FN:1288,_RNCNvNtNtCshEp7d2sUZm6_6batuta8pipeline5testss_35test_pipeline_stage_execution_order0B7_
FN:1305,_RNCNvNtNtCshEp7d2sUZm6_6batuta8pipeline5testss_37test_pipeline_stop_on_error_execution0B7_
FN:1322,_RNCNvNtNtCshEp7d2sUZm6_6batuta8pipeline5testss_38test_pipeline_stop_on_error_validation0B7_
FN:1908,_RNCNvNtNtCshEp7d2sUZm6_6batuta8pipeline5testss_41test_validation_stage_execute_no_binaries0B7_
FN:1339,_RNCNvNtNtCshEp7d2sUZm6_6batuta8pipeline5testss_42test_pipeline_continue_on_error_validation0B7_
FN:1768,_RNCNvNtNtCshEp7d2sUZm6_6batuta8pipeline5testss_43test_analysis_stage_execute_empty_directory0B7_
FN:1792,_RNCNvNtNtCshEp7d2sUZm6_6batuta8pipeline5testss_44test_transpilation_stage_creates_directories0B7_
FN:1722,_RNCNvNtNtCshEp7d2sUZm6_6batuta8pipeline5testss_45test_analysis_stage_execute_with_rust_project0B7_
FN:1927,_RNCNvNtNtCshEp7d2sUZm6_6batuta8pipeline5testss_45test_validation_stage_execute_without_tracing0B7_
FN:1747,_RNCNvNtNtCshEp7d2sUZm6_6batuta8pipeline5testss_47test_analysis_stage_execute_with_python_project0B7_
FN:865,_RNvXsk_NtCshEp7d2sUZm6_6batuta8pipelineNtB5_10BuildStageNtB5_13PipelineStage7execute
FN:119,_RNvYpNtNtCshEp7d2sUZm6_6batuta8pipeline13PipelineStage8validateB7_
FN:1183,_RNvMNtNtCshEp7d2sUZm6_6batuta8pipeline5testsNtB2_9MockStage22with_execution_failure
FN:1188,_RNvMNtNtCshEp7d2sUZm6_6batuta8pipeline5testsNtB2_9MockStage23with_validation_failure
FN:1175,_RNvMNtNtCshEp7d2sUZm6_6batuta8pipeline5testsNtB2_9MockStage3new
FN:1589,_RNvNtNtCshEp7d2sUZm6_6batuta8pipeline5testss_21test_build_stage_name
FN:1228,_RNvNtNtCshEp7d2sUZm6_6batuta8pipeline5testss_22test_pipeline_creation
FN:1235,_RNvNtNtCshEp7d2sUZm6_6batuta8pipeline5testss_23test_pipeline_add_stage
FN:1616,_RNvNtNtCshEp7d2sUZm6_6batuta8pipeline5testss_24test_analysis_stage_name
FN:1573,_RNvNtNtCshEp7d2sUZm6_6batuta8pipeline5testss_25test_build_stage_creation
FN:1977,_RNvNtNtCshEp7d2sUZm6_6batuta8pipeline5testss_26test_pipeline_output_clone
FN:1501,_RNvNtNtCshEp7d2sUZm6_6batuta8pipeline5testss_26test_validation_stage_name
FN:1949,_RNvNtNtCshEp7d2sUZm6_6batuta8pipeline5testss_27test_pipeline_context_clone
FN:1357,_RNvNtNtCshEp7d2sUZm6_6batuta8pipeline5testss_27test_pipeline_no_validation
FN:1244,_RNvNtNtCshEp7d2sUZm6_6batuta8pipeline5testss_27test_pipeline_run_no_stages
FN:1407,_RNvNtNtCshEp7d2sUZm6_6batuta8pipeline5testss_28test_optimization_stage_name
FN:1045,_RNvNtNtCshEp7d2sUZm6_6batuta8pipeline5testss_28test_pipeline_context_output
FN:1963,_RNvNtNtCshEp7d2sUZm6_6batuta8pipeline5testss_28test_validation_result_clone
FN:1389,_RNvNtNtCshEp7d2sUZm6_6batuta8pipeline5testss_29test_transpilation_stage_name
FN:1118,_RNvNtNtCshEp7d2sUZm6_6batuta8pipeline5testss_29test_validation_result_failed
FN:1103,_RNvNtNtCshEp7d2sUZm6_6batuta8pipeline5testss_29test_validation_result_passed
FN:1991,_RNvNtNtCshEp7d2sUZm6_6batuta8pipeline5testss_29test_validation_strategy_copy
FN:1581,_RNvNtNtCshEp7d2sUZm6_6batuta8pipeline5testss_30test_build_stage_creation_wasm
FN:952,_RNvNtNtCshEp7d2sUZm6_6batuta8pipeline5testss_30test_pipeline_context_creation
FN:1030,_RNvNtNtCshEp7d2sUZm6_6batuta8pipeline5testss_30test_pipeline_context_metadata
FN:1259,_RNvNtNtCshEp7d2sUZm6_6batuta8pipeline5testss_30test_pipeline_run_single_stage
FN:1494,_RNvNtNtCshEp7d2sUZm6_6batuta8pipeline5testss_30test_validation_stage_creation
FN:1427,_RNvNtNtCshEp7d2sUZm6_6batuta8pipeline5testss_31test_optimization_stage_execute
FN:1399,_RNvNtNtCshEp7d2sUZm6_6batuta8pipeline5testss_32test_optimization_stage_creation
FN:1470,_RNvNtNtCshEp7d2sUZm6_6batuta8pipeline5testss_32test_optimization_stage_gpu_only
FN:1451,_RNvNtNtCshEp7d2sUZm6_6batuta8pipeline5testss_33test_optimization_stage_simd_only
FN:1274,_RNvNtNtCshEp7d2sUZm6_6batuta8pipeline5testss_33test_pipeline_run_multiple_stages
FN:1379,_RNvNtNtCshEp7d2sUZm6_6batuta8pipeline5testss_33test_transpilation_stage_creation
FN:1154,_RNvNtNtCshEp7d2sUZm6_6batuta8pipeline5testss_33test_validation_strategy_equality
FN:1699,_RNvNtNtCshEp7d2sUZm6_6batuta8pipeline5testss_34test_pipeline_output_serialization
FN:979,_RNvNtNtCshEp7d2sUZm6_6batuta8pipeline5testss_35test_pipeline_context_file_mappings
FN:996,_RNvNtNtCshEp7d2sUZm6_6batuta8pipeline5testss_35test_pipeline_context_optimizations
FN:1661,_RNvNtNtCshEp7d2sUZm6_6batuta8pipeline5testss_35test_pipeline_context_serialization
FN:968,_RNvNtNtCshEp7d2sUZm6_6batuta8pipeline5testss_35test_pipeline_context_with_language
FN:1288,_RNvNtNtCshEp7d2sUZm6_6batuta8pipeline5testss_35test_pipeline_stage_execution_order
FN:1133,_RNvNtNtCshEp7d2sUZm6_6batuta8pipeline5testss_35test_validation_result_with_details
FN:1681,_RNvNtNtCshEp7d2sUZm6_6batuta8pipeline5testss_36test_validation_result_serialization
FN:1862,_RNvNtNtCshEp7d2sUZm6_6batuta8pipeline5testss_37test_build_stage_validate_debug_build
FN:1305,_RNvNtNtCshEp7d2sUZm6_6batuta8pipeline5testss_37test_pipeline_stop_on_error_execution
FN:1595,_RNvNtNtCshEp7d2sUZm6_6batuta8pipeline5testss_38test_build_stage_validate_no_build_dir
FN:1998,_RNvNtNtCshEp7d2sUZm6_6batuta8pipeline5testss_38test_optimization_stage_no_gpu_no_simd
FN:1322,_RNvNtNtCshEp7d2sUZm6_6batuta8pipeline5testss_38test_pipeline_stop_on_error_validation
FN:1883,_RNvNtNtCshEp7d2sUZm6_6batuta8pipeline5testss_39test_build_stage_validate_release_build
FN:1622,_RNvNtNtCshEp7d2sUZm6_6batuta8pipeline5testss_40test_analysis_stage_validate_no_language
FN:1011,_RNvNtNtCshEp7d2sUZm6_6batuta8pipeline5testss_40test_pipeline_context_validation_results
FN:1908,_RNvNtNtCshEp7d2sUZm6_6batuta8pipeline5testss_41test_validation_stage_execute_no_binaries
FN:1639,_RNvNtNtCshEp7d2sUZm6_6batuta8pipeline5testss_42test_analysis_stage_validate_with_language
FN:1339,_RNvNtNtCshEp7d2sUZm6_6batuta8pipeline5testss_42test_pipeline_continue_on_error_validation
FN:1768,_RNvNtNtCshEp7d2sUZm6_6batuta8pipeline5testss_43test_analysis_stage_execute_empty_directory
FN:1792,_RNvNtNtCshEp7d2sUZm6_6batuta8pipeline5testss_44test_transpilation_stage_creates_directories
FN:1836,_RNvNtNtCshEp7d2sUZm6_6batuta8pipeline5testss_44test_transpilation_stage_validate_with_files
FN:1722,_RNvNtNtCshEp7d2sUZm6_6batuta8pipeline5testss_45test_analysis_stage_execute_with_rust_project
FN:1413,_RNvNtNtCshEp7d2sUZm6_6batuta8pipeline5testss_45test_optimization_stage_analyze_optimizations
FN:1927,_RNvNtNtCshEp7d2sUZm6_6batuta8pipeline5testss_45test_validation_stage_execute_without_tracing
FN:1072,_RNvNtNtCshEp7d2sUZm6_6batuta8pipeline5testss_46test_pipeline_context_output_validation_failed
FN:1814,_RNvNtNtCshEp7d2sUZm6_6batuta8pipeline5testss_46test_transpilation_stage_validate_empty_output
FN:1507,_RNvNtNtCshEp7d2sUZm6_6batuta8pipeline5testss_46test_validation_stage_compare_traces_identical
FN:1747,_RNvNtNtCshEp7d2sUZm6_6batuta8pipeline5testss_47test_analysis_stage_execute_with_python_project
FN:1524,_RNvNtNtCshEp7d2sUZm6_6batuta8pipeline5testss_53test_validation_stage_compare_traces_different_length
FN:1538,_RNvNtNtCshEp7d2sUZm6_6batuta8pipeline5testss_55test_validation_stage_compare_traces_different_syscalls
FN:1553,_RNvNtNtCshEp7d2sUZm6_6batuta8pipeline5testss_64test_validation_stage_compare_traces_same_syscall_different_args
FN:1196,_RNvXs_NtNtCshEp7d2sUZm6_6batuta8pipeline5testsNtB4_9MockStageNtB6_13PipelineStage4name
FN:1200,_RNvXs_NtNtCshEp7d2sUZm6_6batuta8pipeline5testsNtB4_9MockStageNtB6_13PipelineStage7execute
FN:1213,_RNvXs_NtNtCshEp7d2sUZm6_6batuta8pipeline5testsNtB4_9MockStageNtB6_13PipelineStage8validate
FN:57,_RNvMNtCshEp7d2sUZm6_6batuta8pipelineNtB2_15PipelineContext3new
FN:70,_RNvMNtCshEp7d2sUZm6_6batuta8pipelineNtB2_15PipelineContext6output
FN:253,_RNvMs0_NtCshEp7d2sUZm6_6batuta8pipelineNtB5_18TranspilationStage19analyze_numpy_usage
FN:357,_RNvMs0_NtCshEp7d2sUZm6_6batuta8pipelineNtB5_18TranspilationStage21analyze_pytorch_usage
FN:304,_RNvMs0_NtCshEp7d2sUZm6_6batuta8pipelineNtB5_18TranspilationStage21analyze_sklearn_usage
FN:241,_RNvMs0_NtCshEp7d2sUZm6_6batuta8pipelineNtB5_18TranspilationStage3new
FN:629,_RNvMs1_NtCshEp7d2sUZm6_6batuta8pipelineNtB5_17OptimizationStage21analyze_optimizations
FN:619,_RNvMs1_NtCshEp7d2sUZm6_6batuta8pipelineNtB5_17OptimizationStage3new
FN:727,_RNvMs2_NtCshEp7d2sUZm6_6batuta8pipelineNtB5_15ValidationStage12trace_binary
FN:754,_RNvMs2_NtCshEp7d2sUZm6_6batuta8pipelineNtB5_15ValidationStage14compare_traces
FN:711,_RNvMs2_NtCshEp7d2sUZm6_6batuta8pipelineNtB5_15ValidationStage17trace_and_compare
FN:703,_RNvMs2_NtCshEp7d2sUZm6_6batuta8pipelineNtB5_15ValidationStage3new
FN:850,_RNvMs3_NtCshEp7d2sUZm6_6batuta8pipelineNtB5_10BuildStage3new
FN:137,_RNvMs_NtCshEp7d2sUZm6_6batuta8pipelineNtB4_21TranspilationPipeline3new
FN:151,_RNvMs_NtCshEp7d2sUZm6_6batuta8pipelineNtB4_21TranspilationPipeline3run
FN:145,_RNvMs_NtCshEp7d2sUZm6_6batuta8pipelineNtB4_21TranspilationPipeline9add_stage
FN:189,_RNvXsg_NtCshEp7d2sUZm6_6batuta8pipelineNtB5_13AnalysisStageNtB5_13PipelineStage4name
FN:193,_RNvXsg_NtCshEp7d2sUZm6_6batuta8pipelineNtB5_13AnalysisStageNtB5_13PipelineStage7execute
FN:216,_RNvXsg_NtCshEp7d2sUZm6_6batuta8pipelineNtB5_13AnalysisStageNtB5_13PipelineStage8validate
FN:414,_RNvXsh_NtCshEp7d2sUZm6_6batuta8pipelineNtB5_18TranspilationStageNtB5_13PipelineStage4name
FN:418,_RNvXsh_NtCshEp7d2sUZm6_6batuta8pipelineNtB5_18TranspilationStageNtB5_13PipelineStage7execute
FN:592,_RNvXsh_NtCshEp7d2sUZm6_6batuta8pipelineNtB5_18TranspilationStageNtB5_13PipelineStage8validate
FN:653,_RNvXsi_NtCshEp7d2sUZm6_6batuta8pipelineNtB5_17OptimizationStageNtB5_13PipelineStage4name
FN:657,_RNvXsi_NtCshEp7d2sUZm6_6batuta8pipelineNtB5_17OptimizationStageNtB5_13PipelineStage7execute
FN:778,_RNvXsj_NtCshEp7d2sUZm6_6batuta8pipelineNtB5_15ValidationStageNtB5_13PipelineStage4name
FN:782,_RNvXsj_NtCshEp7d2sUZm6_6batuta8pipelineNtB5_15ValidationStageNtB5_13PipelineStage7execute
FN:861,_RNvXsk_NtCshEp7d2sUZm6_6batuta8pipelineNtB5_10BuildStageNtB5_13PipelineStage4name
FN:919,_RNvXsk_NtCshEp7d2sUZm6_6batuta8pipelineNtB5_10BuildStageNtB5_13PipelineStage8validate
FN:57,_RNvMNtCsc3xvWSUKV5Z_6batuta8pipelineNtB2_15PipelineContext3new
FN:70,_RNvMNtCsc3xvWSUKV5Z_6batuta8pipelineNtB2_15PipelineContext6output
FN:253,_RNvMs0_NtCsc3xvWSUKV5Z_6batuta8pipelineNtB5_18TranspilationStage19analyze_numpy_usage
FN:357,_RNvMs0_NtCsc3xvWSUKV5Z_6batuta8pipelineNtB5_18TranspilationStage21analyze_pytorch_usage
FN:304,_RNvMs0_NtCsc3xvWSUKV5Z_6batuta8pipelineNtB5_18TranspilationStage21analyze_sklearn_usage
FN:241,_RNvMs0_NtCsc3xvWSUKV5Z_6batuta8pipelineNtB5_18TranspilationStage3new
FN:629,_RNvMs1_NtCsc3xvWSUKV5Z_6batuta8pipelineNtB5_17OptimizationStage21analyze_optimizations
FN:619,_RNvMs1_NtCsc3xvWSUKV5Z_6batuta8pipelineNtB5_17OptimizationStage3new
FN:727,_RNvMs2_NtCsc3xvWSUKV5Z_6batuta8pipelineNtB5_15ValidationStage12trace_binary
FN:754,_RNvMs2_NtCsc3xvWSUKV5Z_6batuta8pipelineNtB5_15ValidationStage14compare_traces
FN:711,_RNvMs2_NtCsc3xvWSUKV5Z_6batuta8pipelineNtB5_15ValidationStage17trace_and_compare
FN:703,_RNvMs2_NtCsc3xvWSUKV5Z_6batuta8pipelineNtB5_15ValidationStage3new
FN:850,_RNvMs3_NtCsc3xvWSUKV5Z_6batuta8pipelineNtB5_10BuildStage3new
FN:137,_RNvMs_NtCsc3xvWSUKV5Z_6batuta8pipelineNtB4_21TranspilationPipeline3new
FN:151,_RNvMs_NtCsc3xvWSUKV5Z_6batuta8pipelineNtB4_21TranspilationPipeline3run
FN:145,_RNvMs_NtCsc3xvWSUKV5Z_6batuta8pipelineNtB4_21TranspilationPipeline9add_stage
FN:189,_RNvXsg_NtCsc3xvWSUKV5Z_6batuta8pipelineNtB5_13AnalysisStageNtB5_13PipelineStage4name
FN:193,_RNvXsg_NtCsc3xvWSUKV5Z_6batuta8pipelineNtB5_13AnalysisStageNtB5_13PipelineStage7execute
FN:216,_RNvXsg_NtCsc3xvWSUKV5Z_6batuta8pipelineNtB5_13AnalysisStageNtB5_13PipelineStage8validate
FN:414,_RNvXsh_NtCsc3xvWSUKV5Z_6batuta8pipelineNtB5_18TranspilationStageNtB5_13PipelineStage4name
FN:418,_RNvXsh_NtCsc3xvWSUKV5Z_6batuta8pipelineNtB5_18TranspilationStageNtB5_13PipelineStage7execute
FN:592,_RNvXsh_NtCsc3xvWSUKV5Z_6batuta8pipelineNtB5_18TranspilationStageNtB5_13PipelineStage8validate
FN:653,_RNvXsi_NtCsc3xvWSUKV5Z_6batuta8pipelineNtB5_17OptimizationStageNtB5_13PipelineStage4name
FN:657,_RNvXsi_NtCsc3xvWSUKV5Z_6batuta8pipelineNtB5_17OptimizationStageNtB5_13PipelineStage7execute
FN:778,_RNvXsj_NtCsc3xvWSUKV5Z_6batuta8pipelineNtB5_15ValidationStageNtB5_13PipelineStage4name
FN:782,_RNvXsj_NtCsc3xvWSUKV5Z_6batuta8pipelineNtB5_15ValidationStageNtB5_13PipelineStage7execute
FN:861,_RNvXsk_NtCsc3xvWSUKV5Z_6batuta8pipelineNtB5_10BuildStageNtB5_13PipelineStage4name
FN:865,_RNvXsk_NtCsc3xvWSUKV5Z_6batuta8pipelineNtB5_10BuildStageNtB5_13PipelineStage7execute
FN:919,_RNvXsk_NtCsc3xvWSUKV5Z_6batuta8pipelineNtB5_10BuildStageNtB5_13PipelineStage8validate
FN:421,_RNCNCNvXsh_NtCsc3xvWSUKV5Z_6batuta8pipelineNtB9_18TranspilationStageNtB9_13PipelineStage7execute0s0_0Bb_
FN:420,_RNCNCNvXsh_NtCsc3xvWSUKV5Z_6batuta8pipelineNtB9_18TranspilationStageNtB9_13PipelineStage7execute0s_0Bb_
FN:261,_RNCNvMs0_NtCsc3xvWSUKV5Z_6batuta8pipelineNtB7_18TranspilationStage19analyze_numpy_usage0B9_
FN:365,_RNCNvMs0_NtCsc3xvWSUKV5Z_6batuta8pipelineNtB7_18TranspilationStage21analyze_pytorch_usage0B9_
FN:312,_RNCNvMs0_NtCsc3xvWSUKV5Z_6batuta8pipelineNtB7_18TranspilationStage21analyze_sklearn_usage0B9_
FN:746,_RNCNvMs2_NtCsc3xvWSUKV5Z_6batuta8pipelineNtB7_15ValidationStage12trace_binary0B9_
FN:747,_RNCNvMs2_NtCsc3xvWSUKV5Z_6batuta8pipelineNtB7_15ValidationStage12trace_binarys_0B9_
FN:715,_RNCNvMs2_NtCsc3xvWSUKV5Z_6batuta8pipelineNtB7_15ValidationStage17trace_and_compare0B9_
FNDA:0,_RNCNCNvMs_NtCs2Yt0WxJROpx_6batuta8pipelineNtB8_21TranspilationPipeline3run00Ba_
FNDA:0,_RNCNCNvXsh_NtCs2Yt0WxJROpx_6batuta8pipelineNtB9_18TranspilationStageNtB9_13PipelineStage7execute0s0_0Bb_
FNDA:0,_RNCNCNvXsh_NtCs2Yt0WxJROpx_6batuta8pipelineNtB9_18TranspilationStageNtB9_13PipelineStage7execute0s_0Bb_
FNDA:0,_RNCNvMs0_NtCs2Yt0WxJROpx_6batuta8pipelineNtB7_18TranspilationStage19analyze_numpy_usage0B9_
FNDA:0,_RNCNvMs0_NtCs2Yt0WxJROpx_6batuta8pipelineNtB7_18TranspilationStage21analyze_pytorch_usage0B9_
FNDA:0,_RNCNvMs0_NtCs2Yt0WxJROpx_6batuta8pipelineNtB7_18TranspilationStage21analyze_sklearn_usage0B9_
FNDA:0,_RNCNvMs_NtCs2Yt0WxJROpx_6batuta8pipelineNtB6_21TranspilationPipeline3run0B8_
FNDA:0,_RNvMNtCs2Yt0WxJROpx_6batuta8pipelineNtB2_15PipelineContext6output
FNDA:0,_RNvMs0_NtCs2Yt0WxJROpx_6batuta8pipelineNtB5_18TranspilationStage19analyze_numpy_usage
FNDA:0,_RNvMs0_NtCs2Yt0WxJROpx_6batuta8pipelineNtB5_18TranspilationStage21analyze_pytorch_usage
FNDA:0,_RNvMs0_NtCs2Yt0WxJROpx_6batuta8pipelineNtB5_18TranspilationStage21analyze_sklearn_usage
FNDA:0,_RNvMs0_NtCs2Yt0WxJROpx_6batuta8pipelineNtB5_18TranspilationStage3new
FNDA:0,_RNvMs1_NtCs2Yt0WxJROpx_6batuta8pipelineNtB5_17OptimizationStage21analyze_optimizations
FNDA:0,_RNvMs1_NtCs2Yt0WxJROpx_6batuta8pipelineNtB5_17OptimizationStage3new
FNDA:0,_RNvMs3_NtCs2Yt0WxJROpx_6batuta8pipelineNtB5_10BuildStage3new
FNDA:0,_RNvMs_NtCs2Yt0WxJROpx_6batuta8pipelineNtB4_21TranspilationPipeline3new
FNDA:0,_RNvMs_NtCs2Yt0WxJROpx_6batuta8pipelineNtB4_21TranspilationPipeline3run
FNDA:0,_RNvMs_NtCs2Yt0WxJROpx_6batuta8pipelineNtB4_21TranspilationPipeline9add_stage
FNDA:0,_RNvXsg_NtCs2Yt0WxJROpx_6batuta8pipelineNtB5_13AnalysisStageNtB5_13PipelineStage4name
FNDA:0,_RNvXsg_NtCs2Yt0WxJROpx_6batuta8pipelineNtB5_13AnalysisStageNtB5_13PipelineStage7execute
FNDA:0,_RNvXsg_NtCs2Yt0WxJROpx_6batuta8pipelineNtB5_13AnalysisStageNtB5_13PipelineStage8validate
FNDA:0,_RNvXsh_NtCs2Yt0WxJROpx_6batuta8pipelineNtB5_18TranspilationStageNtB5_13PipelineStage4name
FNDA:0,_RNvXsh_NtCs2Yt0WxJROpx_6batuta8pipelineNtB5_18TranspilationStageNtB5_13PipelineStage7execute
FNDA:0,_RNvXsh_NtCs2Yt0WxJROpx_6batuta8pipelineNtB5_18TranspilationStageNtB5_13PipelineStage8validate
FNDA:0,_RNvXsi_NtCs2Yt0WxJROpx_6batuta8pipelineNtB5_17OptimizationStageNtB5_13PipelineStage4name
FNDA:0,_RNvXsi_NtCs2Yt0WxJROpx_6batuta8pipelineNtB5_17OptimizationStageNtB5_13PipelineStage7execute
FNDA:0,_RNvXsk_NtCs2Yt0WxJROpx_6batuta8pipelineNtB5_10BuildStageNtB5_13PipelineStage4name
FNDA:0,_RNvXsk_NtCs2Yt0WxJROpx_6batuta8pipelineNtB5_10BuildStageNtB5_13PipelineStage7execute
FNDA:0,_RNvXsk_NtCs2Yt0WxJROpx_6batuta8pipelineNtB5_10BuildStageNtB5_13PipelineStage8validate
FNDA:0,_RNvYpNtNtCs2Yt0WxJROpx_6batuta8pipeline13PipelineStage8validateB7_
FNDA:0,_RNCNvMs2_NtCs2Yt0WxJROpx_6batuta8pipelineNtB7_15ValidationStage12trace_binary0B9_
FNDA:0,_RNCNvMs2_NtCs2Yt0WxJROpx_6batuta8pipelineNtB7_15ValidationStage12trace_binarys_0B9_
FNDA:0,_RNCNvMs2_NtCs2Yt0WxJROpx_6batuta8pipelineNtB7_15ValidationStage17trace_and_compare0B9_
FNDA:0,_RNvMNtCs2Yt0WxJROpx_6batuta8pipelineNtB2_15PipelineContext3new
FNDA:0,_RNvMs2_NtCs2Yt0WxJROpx_6batuta8pipelineNtB5_15ValidationStage12trace_binary
FNDA:0,_RNvMs2_NtCs2Yt0WxJROpx_6batuta8pipelineNtB5_15ValidationStage14compare_traces
FNDA:0,_RNvMs2_NtCs2Yt0WxJROpx_6batuta8pipelineNtB5_15ValidationStage17trace_and_compare
FNDA:0,_RNvMs2_NtCs2Yt0WxJROpx_6batuta8pipelineNtB5_15ValidationStage3new
FNDA:0,_RNvXsj_NtCs2Yt0WxJROpx_6batuta8pipelineNtB5_15ValidationStageNtB5_13PipelineStage4name
FNDA:0,_RNvXsj_NtCs2Yt0WxJROpx_6batuta8pipelineNtB5_15ValidationStageNtB5_13PipelineStage7execute
FNDA:0,_RNvXsk_NtCsjH0PaGjVXp8_6batuta8pipelineNtB5_10BuildStageNtB5_13PipelineStage7execute
FNDA:0,_RNvYpNtNtCsjH0PaGjVXp8_6batuta8pipeline13PipelineStage8validateB7_
FNDA:1,_RNCNCNvNtNtCsjH0PaGjVXp8_6batuta8pipeline5testss_31test_optimization_stage_execute00B9_
FNDA:2,_RNCNCNvNtNtCsjH0PaGjVXp8_6batuta8pipeline5testss_31test_optimization_stage_execute0s_0B9_
FNDA:4,_RNCNCNvNtNtCsjH0PaGjVXp8_6batuta8pipeline5testss_32test_optimization_stage_gpu_only00B9_
FNDA:1,_RNCNCNvNtNtCsjH0PaGjVXp8_6batuta8pipeline5testss_32test_optimization_stage_gpu_only0s0_0B9_
FNDA:1,_RNCNCNvNtNtCsjH0PaGjVXp8_6batuta8pipeline5testss_32test_optimization_stage_gpu_only0s_0B9_
FNDA:1,_RNCNCNvNtNtCsjH0PaGjVXp8_6batuta8pipeline5testss_33test_optimization_stage_simd_only00B9_
FNDA:4,_RNCNCNvNtNtCsjH0PaGjVXp8_6batuta8pipeline5testss_33test_optimization_stage_simd_only0s_0B9_
FNDA:1,_RNCNvNtNtCsjH0PaGjVXp8_6batuta8pipeline5testss_22test_pipeline_creation0B7_
FNDA:1,_RNCNvNtNtCsjH0PaGjVXp8_6batuta8pipeline5testss_23test_pipeline_add_stage0B7_
FNDA:1,_RNCNvNtNtCsjH0PaGjVXp8_6batuta8pipeline5testss_27test_pipeline_no_validation0B7_
FNDA:1,_RNCNvNtNtCsjH0PaGjVXp8_6batuta8pipeline5testss_27test_pipeline_run_no_stages0B7_
FNDA:1,_RNCNvNtNtCsjH0PaGjVXp8_6batuta8pipeline5testss_30test_pipeline_run_single_stage0B7_
FNDA:1,_RNCNvNtNtCsjH0PaGjVXp8_6batuta8pipeline5testss_31test_optimization_stage_execute0B7_
FNDA:1,_RNCNvNtNtCsjH0PaGjVXp8_6batuta8pipeline5testss_32test_optimization_stage_gpu_only0B7_
FNDA:1,_RNCNvNtNtCsjH0PaGjVXp8_6batuta8pipeline5testss_33test_optimization_stage_simd_only0B7_
FNDA:1,_RNCNvNtNtCsjH0PaGjVXp8_6batuta8pipeline5testss_33test_pipeline_run_multiple_stages0B7_
FNDA:1,_RNCNvNtNtCsjH0PaGjVXp8_6batuta8pipeline5testss_35test_pipeline_stage_execution_order0B7_
FNDA:1,_RNCNvNtNtCsjH0PaGjVXp8_6batuta8pipeline5testss_37test_pipeline_stop_on_error_execution0B7_
FNDA:1,_RNCNvNtNtCsjH0PaGjVXp8_6batuta8pipeline5testss_38test_pipeline_stop_on_error_validation0B7_
FNDA:1,_RNCNvNtNtCsjH0PaGjVXp8_6batuta8pipeline5testss_41test_validation_stage_execute_no_binaries0B7_
FNDA:1,_RNCNvNtNtCsjH0PaGjVXp8_6batuta8pipeline5testss_42test_pipeline_continue_on_error_validation0B7_
FNDA:1,_RNCNvNtNtCsjH0PaGjVXp8_6batuta8pipeline5testss_43test_analysis_stage_execute_empty_directory0B7_
FNDA:1,_RNCNvNtNtCsjH0PaGjVXp8_6batuta8pipeline5testss_44test_transpilation_stage_creates_directories0B7_
FNDA:1,_RNCNvNtNtCsjH0PaGjVXp8_6batuta8pipeline5testss_45test_analysis_stage_execute_with_rust_project0B7_
FNDA:1,_RNCNvNtNtCsjH0PaGjVXp8_6batuta8pipeline5testss_45test_validation_stage_execute_without_tracing0B7_
FNDA:1,_RNCNvNtNtCsjH0PaGjVXp8_6batuta8pipeline5testss_47test_analysis_stage_execute_with_python_project0B7_
FNDA:1,_RNvMNtNtCsjH0PaGjVXp8_6batuta8pipeline5testsNtB2_9MockStage22with_execution_failure
FNDA:4,_RNvMNtNtCsjH0PaGjVXp8_6batuta8pipeline5testsNtB2_9MockStage23with_validation_failure
FNDA:20,_RNvMNtNtCsjH0PaGjVXp8_6batuta8pipeline5testsNtB2_9MockStage3new
FNDA:1,_RNvNtNtCsjH0PaGjVXp8_6batuta8pipeline5testss_21test_build_stage_name
FNDA:1,_RNvNtNtCsjH0PaGjVXp8_6batuta8pipeline5testss_22test_pipeline_creation
FNDA:1,_RNvNtNtCsjH0PaGjVXp8_6batuta8pipeline5testss_23test_pipeline_add_stage
FNDA:1,_RNvNtNtCsjH0PaGjVXp8_6batuta8pipeline5testss_24test_analysis_stage_name
FNDA:1,_RNvNtNtCsjH0PaGjVXp8_6batuta8pipeline5testss_25test_build_stage_creation
FNDA:1,_RNvNtNtCsjH0PaGjVXp8_6batuta8pipeline5testss_26test_pipeline_output_clone
FNDA:1,_RNvNtNtCsjH0PaGjVXp8_6batuta8pipeline5testss_26test_validation_stage_name
FNDA:1,_RNvNtNtCsjH0PaGjVXp8_6batuta8pipeline5testss_27test_pipeline_context_clone
FNDA:1,_RNvNtNtCsjH0PaGjVXp8_6batuta8pipeline5testss_27test_pipeline_no_validation
FNDA:1,_RNvNtNtCsjH0PaGjVXp8_6batuta8pipeline5testss_27test_pipeline_run_no_stages
FNDA:1,_RNvNtNtCsjH0PaGjVXp8_6batuta8pipeline5testss_28test_optimization_stage_name
FNDA:1,_RNvNtNtCsjH0PaGjVXp8_6batuta8pipeline5testss_28test_pipeline_context_output
FNDA:1,_RNvNtNtCsjH0PaGjVXp8_6batuta8pipeline5testss_28test_validation_result_clone
FNDA:1,_RNvNtNtCsjH0PaGjVXp8_6batuta8pipeline5testss_29test_transpilation_stage_name
FNDA:1,_RNvNtNtCsjH0PaGjVXp8_6batuta8pipeline5testss_29test_validation_result_failed
FNDA:1,_RNvNtNtCsjH0PaGjVXp8_6batuta8pipeline5testss_29test_validation_result_passed
FNDA:1,_RNvNtNtCsjH0PaGjVXp8_6batuta8pipeline5testss_29test_validation_strategy_copy
FNDA:1,_RNvNtNtCsjH0PaGjVXp8_6batuta8pipeline5testss_30test_build_stage_creation_wasm
FNDA:1,_RNvNtNtCsjH0PaGjVXp8_6batuta8pipeline5testss_30test_pipeline_context_creation
FNDA:1,_RNvNtNtCsjH0PaGjVXp8_6batuta8pipeline5testss_30test_pipeline_context_metadata
FNDA:1,_RNvNtNtCsjH0PaGjVXp8_6batuta8pipeline5testss_30test_pipeline_run_single_stage
FNDA:1,_RNvNtNtCsjH0PaGjVXp8_6batuta8pipeline5testss_30test_validation_stage_creation
FNDA:1,_RNvNtNtCsjH0PaGjVXp8_6batuta8pipeline5testss_31test_optimization_stage_execute
FNDA:1,_RNvNtNtCsjH0PaGjVXp8_6batuta8pipeline5testss_32test_optimization_stage_creation
FNDA:1,_RNvNtNtCsjH0PaGjVXp8_6batuta8pipeline5testss_32test_optimization_stage_gpu_only
FNDA:1,_RNvNtNtCsjH0PaGjVXp8_6batuta8pipeline5testss_33test_optimization_stage_simd_only
FNDA:1,_RNvNtNtCsjH0PaGjVXp8_6batuta8pipeline5testss_33test_pipeline_run_multiple_stages
FNDA:1,_RNvNtNtCsjH0PaGjVXp8_6batuta8pipeline5testss_33test_transpilation_stage_creation
FNDA:1,_RNvNtNtCsjH0PaGjVXp8_6batuta8pipeline5testss_33test_validation_strategy_equality
FNDA:1,_RNvNtNtCsjH0PaGjVXp8_6batuta8pipeline5testss_34test_pipeline_output_serialization
FNDA:1,_RNvNtNtCsjH0PaGjVXp8_6batuta8pipeline5testss_35test_pipeline_context_file_mappings
FNDA:1,_RNvNtNtCsjH0PaGjVXp8_6batuta8pipeline5testss_35test_pipeline_context_optimizations
FNDA:1,_RNvNtNtCsjH0PaGjVXp8_6batuta8pipeline5testss_35test_pipeline_context_serialization
FNDA:1,_RNvNtNtCsjH0PaGjVXp8_6batuta8pipeline5testss_35test_pipeline_context_with_language
FNDA:1,_RNvNtNtCsjH0PaGjVXp8_6batuta8pipeline5testss_35test_pipeline_stage_execution_order
FNDA:1,_RNvNtNtCsjH0PaGjVXp8_6batuta8pipeline5testss_35test_validation_result_with_details
FNDA:1,_RNvNtNtCsjH0PaGjVXp8_6batuta8pipeline5testss_36test_validation_result_serialization
FNDA:1,_RNvNtNtCsjH0PaGjVXp8_6batuta8pipeline5testss_37test_build_stage_validate_debug_build
FNDA:1,_RNvNtNtCsjH0PaGjVXp8_6batuta8pipeline5testss_37test_pipeline_stop_on_error_execution
FNDA:1,_RNvNtNtCsjH0PaGjVXp8_6batuta8pipeline5testss_38test_build_stage_validate_no_build_dir
FNDA:1,_RNvNtNtCsjH0PaGjVXp8_6batuta8pipeline5testss_38test_optimization_stage_no_gpu_no_simd
FNDA:1,_RNvNtNtCsjH0PaGjVXp8_6batuta8pipeline5testss_38test_pipeline_stop_on_error_validation
FNDA:1,_RNvNtNtCsjH0PaGjVXp8_6batuta8pipeline5testss_39test_build_stage_validate_release_build
FNDA:1,_RNvNtNtCsjH0PaGjVXp8_6batuta8pipeline5testss_40test_analysis_stage_validate_no_language
FNDA:1,_RNvNtNtCsjH0PaGjVXp8_6batuta8pipeline5testss_40test_pipeline_context_validation_results
FNDA:1,_RNvNtNtCsjH0PaGjVXp8_6batuta8pipeline5testss_41test_validation_stage_execute_no_binaries
FNDA:1,_RNvNtNtCsjH0PaGjVXp8_6batuta8pipeline5testss_42test_analysis_stage_validate_with_language
FNDA:1,_RNvNtNtCsjH0PaGjVXp8_6batuta8pipeline5testss_42test_pipeline_continue_on_error_validation
FNDA:1,_RNvNtNtCsjH0PaGjVXp8_6batuta8pipeline5testss_43test_analysis_stage_execute_empty_directory
FNDA:1,_RNvNtNtCsjH0PaGjVXp8_6batuta8pipeline5testss_44test_transpilation_stage_creates_directories
FNDA:1,_RNvNtNtCsjH0PaGjVXp8_6batuta8pipeline5testss_44test_transpilation_stage_validate_with_files
FNDA:1,_RNvNtNtCsjH0PaGjVXp8_6batuta8pipeline5testss_45test_analysis_stage_execute_with_rust_project
FNDA:1,_RNvNtNtCsjH0PaGjVXp8_6batuta8pipeline5testss_45test_optimization_stage_analyze_optimizations
FNDA:1,_RNvNtNtCsjH0PaGjVXp8_6batuta8pipeline5testss_45test_validation_stage_execute_without_tracing
FNDA:1,_RNvNtNtCsjH0PaGjVXp8_6batuta8pipeline5testss_46test_pipeline_context_output_validation_failed
FNDA:1,_RNvNtNtCsjH0PaGjVXp8_6batuta8pipeline5testss_46test_transpilation_stage_validate_empty_output
FNDA:1,_RNvNtNtCsjH0PaGjVXp8_6batuta8pipeline5testss_46test_validation_stage_compare_traces_identical
FNDA:1,_RNvNtNtCsjH0PaGjVXp8_6batuta8pipeline5testss_47test_analysis_stage_execute_with_python_project
FNDA:1,_RNvNtNtCsjH0PaGjVXp8_6batuta8pipeline5testss_53test_validation_stage_compare_traces_different_length
FNDA:1,_RNvNtNtCsjH0PaGjVXp8_6batuta8pipeline5testss_55test_validation_stage_compare_traces_different_syscalls
FNDA:1,_RNvNtNtCsjH0PaGjVXp8_6batuta8pipeline5testss_64test_validation_stage_compare_traces_same_syscall_different_args
FNDA:2,_RNvXs_NtNtCsjH0PaGjVXp8_6batuta8pipeline5testsNtB4_9MockStageNtB6_13PipelineStage4name
FNDA:16,_RNvXs_NtNtCsjH0PaGjVXp8_6batuta8pipeline5testsNtB4_9MockStageNtB6_13PipelineStage7execute
FNDA:6,_RNvXs_NtNtCsjH0PaGjVXp8_6batuta8pipeline5testsNtB4_9MockStageNtB6_13PipelineStage8validate
FNDA:1,_RNCNCNvMs_NtCsjH0PaGjVXp8_6batuta8pipelineNtB8_21TranspilationPipeline3run00Ba_
FNDA:0,_RNCNCNvXsh_NtCsjH0PaGjVXp8_6batuta8pipelineNtB9_18TranspilationStageNtB9_13PipelineStage7execute0s0_0Bb_
FNDA:0,_RNCNCNvXsh_NtCsjH0PaGjVXp8_6batuta8pipelineNtB9_18TranspilationStageNtB9_13PipelineStage7execute0s_0Bb_
FNDA:0,_RNCNvMs0_NtCsjH0PaGjVXp8_6batuta8pipelineNtB7_18TranspilationStage19analyze_numpy_usage0B9_
FNDA:0,_RNCNvMs0_NtCsjH0PaGjVXp8_6batuta8pipelineNtB7_18TranspilationStage21analyze_pytorch_usage0B9_
FNDA:0,_RNCNvMs0_NtCsjH0PaGjVXp8_6batuta8pipelineNtB7_18TranspilationStage21analyze_sklearn_usage0B9_
FNDA:0,_RNCNvMs2_NtCsjH0PaGjVXp8_6batuta8pipelineNtB7_15ValidationStage12trace_binary0B9_
FNDA:0,_RNCNvMs2_NtCsjH0PaGjVXp8_6batuta8pipelineNtB7_15ValidationStage12trace_binarys_0B9_
FNDA:0,_RNCNvMs2_NtCsjH0PaGjVXp8_6batuta8pipelineNtB7_15ValidationStage17trace_and_compare0B9_
FNDA:8,_RNCNvMs_NtCsjH0PaGjVXp8_6batuta8pipelineNtB6_21TranspilationPipeline3run0B8_
FNDA:38,_RNvMNtCsjH0PaGjVXp8_6batuta8pipelineNtB2_15PipelineContext3new
FNDA:8,_RNvMNtCsjH0PaGjVXp8_6batuta8pipelineNtB2_15PipelineContext6output
FNDA:0,_RNvMs0_NtCsjH0PaGjVXp8_6batuta8pipelineNtB5_18TranspilationStage19analyze_numpy_usage
FNDA:0,_RNvMs0_NtCsjH0PaGjVXp8_6batuta8pipelineNtB5_18TranspilationStage21analyze_pytorch_usage
FNDA:0,_RNvMs0_NtCsjH0PaGjVXp8_6batuta8pipelineNtB5_18TranspilationStage21analyze_sklearn_usage
FNDA:5,_RNvMs0_NtCsjH0PaGjVXp8_6batuta8pipelineNtB5_18TranspilationStage3new
FNDA:5,_RNvMs1_NtCsjH0PaGjVXp8_6batuta8pipelineNtB5_17OptimizationStage21analyze_optimizations
FNDA:7,_RNvMs1_NtCsjH0PaGjVXp8_6batuta8pipelineNtB5_17OptimizationStage3new
FNDA:0,_RNvMs2_NtCsjH0PaGjVXp8_6batuta8pipelineNtB5_15ValidationStage12trace_binary
FNDA:4,_RNvMs2_NtCsjH0PaGjVXp8_6batuta8pipelineNtB5_15ValidationStage14compare_traces
FNDA:0,_RNvMs2_NtCsjH0PaGjVXp8_6batuta8pipelineNtB5_15ValidationStage17trace_and_compare
FNDA:4,_RNvMs2_NtCsjH0PaGjVXp8_6batuta8pipelineNtB5_15ValidationStage3new
FNDA:6,_RNvMs3_NtCsjH0PaGjVXp8_6batuta8pipelineNtB5_10BuildStage3new
FNDA:10,_RNvMs_NtCsjH0PaGjVXp8_6batuta8pipelineNtB4_21TranspilationPipeline3new
FNDA:8,_RNvMs_NtCsjH0PaGjVXp8_6batuta8pipelineNtB4_21TranspilationPipeline3run
FNDA:20,_RNvMs_NtCsjH0PaGjVXp8_6batuta8pipelineNtB4_21TranspilationPipeline9add_stage
FNDA:3,_RNvXsg_NtCsjH0PaGjVXp8_6batuta8pipelineNtB5_13AnalysisStageNtB5_13PipelineStage4name
FNDA:3,_RNvXsg_NtCsjH0PaGjVXp8_6batuta8pipelineNtB5_13AnalysisStageNtB5_13PipelineStage7execute
FNDA:2,_RNvXsg_NtCsjH0PaGjVXp8_6batuta8pipelineNtB5_13AnalysisStageNtB5_13PipelineStage8validate
FNDA:3,_RNvXsh_NtCsjH0PaGjVXp8_6batuta8pipelineNtB5_18TranspilationStageNtB5_13PipelineStage4name
FNDA:1,_RNvXsh_NtCsjH0PaGjVXp8_6batuta8pipelineNtB5_18TranspilationStageNtB5_13PipelineStage7execute
FNDA:2,_RNvXsh_NtCsjH0PaGjVXp8_6batuta8pipelineNtB5_18TranspilationStageNtB5_13PipelineStage8validate
FNDA:1,_RNvXsi_NtCsjH0PaGjVXp8_6batuta8pipelineNtB5_17OptimizationStageNtB5_13PipelineStage4name
FNDA:3,_RNvXsi_NtCsjH0PaGjVXp8_6batuta8pipelineNtB5_17OptimizationStageNtB5_13PipelineStage7execute
FNDA:1,_RNvXsj_NtCsjH0PaGjVXp8_6batuta8pipelineNtB5_15ValidationStageNtB5_13PipelineStage4name
FNDA:2,_RNvXsj_NtCsjH0PaGjVXp8_6batuta8pipelineNtB5_15ValidationStageNtB5_13PipelineStage7execute
FNDA:4,_RNvXsk_NtCsjH0PaGjVXp8_6batuta8pipelineNtB5_10BuildStageNtB5_13PipelineStage4name
FNDA:3,_RNvXsk_NtCsjH0PaGjVXp8_6batuta8pipelineNtB5_10BuildStageNtB5_13PipelineStage8validate
FNDA:1,_RNCNCNvMs_NtCshEp7d2sUZm6_6batuta8pipelineNtB8_21TranspilationPipeline3run00Ba_
FNDA:0,_RNCNCNvXsh_NtCshEp7d2sUZm6_6batuta8pipelineNtB9_18TranspilationStageNtB9_13PipelineStage7execute0s0_0Bb_
FNDA:0,_RNCNCNvXsh_NtCshEp7d2sUZm6_6batuta8pipelineNtB9_18TranspilationStageNtB9_13PipelineStage7execute0s_0Bb_
FNDA:0,_RNCNvMs0_NtCshEp7d2sUZm6_6batuta8pipelineNtB7_18TranspilationStage19analyze_numpy_usage0B9_
FNDA:0,_RNCNvMs0_NtCshEp7d2sUZm6_6batuta8pipelineNtB7_18TranspilationStage21analyze_pytorch_usage0B9_
FNDA:0,_RNCNvMs0_NtCshEp7d2sUZm6_6batuta8pipelineNtB7_18TranspilationStage21analyze_sklearn_usage0B9_
FNDA:0,_RNCNvMs2_NtCshEp7d2sUZm6_6batuta8pipelineNtB7_15ValidationStage12trace_binary0B9_
FNDA:0,_RNCNvMs2_NtCshEp7d2sUZm6_6batuta8pipelineNtB7_15ValidationStage12trace_binarys_0B9_
FNDA:0,_RNCNvMs2_NtCshEp7d2sUZm6_6batuta8pipelineNtB7_15ValidationStage17trace_and_compare0B9_
FNDA:8,_RNCNvMs_NtCshEp7d2sUZm6_6batuta8pipelineNtB6_21TranspilationPipeline3run0B8_
FNDA:1,_RNCNCNvNtNtCshEp7d2sUZm6_6batuta8pipeline5testss_31test_optimization_stage_execute00B9_
FNDA:2,_RNCNCNvNtNtCshEp7d2sUZm6_6batuta8pipeline5testss_31test_optimization_stage_execute0s_0B9_
FNDA:4,_RNCNCNvNtNtCshEp7d2sUZm6_6batuta8pipeline5testss_32test_optimization_stage_gpu_only00B9_
FNDA:1,_RNCNCNvNtNtCshEp7d2sUZm6_6batuta8pipeline5testss_32test_optimization_stage_gpu_only0s0_0B9_
FNDA:1,_RNCNCNvNtNtCshEp7d2sUZm6_6batuta8pipeline5testss_32test_optimization_stage_gpu_only0s_0B9_
FNDA:1,_RNCNCNvNtNtCshEp7d2sUZm6_6batuta8pipeline5testss_33test_optimization_stage_simd_only00B9_
FNDA:4,_RNCNCNvNtNtCshEp7d2sUZm6_6batuta8pipeline5testss_33test_optimization_stage_simd_only0s_0B9_
FNDA:1,_RNCNvNtNtCshEp7d2sUZm6_6batuta8pipeline5testss_22test_pipeline_creation0B7_
FNDA:1,_RNCNvNtNtCshEp7d2sUZm6_6batuta8pipeline5testss_23test_pipeline_add_stage0B7_
FNDA:1,_RNCNvNtNtCshEp7d2sUZm6_6batuta8pipeline5testss_27test_pipeline_no_validation0B7_
FNDA:1,_RNCNvNtNtCshEp7d2sUZm6_6batuta8pipeline5testss_27test_pipeline_run_no_stages0B7_
FNDA:1,_RNCNvNtNtCshEp7d2sUZm6_6batuta8pipeline5testss_30test_pipeline_run_single_stage0B7_
FNDA:1,_RNCNvNtNtCshEp7d2sUZm6_6batuta8pipeline5testss_31test_optimization_stage_execute0B7_
FNDA:1,_RNCNvNtNtCshEp7d2sUZm6_6batuta8pipeline5testss_32test_optimization_stage_gpu_only0B7_
FNDA:1,_RNCNvNtNtCshEp7d2sUZm6_6batuta8pipeline5testss_33test_optimization_stage_simd_only0B7_
FNDA:1,_RNCNvNtNtCshEp7d2sUZm6_6batuta8pipeline5testss_33test_pipeline_run_multiple_stages0B7_
FNDA:1,_RNCNvNtNtCshEp7d2sUZm6_6batuta8pipeline5testss_35test_pipeline_stage_execution_order0B7_
FNDA:1,_RNCNvNtNtCshEp7d2sUZm6_6batuta8pipeline5testss_37test_pipeline_stop_on_error_execution0B7_
FNDA:1,_RNCNvNtNtCshEp7d2sUZm6_6batuta8pipeline5testss_38test_pipeline_stop_on_error_validation0B7_
FNDA:1,_RNCNvNtNtCshEp7d2sUZm6_6batuta8pipeline5testss_41test_validation_stage_execute_no_binaries0B7_
FNDA:1,_RNCNvNtNtCshEp7d2sUZm6_6batuta8pipeline5testss_42test_pipeline_continue_on_error_validation0B7_
FNDA:1,_RNCNvNtNtCshEp7d2sUZm6_6batuta8pipeline5testss_43test_analysis_stage_execute_empty_directory0B7_
FNDA:1,_RNCNvNtNtCshEp7d2sUZm6_6batuta8pipeline5testss_44test_transpilation_stage_creates_directories0B7_
FNDA:1,_RNCNvNtNtCshEp7d2sUZm6_6batuta8pipeline5testss_45test_analysis_stage_execute_with_rust_project0B7_
FNDA:1,_RNCNvNtNtCshEp7d2sUZm6_6batuta8pipeline5testss_45test_validation_stage_execute_without_tracing0B7_
FNDA:1,_RNCNvNtNtCshEp7d2sUZm6_6batuta8pipeline5testss_47test_analysis_stage_execute_with_python_project0B7_
FNDA:0,_RNvXsk_NtCshEp7d2sUZm6_6batuta8pipelineNtB5_10BuildStageNtB5_13PipelineStage7execute
FNDA:0,_RNvYpNtNtCshEp7d2sUZm6_6batuta8pipeline13PipelineStage8validateB7_
FNDA:1,_RNvMNtNtCshEp7d2sUZm6_6batuta8pipeline5testsNtB2_9MockStage22with_execution_failure
FNDA:4,_RNvMNtNtCshEp7d2sUZm6_6batuta8pipeline5testsNtB2_9MockStage23with_validation_failure
FNDA:20,_RNvMNtNtCshEp7d2sUZm6_6batuta8pipeline5testsNtB2_9MockStage3new
FNDA:1,_RNvNtNtCshEp7d2sUZm6_6batuta8pipeline5testss_21test_build_stage_name
FNDA:1,_RNvNtNtCshEp7d2sUZm6_6batuta8pipeline5testss_22test_pipeline_creation
FNDA:1,_RNvNtNtCshEp7d2sUZm6_6batuta8pipeline5testss_23test_pipeline_add_stage
FNDA:1,_RNvNtNtCshEp7d2sUZm6_6batuta8pipeline5testss_24test_analysis_stage_name
FNDA:1,_RNvNtNtCshEp7d2sUZm6_6batuta8pipeline5testss_25test_build_stage_creation
FNDA:1,_RNvNtNtCshEp7d2sUZm6_6batuta8pipeline5testss_26test_pipeline_output_clone
FNDA:1,_RNvNtNtCshEp7d2sUZm6_6batuta8pipeline5testss_26test_validation_stage_name
FNDA:1,_RNvNtNtCshEp7d2sUZm6_6batuta8pipeline5testss_27test_pipeline_context_clone
FNDA:1,_RNvNtNtCshEp7d2sUZm6_6batuta8pipeline5testss_27test_pipeline_no_validation
FNDA:1,_RNvNtNtCshEp7d2sUZm6_6batuta8pipeline5testss_27test_pipeline_run_no_stages
FNDA:1,_RNvNtNtCshEp7d2sUZm6_6batuta8pipeline5testss_28test_optimization_stage_name
FNDA:1,_RNvNtNtCshEp7d2sUZm6_6batuta8pipeline5testss_28test_pipeline_context_output
FNDA:1,_RNvNtNtCshEp7d2sUZm6_6batuta8pipeline5testss_28test_validation_result_clone
FNDA:1,_RNvNtNtCshEp7d2sUZm6_6batuta8pipeline5testss_29test_transpilation_stage_name
FNDA:1,_RNvNtNtCshEp7d2sUZm6_6batuta8pipeline5testss_29test_validation_result_failed
FNDA:1,_RNvNtNtCshEp7d2sUZm6_6batuta8pipeline5testss_29test_validation_result_passed
FNDA:1,_RNvNtNtCshEp7d2sUZm6_6batuta8pipeline5testss_29test_validation_strategy_copy
FNDA:1,_RNvNtNtCshEp7d2sUZm6_6batuta8pipeline5testss_30test_build_stage_creation_wasm
FNDA:1,_RNvNtNtCshEp7d2sUZm6_6batuta8pipeline5testss_30test_pipeline_context_creation
FNDA:1,_RNvNtNtCshEp7d2sUZm6_6batuta8pipeline5testss_30test_pipeline_context_metadata
FNDA:1,_RNvNtNtCshEp7d2sUZm6_6batuta8pipeline5testss_30test_pipeline_run_single_stage
FNDA:1,_RNvNtNtCshEp7d2sUZm6_6batuta8pipeline5testss_30test_validation_stage_creation
FNDA:1,_RNvNtNtCshEp7d2sUZm6_6batuta8pipeline5testss_31test_optimization_stage_execute
FNDA:1,_RNvNtNtCshEp7d2sUZm6_6batuta8pipeline5testss_32test_optimization_stage_creation
FNDA:1,_RNvNtNtCshEp7d2sUZm6_6batuta8pipeline5testss_32test_optimization_stage_gpu_only
FNDA:1,_RNvNtNtCshEp7d2sUZm6_6batuta8pipeline5testss_33test_optimization_stage_simd_only
FNDA:1,_RNvNtNtCshEp7d2sUZm6_6batuta8pipeline5testss_33test_pipeline_run_multiple_stages
FNDA:1,_RNvNtNtCshEp7d2sUZm6_6batuta8pipeline5testss_33test_transpilation_stage_creation
FNDA:1,_RNvNtNtCshEp7d2sUZm6_6batuta8pipeline5testss_33test_validation_strategy_equality
FNDA:1,_RNvNtNtCshEp7d2sUZm6_6batuta8pipeline5testss_34test_pipeline_output_serialization
FNDA:1,_RNvNtNtCshEp7d2sUZm6_6batuta8pipeline5testss_35test_pipeline_context_file_mappings
FNDA:1,_RNvNtNtCshEp7d2sUZm6_6batuta8pipeline5testss_35test_pipeline_context_optimizations
FNDA:1,_RNvNtNtCshEp7d2sUZm6_6batuta8pipeline5testss_35test_pipeline_context_serialization
FNDA:1,_RNvNtNtCshEp7d2sUZm6_6batuta8pipeline5testss_35test_pipeline_context_with_language
FNDA:1,_RNvNtNtCshEp7d2sUZm6_6batuta8pipeline5testss_35test_pipeline_stage_execution_order
FNDA:1,_RNvNtNtCshEp7d2sUZm6_6batuta8pipeline5testss_35test_validation_result_with_details
FNDA:1,_RNvNtNtCshEp7d2sUZm6_6batuta8pipeline5testss_36test_validation_result_serialization
FNDA:1,_RNvNtNtCshEp7d2sUZm6_6batuta8pipeline5testss_37test_build_stage_validate_debug_build
FNDA:1,_RNvNtNtCshEp7d2sUZm6_6batuta8pipeline5testss_37test_pipeline_stop_on_error_execution
FNDA:1,_RNvNtNtCshEp7d2sUZm6_6batuta8pipeline5testss_38test_build_stage_validate_no_build_dir
FNDA:1,_RNvNtNtCshEp7d2sUZm6_6batuta8pipeline5testss_38test_optimization_stage_no_gpu_no_simd
FNDA:1,_RNvNtNtCshEp7d2sUZm6_6batuta8pipeline5testss_38test_pipeline_stop_on_error_validation
FNDA:1,_RNvNtNtCshEp7d2sUZm6_6batuta8pipeline5testss_39test_build_stage_validate_release_build
FNDA:1,_RNvNtNtCshEp7d2sUZm6_6batuta8pipeline5testss_40test_analysis_stage_validate_no_language
FNDA:1,_RNvNtNtCshEp7d2sUZm6_6batuta8pipeline5testss_40test_pipeline_context_validation_results
FNDA:1,_RNvNtNtCshEp7d2sUZm6_6batuta8pipeline5testss_41test_validation_stage_execute_no_binaries
FNDA:1,_RNvNtNtCshEp7d2sUZm6_6batuta8pipeline5testss_42test_analysis_stage_validate_with_language
FNDA:1,_RNvNtNtCshEp7d2sUZm6_6batuta8pipeline5testss_42test_pipeline_continue_on_error_validation
FNDA:1,_RNvNtNtCshEp7d2sUZm6_6batuta8pipeline5testss_43test_analysis_stage_execute_empty_directory
FNDA:1,_RNvNtNtCshEp7d2sUZm6_6batuta8pipeline5testss_44test_transpilation_stage_creates_directories
FNDA:1,_RNvNtNtCshEp7d2sUZm6_6batuta8pipeline5testss_44test_transpilation_stage_validate_with_files
FNDA:1,_RNvNtNtCshEp7d2sUZm6_6batuta8pipeline5testss_45test_analysis_stage_execute_with_rust_project
FNDA:1,_RNvNtNtCshEp7d2sUZm6_6batuta8pipeline5testss_45test_optimization_stage_analyze_optimizations
FNDA:1,_RNvNtNtCshEp7d2sUZm6_6batuta8pipeline5testss_45test_validation_stage_execute_without_tracing
FNDA:1,_RNvNtNtCshEp7d2sUZm6_6batuta8pipeline5testss_46test_pipeline_context_output_validation_failed
FNDA:1,_RNvNtNtCshEp7d2sUZm6_6batuta8pipeline5testss_46test_transpilation_stage_validate_empty_output
FNDA:1,_RNvNtNtCshEp7d2sUZm6_6batuta8pipeline5testss_46test_validation_stage_compare_traces_identical
FNDA:1,_RNvNtNtCshEp7d2sUZm6_6batuta8pipeline5testss_47test_analysis_stage_execute_with_python_project
FNDA:1,_RNvNtNtCshEp7d2sUZm6_6batuta8pipeline5testss_53test_validation_stage_compare_traces_different_length
FNDA:1,_RNvNtNtCshEp7d2sUZm6_6batuta8pipeline5testss_55test_validation_stage_compare_traces_different_syscalls
FNDA:1,_RNvNtNtCshEp7d2sUZm6_6batuta8pipeline5testss_64test_validation_stage_compare_traces_same_syscall_different_args
FNDA:2,_RNvXs_NtNtCshEp7d2sUZm6_6batuta8pipeline5testsNtB4_9MockStageNtB6_13PipelineStage4name
FNDA:16,_RNvXs_NtNtCshEp7d2sUZm6_6batuta8pipeline5testsNtB4_9MockStageNtB6_13PipelineStage7execute
FNDA:6,_RNvXs_NtNtCshEp7d2sUZm6_6batuta8pipeline5testsNtB4_9MockStageNtB6_13PipelineStage8validate
FNDA:34,_RNvMNtCshEp7d2sUZm6_6batuta8pipelineNtB2_15PipelineContext3new
FNDA:8,_RNvMNtCshEp7d2sUZm6_6batuta8pipelineNtB2_15PipelineContext6output
FNDA:0,_RNvMs0_NtCshEp7d2sUZm6_6batuta8pipelineNtB5_18TranspilationStage19analyze_numpy_usage
FNDA:0,_RNvMs0_NtCshEp7d2sUZm6_6batuta8pipelineNtB5_18TranspilationStage21analyze_pytorch_usage
FNDA:0,_RNvMs0_NtCshEp7d2sUZm6_6batuta8pipelineNtB5_18TranspilationStage21analyze_sklearn_usage
FNDA:5,_RNvMs0_NtCshEp7d2sUZm6_6batuta8pipelineNtB5_18TranspilationStage3new
FNDA:5,_RNvMs1_NtCshEp7d2sUZm6_6batuta8pipelineNtB5_17OptimizationStage21analyze_optimizations
FNDA:7,_RNvMs1_NtCshEp7d2sUZm6_6batuta8pipelineNtB5_17OptimizationStage3new
FNDA:0,_RNvMs2_NtCshEp7d2sUZm6_6batuta8pipelineNtB5_15ValidationStage12trace_binary
FNDA:4,_RNvMs2_NtCshEp7d2sUZm6_6batuta8pipelineNtB5_15ValidationStage14compare_traces
FNDA:0,_RNvMs2_NtCshEp7d2sUZm6_6batuta8pipelineNtB5_15ValidationStage17trace_and_compare
FNDA:4,_RNvMs2_NtCshEp7d2sUZm6_6batuta8pipelineNtB5_15ValidationStage3new
FNDA:6,_RNvMs3_NtCshEp7d2sUZm6_6batuta8pipelineNtB5_10BuildStage3new
FNDA:10,_RNvMs_NtCshEp7d2sUZm6_6batuta8pipelineNtB4_21TranspilationPipeline3new
FNDA:8,_RNvMs_NtCshEp7d2sUZm6_6batuta8pipelineNtB4_21TranspilationPipeline3run
FNDA:20,_RNvMs_NtCshEp7d2sUZm6_6batuta8pipelineNtB4_21TranspilationPipeline9add_stage
FNDA:3,_RNvXsg_NtCshEp7d2sUZm6_6batuta8pipelineNtB5_13AnalysisStageNtB5_13PipelineStage4name
FNDA:3,_RNvXsg_NtCshEp7d2sUZm6_6batuta8pipelineNtB5_13AnalysisStageNtB5_13PipelineStage7execute
FNDA:2,_RNvXsg_NtCshEp7d2sUZm6_6batuta8pipelineNtB5_13AnalysisStageNtB5_13PipelineStage8validate
FNDA:3,_RNvXsh_NtCshEp7d2sUZm6_6batuta8pipelineNtB5_18TranspilationStageNtB5_13PipelineStage4name
FNDA:1,_RNvXsh_NtCshEp7d2sUZm6_6batuta8pipelineNtB5_18TranspilationStageNtB5_13PipelineStage7execute
FNDA:2,_RNvXsh_NtCshEp7d2sUZm6_6batuta8pipelineNtB5_18TranspilationStageNtB5_13PipelineStage8validate
FNDA:1,_RNvXsi_NtCshEp7d2sUZm6_6batuta8pipelineNtB5_17OptimizationStageNtB5_13PipelineStage4name
FNDA:3,_RNvXsi_NtCshEp7d2sUZm6_6batuta8pipelineNtB5_17OptimizationStageNtB5_13PipelineStage7execute
FNDA:1,_RNvXsj_NtCshEp7d2sUZm6_6batuta8pipelineNtB5_15ValidationStageNtB5_13PipelineStage4name
FNDA:2,_RNvXsj_NtCshEp7d2sUZm6_6batuta8pipelineNtB5_15ValidationStageNtB5_13PipelineStage7execute
FNDA:4,_RNvXsk_NtCshEp7d2sUZm6_6batuta8pipelineNtB5_10BuildStageNtB5_13PipelineStage4name
FNDA:3,_RNvXsk_NtCshEp7d2sUZm6_6batuta8pipelineNtB5_10BuildStageNtB5_13PipelineStage8validate
FNDA:1,_RNvMNtCsc3xvWSUKV5Z_6batuta8pipelineNtB2_15PipelineContext3new
FNDA:0,_RNvMNtCsc3xvWSUKV5Z_6batuta8pipelineNtB2_15PipelineContext6output
FNDA:0,_RNvMs0_NtCsc3xvWSUKV5Z_6batuta8pipelineNtB5_18TranspilationStage19analyze_numpy_usage
FNDA:0,_RNvMs0_NtCsc3xvWSUKV5Z_6batuta8pipelineNtB5_18TranspilationStage21analyze_pytorch_usage
FNDA:0,_RNvMs0_NtCsc3xvWSUKV5Z_6batuta8pipelineNtB5_18TranspilationStage21analyze_sklearn_usage
FNDA:0,_RNvMs0_NtCsc3xvWSUKV5Z_6batuta8pipelineNtB5_18TranspilationStage3new
FNDA:0,_RNvMs1_NtCsc3xvWSUKV5Z_6batuta8pipelineNtB5_17OptimizationStage21analyze_optimizations
FNDA:0,_RNvMs1_NtCsc3xvWSUKV5Z_6batuta8pipelineNtB5_17OptimizationStage3new
FNDA:0,_RNvMs2_NtCsc3xvWSUKV5Z_6batuta8pipelineNtB5_15ValidationStage12trace_binary
FNDA:0,_RNvMs2_NtCsc3xvWSUKV5Z_6batuta8pipelineNtB5_15ValidationStage14compare_traces
FNDA:0,_RNvMs2_NtCsc3xvWSUKV5Z_6batuta8pipelineNtB5_15ValidationStage17trace_and_compare
FNDA:1,_RNvMs2_NtCsc3xvWSUKV5Z_6batuta8pipelineNtB5_15ValidationStage3new
FNDA:0,_RNvMs3_NtCsc3xvWSUKV5Z_6batuta8pipelineNtB5_10BuildStage3new
FNDA:0,_RNvMs_NtCsc3xvWSUKV5Z_6batuta8pipelineNtB4_21TranspilationPipeline3new
FNDA:0,_RNvMs_NtCsc3xvWSUKV5Z_6batuta8pipelineNtB4_21TranspilationPipeline3run
FNDA:0,_RNvMs_NtCsc3xvWSUKV5Z_6batuta8pipelineNtB4_21TranspilationPipeline9add_stage
FNDA:0,_RNvXsg_NtCsc3xvWSUKV5Z_6batuta8pipelineNtB5_13AnalysisStageNtB5_13PipelineStage4name
FNDA:0,_RNvXsg_NtCsc3xvWSUKV5Z_6batuta8pipelineNtB5_13AnalysisStageNtB5_13PipelineStage7execute
FNDA:0,_RNvXsg_NtCsc3xvWSUKV5Z_6batuta8pipelineNtB5_13AnalysisStageNtB5_13PipelineStage8validate
FNDA:0,_RNvXsh_NtCsc3xvWSUKV5Z_6batuta8pipelineNtB5_18TranspilationStageNtB5_13PipelineStage4name
FNDA:0,_RNvXsh_NtCsc3xvWSUKV5Z_6batuta8pipelineNtB5_18TranspilationStageNtB5_13PipelineStage7execute
FNDA:0,_RNvXsh_NtCsc3xvWSUKV5Z_6batuta8pipelineNtB5_18TranspilationStageNtB5_13PipelineStage8validate
FNDA:0,_RNvXsi_NtCsc3xvWSUKV5Z_6batuta8pipelineNtB5_17OptimizationStageNtB5_13PipelineStage4name
FNDA:0,_RNvXsi_NtCsc3xvWSUKV5Z_6batuta8pipelineNtB5_17OptimizationStageNtB5_13PipelineStage7execute
FNDA:0,_RNvXsj_NtCsc3xvWSUKV5Z_6batuta8pipelineNtB5_15ValidationStageNtB5_13PipelineStage4name
FNDA:1,_RNvXsj_NtCsc3xvWSUKV5Z_6batuta8pipelineNtB5_15ValidationStageNtB5_13PipelineStage7execute
FNDA:0,_RNvXsk_NtCsc3xvWSUKV5Z_6batuta8pipelineNtB5_10BuildStageNtB5_13PipelineStage4name
FNDA:0,_RNvXsk_NtCsc3xvWSUKV5Z_6batuta8pipelineNtB5_10BuildStageNtB5_13PipelineStage7execute
FNDA:0,_RNvXsk_NtCsc3xvWSUKV5Z_6batuta8pipelineNtB5_10BuildStageNtB5_13PipelineStage8validate
FNDA:0,_RNCNCNvXsh_NtCsc3xvWSUKV5Z_6batuta8pipelineNtB9_18TranspilationStageNtB9_13PipelineStage7execute0s0_0Bb_
FNDA:0,_RNCNCNvXsh_NtCsc3xvWSUKV5Z_6batuta8pipelineNtB9_18TranspilationStageNtB9_13PipelineStage7execute0s_0Bb_
FNDA:0,_RNCNvMs0_NtCsc3xvWSUKV5Z_6batuta8pipelineNtB7_18TranspilationStage19analyze_numpy_usage0B9_
FNDA:0,_RNCNvMs0_NtCsc3xvWSUKV5Z_6batuta8pipelineNtB7_18TranspilationStage21analyze_pytorch_usage0B9_
FNDA:0,_RNCNvMs0_NtCsc3xvWSUKV5Z_6batuta8pipelineNtB7_18TranspilationStage21analyze_sklearn_usage0B9_
FNDA:0,_RNCNvMs2_NtCsc3xvWSUKV5Z_6batuta8pipelineNtB7_15ValidationStage12trace_binary0B9_
FNDA:0,_RNCNvMs2_NtCsc3xvWSUKV5Z_6batuta8pipelineNtB7_15ValidationStage12trace_binarys_0B9_
FNDA:0,_RNCNvMs2_NtCsc3xvWSUKV5Z_6batuta8pipelineNtB7_15ValidationStage17trace_and_compare0B9_
FNF:133
FNH:118
DA:57,73
DA:58,73
DA:59,73
DA:60,73
DA:61,73
DA:62,73
DA:63,73
DA:64,73
DA:65,73
DA:66,73
DA:67,73
DA:70,16
DA:72,16
DA:73,16
DA:74,16
DA:75,16
DA:77,16
DA:119,0
DA:121,0
DA:122,0
DA:123,0
DA:124,0
DA:125,0
DA:126,0
DA:127,0
DA:137,20
DA:138,20
DA:139,20
DA:140,20
DA:141,20
DA:142,20
DA:145,40
DA:146,40
DA:147,40
DA:148,40
DA:151,16
DA:152,16
DA:154,16
DA:156,32
DA:157,32
DA:160,32
DA:161,32
DA:164,30
DA:165,12
DA:166,12
DA:167,12
DA:169,12
DA:170,2
DA:171,2
DA:172,2
DA:175,10
DA:176,18
DA:179,12
DA:180,12
DA:181,16
DA:189,6
DA:190,6
DA:191,6
DA:193,6
DA:214,6
DA:216,4
DA:217,4
DA:219,4
DA:220,4
DA:221,4
DA:222,2
DA:224,2
DA:226,4
DA:228,4
DA:241,10
DA:242,10
DA:243,10
DA:244,10
DA:245,10
DA:246,10
DA:247,10
DA:248,10
DA:249,10
DA:253,0
DA:254,0
DA:256,0
DA:258,0
DA:259,0
DA:260,0
DA:261,0
DA:263,0
DA:264,0
DA:266,0
DA:267,0
DA:268,0
DA:271,0
DA:272,0
DA:273,0
DA:274,0
DA:275,0
DA:276,0
DA:277,0
DA:280,0
DA:281,0
DA:282,0
DA:283,0
DA:284,0
DA:285,0
DA:286,0
DA:287,0
DA:288,0
DA:289,0
DA:290,0
DA:292,0
DA:293,0
DA:294,0
DA:295,0
DA:297,0
DA:299,0
DA:300,0
DA:304,0
DA:305,0
DA:307,0
DA:309,0
DA:310,0
DA:311,0
DA:312,0
DA:314,0
DA:315,0
DA:317,0
DA:318,0
DA:319,0
DA:322,0
DA:323,0
DA:324,0
DA:325,0
DA:326,0
DA:327,0
DA:328,0
DA:329,0
DA:332,0
DA:333,0
DA:334,0
DA:335,0
DA:336,0
DA:337,0
DA:338,0
DA:339,0
DA:340,0
DA:341,0
DA:342,0
DA:343,0
DA:345,0
DA:346,0
DA:347,0
DA:348,0
DA:350,0
DA:352,0
DA:353,0
DA:357,0
DA:358,0
DA:360,0
DA:362,0
DA:363,0
DA:364,0
DA:365,0
DA:367,0
DA:368,0
DA:370,0
DA:371,0
DA:372,0
DA:373,0
DA:376,0
DA:377,0
DA:378,0
DA:379,0
DA:380,0
DA:381,0
DA:382,0
DA:383,0
DA:384,0
DA:385,0
DA:388,0
DA:389,0
DA:390,0
DA:391,0
DA:392,0
DA:393,0
DA:394,0
DA:395,0
DA:396,0
DA:397,0
DA:398,0
DA:399,0
DA:401,0
DA:402,0
DA:403,0
DA:404,0
DA:406,0
DA:408,0
DA:409,0
DA:414,6
DA:415,6
DA:416,6
DA:418,2
DA:420,0
DA:421,0
DA:590,2
DA:592,4
DA:594,4
DA:595,4
DA:598,4
DA:599,4
DA:600,4
DA:601,2
DA:603,2
DA:605,4
DA:607,4
DA:619,14
DA:620,14
DA:621,14
DA:622,14
DA:623,14
DA:624,14
DA:625,14
DA:626,14
DA:629,10
DA:632,10
DA:635,10
DA:636,10
DA:637,10
DA:638,10
DA:641,40
DA:642,30
DA:643,30
DA:644,30
DA:645,30
DA:647,10
DA:648,10
DA:653,2
DA:654,2
DA:655,2
DA:657,6
DA:693,6
DA:703,9
DA:704,9
DA:705,9
DA:706,9
DA:707,9
DA:708,9
DA:711,0
DA:712,0
DA:713,0
DA:714,0
DA:715,0
DA:717,0
DA:720,0
DA:723,0
DA:724,0
DA:727,0
DA:732,0
DA:733,0
DA:734,0
DA:735,0
DA:737,0
DA:738,0
DA:739,0
DA:740,0
DA:743,0
DA:744,0
DA:745,0
DA:746,0
DA:747,0
DA:748,0
DA:750,0
DA:751,0
DA:754,8
DA:757,8
DA:758,2
DA:759,6
DA:762,14
DA:764,14
DA:765,14
DA:767,14
DA:768,2
DA:769,12
DA:772,4
DA:773,8
DA:778,2
DA:779,2
DA:780,2
DA:782,5
DA:839,5
DA:850,12
DA:851,12
DA:852,12
DA:853,12
DA:854,12
DA:855,12
DA:856,12
DA:861,8
DA:862,8
DA:863,8
DA:865,0
DA:917,0
DA:919,6
DA:921,6
DA:922,4
DA:924,2
DA:927,6
DA:930,6
DA:931,6
DA:932,6
DA:933,4
DA:935,2
DA:937,6
DA:939,6
DA:952,2
DA:953,2
DA:954,2
DA:956,2
DA:958,2
DA:959,2
DA:960,2
DA:961,2
DA:962,2
DA:963,2
DA:964,2
DA:965,2
DA:968,2
DA:969,2
DA:970,2
DA:971,2
DA:974,2
DA:975,2
DA:976,2
DA:979,2
DA:980,2
DA:981,2
DA:982,2
DA:985,2
DA:986,2
DA:987,2
DA:988,2
DA:990,2
DA:991,2
DA:992,2
DA:993,2
DA:996,2
DA:997,2
DA:998,2
DA:999,2
DA:1002,2
DA:1003,2
DA:1005,2
DA:1006,2
DA:1007,2
DA:1008,2
DA:1011,2
DA:1012,2
DA:1013,2
DA:1014,2
DA:1017,2
DA:1018,2
DA:1019,2
DA:1020,2
DA:1021,2
DA:1022,2
DA:1024,2
DA:1025,2
DA:1026,2
DA:1027,2
DA:1030,2
DA:1031,2
DA:1032,2
DA:1033,2
DA:1036,2
DA:1037,2
DA:1039,2
DA:1040,2
DA:1041,2
DA:1042,2
DA:1045,2
DA:1046,2
DA:1047,2
DA:1048,2
DA:1051,2
DA:1052,2
DA:1053,2
DA:1054,2
DA:1055,2
DA:1056,2
DA:1057,2
DA:1058,2
DA:1059,2
DA:1060,2
DA:1061,2
DA:1063,2
DA:1065,2
DA:1066,2
DA:1067,2
DA:1068,2
DA:1069,2
DA:1072,2
DA:1073,2
DA:1074,2
DA:1075,2
DA:1079,2
DA:1080,2
DA:1081,2
DA:1082,2
DA:1083,2
DA:1084,2
DA:1085,2
DA:1086,2
DA:1087,2
DA:1088,2
DA:1089,2
DA:1090,2
DA:1092,2
DA:1095,2
DA:1096,2
DA:1103,2
DA:1104,2
DA:1105,2
DA:1106,2
DA:1107,2
DA:1108,2
DA:1109,2
DA:1111,2
DA:1112,2
DA:1113,2
DA:1114,2
DA:1115,2
DA:1118,2
DA:1119,2
DA:1120,2
DA:1121,2
DA:1122,2
DA:1123,2
DA:1124,2
DA:1126,2
DA:1127,2
DA:1128,2
DA:1129,2
DA:1130,2
DA:1133,2
DA:1134,2
DA:1135,2
DA:1136,2
DA:1139,2
DA:1140,2
DA:1141,2
DA:1142,2
DA:1143,2
DA:1144,2
DA:1146,2
DA:1147,2
DA:1154,2
DA:1155,2
DA:1156,2
DA:1157,2
DA:1159,2
DA:1160,2
DA:1161,2
DA:1162,2
DA:1175,40
DA:1176,40
DA:1177,40
DA:1178,40
DA:1179,40
DA:1180,40
DA:1181,40
DA:1183,2
DA:1184,2
DA:1185,2
DA:1186,2
DA:1188,8
DA:1189,8
DA:1190,8
DA:1191,8
DA:1196,4
DA:1197,4
DA:1198,4
DA:1200,32
DA:1211,32
DA:1213,12
DA:1215,12
DA:1216,12
DA:1217,12
DA:1218,8
DA:1220,4
DA:1222,12
DA:1224,12
DA:1228,2
DA:1229,2
DA:1230,2
DA:1231,2
DA:1232,2
DA:1235,2
DA:1236,2
DA:1237,2
DA:1238,2
DA:1240,2
DA:1241,2
DA:1244,2
DA:1245,2
DA:1247,2
DA:1248,2
DA:1250,2
DA:1251,2
DA:1253,2
DA:1254,2
DA:1255,2
DA:1256,2
DA:1259,2
DA:1260,2
DA:1261,2
DA:1263,2
DA:1264,2
DA:1266,2
DA:1267,2
DA:1269,2
DA:1270,2
DA:1271,2
DA:1274,2
DA:1275,2
DA:1276,2
DA:1277,2
DA:1278,2
DA:1280,2
DA:1281,2
DA:1283,2
DA:1284,2
DA:1285,2
DA:1288,2
DA:1289,2
DA:1290,2
DA:1291,2
DA:1292,2
DA:1294,2
DA:1295,2
DA:1297,2
DA:1298,2
DA:1302,2
DA:1305,2
DA:1306,2
DA:1307,2
DA:1308,2
DA:1309,2
DA:1311,2
DA:1312,2
DA:1314,2
DA:1315,2
DA:1317,2
DA:1318,2
DA:1319,2
DA:1322,2
DA:1323,2
DA:1324,2
DA:1325,2
DA:1326,2
DA:1328,2
DA:1329,2
DA:1331,2
DA:1332,2
DA:1334,2
DA:1335,2
DA:1336,2
DA:1339,2
DA:1340,2
DA:1341,2
DA:1342,2
DA:1343,2
DA:1345,2
DA:1346,2
DA:1348,2
DA:1349,2
DA:1352,2
DA:1353,2
DA:1354,2
DA:1357,2
DA:1358,2
DA:1359,2
DA:1360,2
DA:1362,2
DA:1363,2
DA:1365,2
DA:1366,2
DA:1369,2
DA:1371,2
DA:1372,2
DA:1379,2
DA:1380,2
DA:1381,2
DA:1382,2
DA:1383,2
DA:1384,2
DA:1385,2
DA:1386,2
DA:1389,2
DA:1390,2
DA:1391,2
DA:1392,2
DA:1399,2
DA:1400,2
DA:1401,2
DA:1402,2
DA:1403,2
DA:1404,2
DA:1407,2
DA:1408,2
DA:1409,2
DA:1410,2
DA:1413,2
DA:1414,2
DA:1415,2
DA:1418,2
DA:1421,2
DA:1422,2
DA:1423,2
DA:1424,2
DA:1427,2
DA:1428,2
DA:1430,2
DA:1431,2
DA:1432,2
DA:1435,2
DA:1436,2
DA:1438,2
DA:1441,2
DA:1442,2
DA:1443,4
DA:1446,2
DA:1447,2
DA:1448,2
DA:1451,2
DA:1452,2
DA:1454,2
DA:1455,2
DA:1456,2
DA:1459,2
DA:1460,2
DA:1462,2
DA:1465,2
DA:1466,8
DA:1467,2
DA:1470,2
DA:1471,2
DA:1473,2
DA:1474,2
DA:1475,2
DA:1478,2
DA:1479,2
DA:1481,2
DA:1484,8
DA:1485,2
DA:1486,2
DA:1487,2
DA:1494,2
DA:1495,2
DA:1496,2
DA:1497,2
DA:1498,2
DA:1501,2
DA:1502,2
DA:1503,2
DA:1504,2
DA:1507,2
DA:1508,2
DA:1509,2
DA:1510,2
DA:1511,2
DA:1514,2
DA:1515,2
DA:1516,2
DA:1517,2
DA:1520,2
DA:1521,2
DA:1524,2
DA:1525,2
DA:1526,2
DA:1527,2
DA:1530,2
DA:1531,2
DA:1534,2
DA:1535,2
DA:1538,2
DA:1539,2
DA:1540,2
DA:1541,2
DA:1544,2
DA:1545,2
DA:1546,2
DA:1549,2
DA:1550,2
DA:1553,2
DA:1555,2
DA:1556,2
DA:1557,2
DA:1560,2
DA:1561,2
DA:1562,2
DA:1565,2
DA:1566,2
DA:1573,2
DA:1574,2
DA:1575,2
DA:1576,2
DA:1577,2
DA:1578,2
DA:1581,2
DA:1582,2
DA:1583,2
DA:1584,2
DA:1585,2
DA:1586,2
DA:1589,2
DA:1590,2
DA:1591,2
DA:1592,2
DA:1595,2
DA:1596,2
DA:1598,2
DA:1599,2
DA:1600,2
DA:1603,2
DA:1604,2
DA:1606,2
DA:1607,2
DA:1608,2
DA:1609,2
DA:1616,2
DA:1617,2
DA:1618,2
DA:1619,2
DA:1622,2
DA:1623,2
DA:1625,2
DA:1626,2
DA:1627,2
DA:1630,2
DA:1631,2
DA:1633,2
DA:1634,2
DA:1635,2
DA:1636,2
DA:1639,2
DA:1640,2
DA:1642,2
DA:1643,2
DA:1644,2
DA:1646,2
DA:1648,2
DA:1649,2
DA:1651,2
DA:1652,2
DA:1653,2
DA:1654,2
DA:1661,2
DA:1662,2
DA:1663,2
DA:1664,2
DA:1666,2
DA:1667,2
DA:1668,2
DA:1670,2
DA:1671,2
DA:1673,2
DA:1674,2
DA:1675,2
DA:1676,2
DA:1677,2
DA:1678,2
DA:1681,2
DA:1682,2
DA:1683,2
DA:1684,2
DA:1685,2
DA:1686,2
DA:1687,2
DA:1689,2
DA:1690,2
DA:1692,2
DA:1693,2
DA:1694,2
DA:1695,2
DA:1696,2
DA:1699,2
DA:1700,2
DA:1701,2
DA:1702,2
DA:1703,2
DA:1704,2
DA:1705,2
DA:1707,2
DA:1708,2
DA:1710,2
DA:1711,2
DA:1712,2
DA:1713,2
DA:1714,2
DA:1722,2
DA:1725,2
DA:1726,2
DA:1727,2
DA:1728,2
DA:1730,2
DA:1731,2
DA:1732,2
DA:1733,2
DA:1736,2
DA:1737,2
DA:1739,2
DA:1740,2
DA:1741,2
DA:1742,2
DA:1743,2
DA:1747,2
DA:1750,2
DA:1751,2
DA:1753,2
DA:1754,2
DA:1755,2
DA:1756,2
DA:1759,2
DA:1760,2
DA:1762,2
DA:1763,2
DA:1764,2
DA:1768,2
DA:1771,2
DA:1773,2
DA:1774,2
DA:1775,2
DA:1776,2
DA:1779,2
DA:1780,2
DA:1782,2
DA:1783,2
DA:1784,2
DA:1792,2
DA:1795,2
DA:1796,2
DA:1798,2
DA:1799,2
DA:1800,2
DA:1801,2
DA:1803,2
DA:1806,2
DA:1809,2
DA:1810,2
DA:1811,2
DA:1814,2
DA:1817,2
DA:1818,2
DA:1819,2
DA:1821,2
DA:1822,2
DA:1823,2
DA:1824,2
DA:1827,2
DA:1828,2
DA:1830,2
DA:1832,2
DA:1833,2
DA:1836,2
DA:1839,2
DA:1840,2
DA:1841,2
DA:1842,2
DA:1844,2
DA:1845,2
DA:1846,2
DA:1847,2
DA:1850,2
DA:1851,2
DA:1853,2
DA:1854,2
DA:1855,2
DA:1862,2
DA:1865,2
DA:1866,2
DA:1867,2
DA:1869,2
DA:1870,2
DA:1871,2
DA:1872,2
DA:1875,2
DA:1876,2
DA:1878,2
DA:1879,2
DA:1880,2
DA:1883,2
DA:1886,2
DA:1887,2
DA:1888,2
DA:1890,2
DA:1891,2
DA:1892,2
DA:1893,2
DA:1896,2
DA:1897,2
DA:1899,2
DA:1900,2
DA:1901,2
DA:1908,2
DA:1911,2
DA:1913,2
DA:1914,2
DA:1915,2
DA:1916,2
DA:1919,2
DA:1920,2
DA:1922,2
DA:1923,2
DA:1924,2
DA:1927,2
DA:1928,2
DA:1929,2
DA:1930,2
DA:1931,2
DA:1934,2
DA:1935,2
DA:1937,2
DA:1938,2
DA:1939,2
DA:1940,2
DA:1941,2
DA:1942,2
DA:1949,2
DA:1950,2
DA:1951,2
DA:1952,2
DA:1954,2
DA:1956,2
DA:1957,2
DA:1958,2
DA:1959,2
DA:1960,2
DA:1963,2
DA:1964,2
DA:1965,2
DA:1966,2
DA:1967,2
DA:1968,2
DA:1969,2
DA:1971,2
DA:1972,2
DA:1973,2
DA:1974,2
DA:1977,2
DA:1978,2
DA:1979,2
DA:1980,2
DA:1981,2
DA:1982,2
DA:1983,2
DA:1985,2
DA:1986,2
DA:1987,2
DA:1988,2
DA:1991,2
DA:1992,2
DA:1993,2
DA:1994,2
DA:1995,2
DA:1998,2
DA:1999,2
DA:2000,2
DA:2003,2
DA:2004,2
BRF:0
BRH:0
LF:1021
LH:859
end_of_record
SF:/home/noah/src/batuta/src/plugin.rs
FN:352,_RNvXs2_NtCsjH0PaGjVXp8_6batuta6pluginNtB5_14PluginRegistryNtNtNtCs6RpC691fUBl_4core3ops4drop4Drop4drop
FN:619,_RNCNvNtNtCsjH0PaGjVXp8_6batuta6plugin5testss_33test_plugin_stage_execute_success0B7_
FN:582,_RNCNvNtNtCsjH0PaGjVXp8_6batuta6plugin5testss_37test_plugin_stage_execute_no_language0B7_
FN:600,_RNCNvNtNtCsjH0PaGjVXp8_6batuta6plugin5testss_46test_plugin_stage_execute_unsupported_language0B7_
FN:106,_RNvYNtNtNtCsjH0PaGjVXp8_6batuta6plugin5tests10TestPluginNtB6_16TranspilerPlugin10initializeB8_
FN:126,_RNvYNtNtNtCsjH0PaGjVXp8_6batuta6plugin5tests10TestPluginNtB6_16TranspilerPlugin14transpile_fileB8_
FN:141,_RNvYNtNtNtCsjH0PaGjVXp8_6batuta6plugin5tests10TestPluginNtB6_16TranspilerPlugin7cleanupB8_
FN:134,_RNvYNtNtNtCsjH0PaGjVXp8_6batuta6plugin5tests10TestPluginNtB6_16TranspilerPlugin8validateB8_
FN:106,_RNvYNtNtNtCsjH0PaGjVXp8_6batuta6plugin5tests13MinimalPluginNtB6_16TranspilerPlugin10initializeB8_
FN:126,_RNvYNtNtNtCsjH0PaGjVXp8_6batuta6plugin5tests13MinimalPluginNtB6_16TranspilerPlugin14transpile_fileB8_
FN:141,_RNvYNtNtNtCsjH0PaGjVXp8_6batuta6plugin5tests13MinimalPluginNtB6_16TranspilerPlugin7cleanupB8_
FN:134,_RNvYNtNtNtCsjH0PaGjVXp8_6batuta6plugin5tests13MinimalPluginNtB6_16TranspilerPlugin8validateB8_
FN:126,_RNvYNtNtNtCsjH0PaGjVXp8_6batuta6plugin5tests17FailingInitPluginNtB6_16TranspilerPlugin14transpile_fileB8_
FN:141,_RNvYNtNtNtCsjH0PaGjVXp8_6batuta6plugin5tests17FailingInitPluginNtB6_16TranspilerPlugin7cleanupB8_
FN:134,_RNvYNtNtNtCsjH0PaGjVXp8_6batuta6plugin5tests17FailingInitPluginNtB6_16TranspilerPlugin8validateB8_
FN:88,_RNvMNtCsjH0PaGjVXp8_6batuta6pluginNtB2_14PluginMetadata17supports_language
FN:304,_RNvMs0_NtCsjH0PaGjVXp8_6batuta6pluginNtB5_14PluginRegistry10unregister
FN:325,_RNvMs0_NtCsjH0PaGjVXp8_6batuta6pluginNtB5_14PluginRegistry11cleanup_all
FN:294,_RNvMs0_NtCsjH0PaGjVXp8_6batuta6pluginNtB5_14PluginRegistry12list_plugins
FN:285,_RNvMs0_NtCsjH0PaGjVXp8_6batuta6pluginNtB5_14PluginRegistry16get_for_language
FN:299,_RNvMs0_NtCsjH0PaGjVXp8_6batuta6pluginNtB5_14PluginRegistry19supported_languages
FN:267,_RNvMs0_NtCsjH0PaGjVXp8_6batuta6pluginNtB5_14PluginRegistry3get
FN:335,_RNvMs0_NtCsjH0PaGjVXp8_6batuta6pluginNtB5_14PluginRegistry3len
FN:238,_RNvMs0_NtCsjH0PaGjVXp8_6batuta6pluginNtB5_14PluginRegistry3new
FN:275,_RNvMs0_NtCsjH0PaGjVXp8_6batuta6pluginNtB5_14PluginRegistry7get_mut
FN:340,_RNvMs0_NtCsjH0PaGjVXp8_6batuta6pluginNtB5_14PluginRegistry8is_empty
FN:246,_RNvMs0_NtCsjH0PaGjVXp8_6batuta6pluginNtB5_14PluginRegistry8register
FN:153,_RNvMs_NtCsjH0PaGjVXp8_6batuta6pluginNtB4_11PluginStage3new
FN:346,_RNvXs1_NtCsjH0PaGjVXp8_6batuta6pluginNtB5_14PluginRegistryNtNtCs6RpC691fUBl_4core7default7Default7default
FN:161,_RNvXs5_NtCsjH0PaGjVXp8_6batuta6pluginNtB5_11PluginStageNtNtB7_8pipeline13PipelineStage4name
FN:165,_RNvXs5_NtCsjH0PaGjVXp8_6batuta6pluginNtB5_11PluginStageNtNtB7_8pipeline13PipelineStage7execute
FN:206,_RNvXs5_NtCsjH0PaGjVXp8_6batuta6pluginNtB5_11PluginStageNtNtB7_8pipeline13PipelineStage8validate
FN:510,_RNvXs_NtNtCsjH0PaGjVXp8_6batuta6plugin5testsNtB4_13MinimalPluginNtB6_16TranspilerPlugin8metadata
FN:172,_RNCNCNvXs5_NtCsjH0PaGjVXp8_6batuta6pluginNtB9_11PluginStageNtNtBb_8pipeline13PipelineStage7execute00Bb_
FN:305,_RNCNvMs0_NtCsjH0PaGjVXp8_6batuta6pluginNtB7_14PluginRegistry10unregister0B9_
FN:313,_RNCNvMs0_NtCsjH0PaGjVXp8_6batuta6pluginNtB7_14PluginRegistry10unregisters_0B9_
FN:295,_RNCNvMs0_NtCsjH0PaGjVXp8_6batuta6pluginNtB7_14PluginRegistry12list_plugins0B9_
FN:288,_RNCNvMs0_NtCsjH0PaGjVXp8_6batuta6pluginNtB7_14PluginRegistry16get_for_language0B9_
FN:289,_RNCNvMs0_NtCsjH0PaGjVXp8_6batuta6pluginNtB7_14PluginRegistry16get_for_languages_0B9_
FN:270,_RNCNvMs0_NtCsjH0PaGjVXp8_6batuta6pluginNtB7_14PluginRegistry3get0B9_
FN:709,_RNvNtNtCsjH0PaGjVXp8_6batuta6plugin5testss_17test_registry_len
FN:398,_RNvNtNtCsjH0PaGjVXp8_6batuta6plugin5testss_20test_language_lookup
FN:532,_RNvNtNtCsjH0PaGjVXp8_6batuta6plugin5testss_21test_plugin_transpile
FN:688,_RNvNtNtCsjH0PaGjVXp8_6batuta6plugin5testss_21test_registry_default
FN:727,_RNvNtNtCsjH0PaGjVXp8_6batuta6plugin5testss_21test_registry_get_mut
FN:416,_RNvNtNtCsjH0PaGjVXp8_6batuta6plugin5testss_22test_plugin_unregister
FN:695,_RNvNtNtCsjH0PaGjVXp8_6batuta6plugin5testss_22test_registry_is_empty
FN:384,_RNvNtNtCsjH0PaGjVXp8_6batuta6plugin5testss_24test_plugin_registration
FN:803,_RNvNtNtCsjH0PaGjVXp8_6batuta6plugin5testss_25test_registry_cleanup_all
FN:540,_RNvNtNtCsjH0PaGjVXp8_6batuta6plugin5testss_26test_plugin_transpile_file
FN:744,_RNvNtNtCsjH0PaGjVXp8_6batuta6plugin5testss_26test_registry_list_plugins
FN:561,_RNvNtNtCsjH0PaGjVXp8_6batuta6plugin5testss_27test_plugin_default_cleanup
FN:555,_RNvNtNtCsjH0PaGjVXp8_6batuta6plugin5testss_28test_plugin_default_validate
FN:852,_RNvNtNtCsjH0PaGjVXp8_6batuta6plugin5testss_29test_registry_get_nonexistent
FN:526,_RNvNtNtCsjH0PaGjVXp8_6batuta6plugin5testss_30test_plugin_default_initialize
FN:865,_RNvNtNtCsjH0PaGjVXp8_6batuta6plugin5testss_30test_plugin_multiple_languages
FN:571,_RNvNtNtCsjH0PaGjVXp8_6batuta6plugin5testss_30test_plugin_stage_construction
FN:437,_RNvNtNtCsjH0PaGjVXp8_6batuta6plugin5testss_33test_plugin_metadata_construction
FN:619,_RNvNtNtCsjH0PaGjVXp8_6batuta6plugin5testss_33test_plugin_stage_execute_success
FN:764,_RNvNtNtCsjH0PaGjVXp8_6batuta6plugin5testss_33test_registry_supported_languages
FN:904,_RNvNtNtCsjH0PaGjVXp8_6batuta6plugin5testss_34test_plugin_initialization_failure
FN:470,_RNvNtNtCsjH0PaGjVXp8_6batuta6plugin5testss_34test_plugin_metadata_serialization
FN:654,_RNvNtNtCsjH0PaGjVXp8_6batuta6plugin5testss_34test_plugin_stage_validate_success
FN:490,_RNvNtNtCsjH0PaGjVXp8_6batuta6plugin5testss_36test_plugin_metadata_empty_languages
FN:858,_RNvNtNtCsjH0PaGjVXp8_6batuta6plugin5testss_36test_registry_get_for_language_empty
FN:826,_RNvNtNtCsjH0PaGjVXp8_6batuta6plugin5testss_36test_registry_unregister_nonexistent
FN:582,_RNvNtNtCsjH0PaGjVXp8_6batuta6plugin5testss_37test_plugin_stage_execute_no_language
FN:454,_RNvNtNtCsjH0PaGjVXp8_6batuta6plugin5testss_38test_plugin_metadata_supports_language
FN:785,_RNvNtNtCsjH0PaGjVXp8_6batuta6plugin5testss_44test_registry_multiple_plugins_same_language
FN:835,_RNvNtNtCsjH0PaGjVXp8_6batuta6plugin5testss_45test_registry_unregister_updates_language_map
FN:600,_RNvNtNtCsjH0PaGjVXp8_6batuta6plugin5testss_46test_plugin_stage_execute_unsupported_language
FN:368,_RNvXNtNtCsjH0PaGjVXp8_6batuta6plugin5testsNtB2_10TestPluginNtB4_16TranspilerPlugin8metadata
FN:378,_RNvXNtNtCsjH0PaGjVXp8_6batuta6plugin5testsNtB2_10TestPluginNtB4_16TranspilerPlugin9transpile
FN:894,_RNvXs0_NtNtCsjH0PaGjVXp8_6batuta6plugin5testsNtB5_17FailingInitPluginNtB7_16TranspilerPlugin10initialize
FN:884,_RNvXs0_NtNtCsjH0PaGjVXp8_6batuta6plugin5testsNtB5_17FailingInitPluginNtB7_16TranspilerPlugin8metadata
FN:898,_RNvXs0_NtNtCsjH0PaGjVXp8_6batuta6plugin5testsNtB5_17FailingInitPluginNtB7_16TranspilerPlugin9transpile
FN:520,_RNvXs_NtNtCsjH0PaGjVXp8_6batuta6plugin5testsNtB4_13MinimalPluginNtB6_16TranspilerPlugin9transpile
FN:172,_RNCNCNvXs5_NtCsc3xvWSUKV5Z_6batuta6pluginNtB9_11PluginStageNtNtBb_8pipeline13PipelineStage7execute00Bb_
FN:305,_RNCNvMs0_NtCsc3xvWSUKV5Z_6batuta6pluginNtB7_14PluginRegistry10unregister0B9_
FN:313,_RNCNvMs0_NtCsc3xvWSUKV5Z_6batuta6pluginNtB7_14PluginRegistry10unregisters_0B9_
FN:295,_RNCNvMs0_NtCsc3xvWSUKV5Z_6batuta6pluginNtB7_14PluginRegistry12list_plugins0B9_
FN:288,_RNCNvMs0_NtCsc3xvWSUKV5Z_6batuta6pluginNtB7_14PluginRegistry16get_for_language0B9_
FN:289,_RNCNvMs0_NtCsc3xvWSUKV5Z_6batuta6pluginNtB7_14PluginRegistry16get_for_languages_0B9_
FN:270,_RNCNvMs0_NtCsc3xvWSUKV5Z_6batuta6pluginNtB7_14PluginRegistry3get0B9_
FN:88,_RNvMNtCsc3xvWSUKV5Z_6batuta6pluginNtB2_14PluginMetadata17supports_language
FN:304,_RNvMs0_NtCsc3xvWSUKV5Z_6batuta6pluginNtB5_14PluginRegistry10unregister
FN:325,_RNvMs0_NtCsc3xvWSUKV5Z_6batuta6pluginNtB5_14PluginRegistry11cleanup_all
FN:294,_RNvMs0_NtCsc3xvWSUKV5Z_6batuta6pluginNtB5_14PluginRegistry12list_plugins
FN:285,_RNvMs0_NtCsc3xvWSUKV5Z_6batuta6pluginNtB5_14PluginRegistry16get_for_language
FN:299,_RNvMs0_NtCsc3xvWSUKV5Z_6batuta6pluginNtB5_14PluginRegistry19supported_languages
FN:267,_RNvMs0_NtCsc3xvWSUKV5Z_6batuta6pluginNtB5_14PluginRegistry3get
FN:335,_RNvMs0_NtCsc3xvWSUKV5Z_6batuta6pluginNtB5_14PluginRegistry3len
FN:238,_RNvMs0_NtCsc3xvWSUKV5Z_6batuta6pluginNtB5_14PluginRegistry3new
FN:275,_RNvMs0_NtCsc3xvWSUKV5Z_6batuta6pluginNtB5_14PluginRegistry7get_mut
FN:340,_RNvMs0_NtCsc3xvWSUKV5Z_6batuta6pluginNtB5_14PluginRegistry8is_empty
FN:246,_RNvMs0_NtCsc3xvWSUKV5Z_6batuta6pluginNtB5_14PluginRegistry8register
FN:153,_RNvMs_NtCsc3xvWSUKV5Z_6batuta6pluginNtB4_11PluginStage3new
FN:346,_RNvXs1_NtCsc3xvWSUKV5Z_6batuta6pluginNtB5_14PluginRegistryNtNtCs6RpC691fUBl_4core7default7Default7default
FN:161,_RNvXs5_NtCsc3xvWSUKV5Z_6batuta6pluginNtB5_11PluginStageNtNtB7_8pipeline13PipelineStage4name
FN:165,_RNvXs5_NtCsc3xvWSUKV5Z_6batuta6pluginNtB5_11PluginStageNtNtB7_8pipeline13PipelineStage7execute
FN:206,_RNvXs5_NtCsc3xvWSUKV5Z_6batuta6pluginNtB5_11PluginStageNtNtB7_8pipeline13PipelineStage8validate
FN:352,_RNvXs2_NtCsc3xvWSUKV5Z_6batuta6pluginNtB5_14PluginRegistryNtNtNtCs6RpC691fUBl_4core3ops4drop4Drop4drop
FNDA:17,_RNvXs2_NtCsjH0PaGjVXp8_6batuta6pluginNtB5_14PluginRegistryNtNtNtCs6RpC691fUBl_4core3ops4drop4Drop4drop
FNDA:1,_RNCNvNtNtCsjH0PaGjVXp8_6batuta6plugin5testss_33test_plugin_stage_execute_success0B7_
FNDA:1,_RNCNvNtNtCsjH0PaGjVXp8_6batuta6plugin5testss_37test_plugin_stage_execute_no_language0B7_
FNDA:1,_RNCNvNtNtCsjH0PaGjVXp8_6batuta6plugin5testss_46test_plugin_stage_execute_unsupported_language0B7_
FNDA:17,_RNvYNtNtNtCsjH0PaGjVXp8_6batuta6plugin5tests10TestPluginNtB6_16TranspilerPlugin10initializeB8_
FNDA:1,_RNvYNtNtNtCsjH0PaGjVXp8_6batuta6plugin5tests10TestPluginNtB6_16TranspilerPlugin14transpile_fileB8_
FNDA:17,_RNvYNtNtNtCsjH0PaGjVXp8_6batuta6plugin5tests10TestPluginNtB6_16TranspilerPlugin7cleanupB8_
FNDA:1,_RNvYNtNtNtCsjH0PaGjVXp8_6batuta6plugin5tests10TestPluginNtB6_16TranspilerPlugin8validateB8_
FNDA:1,_RNvYNtNtNtCsjH0PaGjVXp8_6batuta6plugin5tests13MinimalPluginNtB6_16TranspilerPlugin10initializeB8_
FNDA:1,_RNvYNtNtNtCsjH0PaGjVXp8_6batuta6plugin5tests13MinimalPluginNtB6_16TranspilerPlugin14transpile_fileB8_
FNDA:1,_RNvYNtNtNtCsjH0PaGjVXp8_6batuta6plugin5tests13MinimalPluginNtB6_16TranspilerPlugin7cleanupB8_
FNDA:1,_RNvYNtNtNtCsjH0PaGjVXp8_6batuta6plugin5tests13MinimalPluginNtB6_16TranspilerPlugin8validateB8_
FNDA:0,_RNvYNtNtNtCsjH0PaGjVXp8_6batuta6plugin5tests17FailingInitPluginNtB6_16TranspilerPlugin14transpile_fileB8_
FNDA:0,_RNvYNtNtNtCsjH0PaGjVXp8_6batuta6plugin5tests17FailingInitPluginNtB6_16TranspilerPlugin7cleanupB8_
FNDA:0,_RNvYNtNtNtCsjH0PaGjVXp8_6batuta6plugin5tests17FailingInitPluginNtB6_16TranspilerPlugin8validateB8_
FNDA:15,_RNvMNtCsjH0PaGjVXp8_6batuta6pluginNtB2_14PluginMetadata17supports_language
FNDA:3,_RNvMs0_NtCsjH0PaGjVXp8_6batuta6pluginNtB5_14PluginRegistry10unregister
FNDA:18,_RNvMs0_NtCsjH0PaGjVXp8_6batuta6pluginNtB5_14PluginRegistry11cleanup_all
FNDA:1,_RNvMs0_NtCsjH0PaGjVXp8_6batuta6pluginNtB5_14PluginRegistry12list_plugins
FNDA:8,_RNvMs0_NtCsjH0PaGjVXp8_6batuta6pluginNtB5_14PluginRegistry16get_for_language
FNDA:4,_RNvMs0_NtCsjH0PaGjVXp8_6batuta6pluginNtB5_14PluginRegistry19supported_languages
FNDA:3,_RNvMs0_NtCsjH0PaGjVXp8_6batuta6pluginNtB5_14PluginRegistry3get
FNDA:10,_RNvMs0_NtCsjH0PaGjVXp8_6batuta6pluginNtB5_14PluginRegistry3len
FNDA:17,_RNvMs0_NtCsjH0PaGjVXp8_6batuta6pluginNtB5_14PluginRegistry3new
FNDA:2,_RNvMs0_NtCsjH0PaGjVXp8_6batuta6pluginNtB5_14PluginRegistry7get_mut
FNDA:4,_RNvMs0_NtCsjH0PaGjVXp8_6batuta6pluginNtB5_14PluginRegistry8is_empty
FNDA:18,_RNvMs0_NtCsjH0PaGjVXp8_6batuta6pluginNtB5_14PluginRegistry8register
FNDA:5,_RNvMs_NtCsjH0PaGjVXp8_6batuta6pluginNtB4_11PluginStage3new
FNDA:1,_RNvXs1_NtCsjH0PaGjVXp8_6batuta6pluginNtB5_14PluginRegistryNtNtCs6RpC691fUBl_4core7default7Default7default
FNDA:1,_RNvXs5_NtCsjH0PaGjVXp8_6batuta6pluginNtB5_11PluginStageNtNtB7_8pipeline13PipelineStage4name
FNDA:3,_RNvXs5_NtCsjH0PaGjVXp8_6batuta6pluginNtB5_11PluginStageNtNtB7_8pipeline13PipelineStage7execute
FNDA:1,_RNvXs5_NtCsjH0PaGjVXp8_6batuta6pluginNtB5_11PluginStageNtNtB7_8pipeline13PipelineStage8validate
FNDA:0,_RNvXs_NtNtCsjH0PaGjVXp8_6batuta6plugin5testsNtB4_13MinimalPluginNtB6_16TranspilerPlugin8metadata
FNDA:1,_RNCNCNvXs5_NtCsjH0PaGjVXp8_6batuta6pluginNtB9_11PluginStageNtNtBb_8pipeline13PipelineStage7execute00Bb_
FNDA:2,_RNCNvMs0_NtCsjH0PaGjVXp8_6batuta6pluginNtB7_14PluginRegistry10unregister0B9_
FNDA:2,_RNCNvMs0_NtCsjH0PaGjVXp8_6batuta6pluginNtB7_14PluginRegistry10unregisters_0B9_
FNDA:2,_RNCNvMs0_NtCsjH0PaGjVXp8_6batuta6pluginNtB7_14PluginRegistry12list_plugins0B9_
FNDA:8,_RNCNvMs0_NtCsjH0PaGjVXp8_6batuta6pluginNtB7_14PluginRegistry16get_for_language0B9_
FNDA:6,_RNCNvMs0_NtCsjH0PaGjVXp8_6batuta6pluginNtB7_14PluginRegistry16get_for_languages_0B9_
FNDA:1,_RNCNvMs0_NtCsjH0PaGjVXp8_6batuta6pluginNtB7_14PluginRegistry3get0B9_
FNDA:1,_RNvNtNtCsjH0PaGjVXp8_6batuta6plugin5testss_17test_registry_len
FNDA:1,_RNvNtNtCsjH0PaGjVXp8_6batuta6plugin5testss_20test_language_lookup
FNDA:1,_RNvNtNtCsjH0PaGjVXp8_6batuta6plugin5testss_21test_plugin_transpile
FNDA:1,_RNvNtNtCsjH0PaGjVXp8_6batuta6plugin5testss_21test_registry_default
FNDA:1,_RNvNtNtCsjH0PaGjVXp8_6batuta6plugin5testss_21test_registry_get_mut
FNDA:1,_RNvNtNtCsjH0PaGjVXp8_6batuta6plugin5testss_22test_plugin_unregister
FNDA:1,_RNvNtNtCsjH0PaGjVXp8_6batuta6plugin5testss_22test_registry_is_empty
FNDA:1,_RNvNtNtCsjH0PaGjVXp8_6batuta6plugin5testss_24test_plugin_registration
FNDA:1,_RNvNtNtCsjH0PaGjVXp8_6batuta6plugin5testss_25test_registry_cleanup_all
FNDA:1,_RNvNtNtCsjH0PaGjVXp8_6batuta6plugin5testss_26test_plugin_transpile_file
FNDA:1,_RNvNtNtCsjH0PaGjVXp8_6batuta6plugin5testss_26test_registry_list_plugins
FNDA:1,_RNvNtNtCsjH0PaGjVXp8_6batuta6plugin5testss_27test_plugin_default_cleanup
FNDA:1,_RNvNtNtCsjH0PaGjVXp8_6batuta6plugin5testss_28test_plugin_default_validate
FNDA:1,_RNvNtNtCsjH0PaGjVXp8_6batuta6plugin5testss_29test_registry_get_nonexistent
FNDA:1,_RNvNtNtCsjH0PaGjVXp8_6batuta6plugin5testss_30test_plugin_default_initialize
FNDA:1,_RNvNtNtCsjH0PaGjVXp8_6batuta6plugin5testss_30test_plugin_multiple_languages
FNDA:1,_RNvNtNtCsjH0PaGjVXp8_6batuta6plugin5testss_30test_plugin_stage_construction
FNDA:1,_RNvNtNtCsjH0PaGjVXp8_6batuta6plugin5testss_33test_plugin_metadata_construction
FNDA:1,_RNvNtNtCsjH0PaGjVXp8_6batuta6plugin5testss_33test_plugin_stage_execute_success
FNDA:1,_RNvNtNtCsjH0PaGjVXp8_6batuta6plugin5testss_33test_registry_supported_languages
FNDA:1,_RNvNtNtCsjH0PaGjVXp8_6batuta6plugin5testss_34test_plugin_initialization_failure
FNDA:1,_RNvNtNtCsjH0PaGjVXp8_6batuta6plugin5testss_34test_plugin_metadata_serialization
FNDA:1,_RNvNtNtCsjH0PaGjVXp8_6batuta6plugin5testss_34test_plugin_stage_validate_success
FNDA:1,_RNvNtNtCsjH0PaGjVXp8_6batuta6plugin5testss_36test_plugin_metadata_empty_languages
FNDA:1,_RNvNtNtCsjH0PaGjVXp8_6batuta6plugin5testss_36test_registry_get_for_language_empty
FNDA:1,_RNvNtNtCsjH0PaGjVXp8_6batuta6plugin5testss_36test_registry_unregister_nonexistent
FNDA:1,_RNvNtNtCsjH0PaGjVXp8_6batuta6plugin5testss_37test_plugin_stage_execute_no_language
FNDA:1,_RNvNtNtCsjH0PaGjVXp8_6batuta6plugin5testss_38test_plugin_metadata_supports_language
FNDA:1,_RNvNtNtCsjH0PaGjVXp8_6batuta6plugin5testss_44test_registry_multiple_plugins_same_language
FNDA:1,_RNvNtNtCsjH0PaGjVXp8_6batuta6plugin5testss_45test_registry_unregister_updates_language_map
FNDA:1,_RNvNtNtCsjH0PaGjVXp8_6batuta6plugin5testss_46test_plugin_stage_execute_unsupported_language
FNDA:44,_RNvXNtNtCsjH0PaGjVXp8_6batuta6plugin5testsNtB2_10TestPluginNtB4_16TranspilerPlugin8metadata
FNDA:1,_RNvXNtNtCsjH0PaGjVXp8_6batuta6plugin5testsNtB2_10TestPluginNtB4_16TranspilerPlugin9transpile
FNDA:1,_RNvXs0_NtNtCsjH0PaGjVXp8_6batuta6plugin5testsNtB5_17FailingInitPluginNtB7_16TranspilerPlugin10initialize
FNDA:0,_RNvXs0_NtNtCsjH0PaGjVXp8_6batuta6plugin5testsNtB5_17FailingInitPluginNtB7_16TranspilerPlugin8metadata
FNDA:0,_RNvXs0_NtNtCsjH0PaGjVXp8_6batuta6plugin5testsNtB5_17FailingInitPluginNtB7_16TranspilerPlugin9transpile
FNDA:2,_RNvXs_NtNtCsjH0PaGjVXp8_6batuta6plugin5testsNtB4_13MinimalPluginNtB6_16TranspilerPlugin9transpile
FNDA:0,_RNCNCNvXs5_NtCsc3xvWSUKV5Z_6batuta6pluginNtB9_11PluginStageNtNtBb_8pipeline13PipelineStage7execute00Bb_
FNDA:0,_RNCNvMs0_NtCsc3xvWSUKV5Z_6batuta6pluginNtB7_14PluginRegistry10unregister0B9_
FNDA:0,_RNCNvMs0_NtCsc3xvWSUKV5Z_6batuta6pluginNtB7_14PluginRegistry10unregisters_0B9_
FNDA:0,_RNCNvMs0_NtCsc3xvWSUKV5Z_6batuta6pluginNtB7_14PluginRegistry12list_plugins0B9_
FNDA:0,_RNCNvMs0_NtCsc3xvWSUKV5Z_6batuta6pluginNtB7_14PluginRegistry16get_for_language0B9_
FNDA:0,_RNCNvMs0_NtCsc3xvWSUKV5Z_6batuta6pluginNtB7_14PluginRegistry16get_for_languages_0B9_
FNDA:0,_RNCNvMs0_NtCsc3xvWSUKV5Z_6batuta6pluginNtB7_14PluginRegistry3get0B9_
FNDA:0,_RNvMNtCsc3xvWSUKV5Z_6batuta6pluginNtB2_14PluginMetadata17supports_language
FNDA:0,_RNvMs0_NtCsc3xvWSUKV5Z_6batuta6pluginNtB5_14PluginRegistry10unregister
FNDA:0,_RNvMs0_NtCsc3xvWSUKV5Z_6batuta6pluginNtB5_14PluginRegistry11cleanup_all
FNDA:0,_RNvMs0_NtCsc3xvWSUKV5Z_6batuta6pluginNtB5_14PluginRegistry12list_plugins
FNDA:0,_RNvMs0_NtCsc3xvWSUKV5Z_6batuta6pluginNtB5_14PluginRegistry16get_for_language
FNDA:0,_RNvMs0_NtCsc3xvWSUKV5Z_6batuta6pluginNtB5_14PluginRegistry19supported_languages
FNDA:0,_RNvMs0_NtCsc3xvWSUKV5Z_6batuta6pluginNtB5_14PluginRegistry3get
FNDA:0,_RNvMs0_NtCsc3xvWSUKV5Z_6batuta6pluginNtB5_14PluginRegistry3len
FNDA:0,_RNvMs0_NtCsc3xvWSUKV5Z_6batuta6pluginNtB5_14PluginRegistry3new
FNDA:0,_RNvMs0_NtCsc3xvWSUKV5Z_6batuta6pluginNtB5_14PluginRegistry7get_mut
FNDA:0,_RNvMs0_NtCsc3xvWSUKV5Z_6batuta6pluginNtB5_14PluginRegistry8is_empty
FNDA:0,_RNvMs0_NtCsc3xvWSUKV5Z_6batuta6pluginNtB5_14PluginRegistry8register
FNDA:0,_RNvMs_NtCsc3xvWSUKV5Z_6batuta6pluginNtB4_11PluginStage3new
FNDA:0,_RNvXs1_NtCsc3xvWSUKV5Z_6batuta6pluginNtB5_14PluginRegistryNtNtCs6RpC691fUBl_4core7default7Default7default
FNDA:0,_RNvXs5_NtCsc3xvWSUKV5Z_6batuta6pluginNtB5_11PluginStageNtNtB7_8pipeline13PipelineStage4name
FNDA:0,_RNvXs5_NtCsc3xvWSUKV5Z_6batuta6pluginNtB5_11PluginStageNtNtB7_8pipeline13PipelineStage7execute
FNDA:0,_RNvXs5_NtCsc3xvWSUKV5Z_6batuta6pluginNtB5_11PluginStageNtNtB7_8pipeline13PipelineStage8validate
FNDA:0,_RNvXs2_NtCsc3xvWSUKV5Z_6batuta6pluginNtB5_14PluginRegistryNtNtNtCs6RpC691fUBl_4core3ops4drop4Drop4drop
FNF:70
FNH:67
DA:88,15
DA:89,15
DA:90,15
DA:106,18
DA:107,18
DA:108,18
DA:126,2
DA:127,2
DA:128,2
DA:129,2
DA:134,2
DA:135,2
DA:136,2
DA:141,18
DA:142,18
DA:143,18
DA:153,5
DA:154,5
DA:155,5
DA:156,5
DA:161,1
DA:162,1
DA:163,1
DA:165,3
DA:172,1
DA:204,3
DA:206,1
DA:207,1
DA:210,2
DA:211,1
DA:212,1
DA:214,1
DA:217,1
DA:218,1
DA:219,1
DA:220,1
DA:221,1
DA:222,1
DA:223,1
DA:224,1
DA:225,1
DA:226,1
DA:227,1
DA:238,17
DA:239,17
DA:240,17
DA:241,17
DA:242,17
DA:243,17
DA:246,18
DA:248,18
DA:250,17
DA:253,37
DA:254,20
DA:255,20
DA:256,20
DA:257,20
DA:258,20
DA:261,17
DA:263,17
DA:264,18
DA:267,3
DA:268,3
DA:269,3
DA:270,3
DA:271,3
DA:272,3
DA:275,2
DA:276,3
DA:277,2
DA:278,1
DA:279,1
DA:281,1
DA:282,2
DA:285,8
DA:286,8
DA:287,8
DA:288,8
DA:289,8
DA:290,8
DA:291,8
DA:294,1
DA:295,2
DA:296,1
DA:299,4
DA:300,4
DA:301,4
DA:304,3
DA:305,3
DA:306,2
DA:307,2
DA:310,2
DA:311,4
DA:312,2
DA:313,2
DA:314,2
DA:315,2
DA:316,2
DA:317,0
DA:319,1
DA:321,3
DA:322,3
DA:325,18
DA:326,33
DA:327,15
DA:329,18
DA:330,18
DA:331,18
DA:332,18
DA:335,10
DA:336,10
DA:337,10
DA:340,4
DA:341,4
DA:342,4
DA:346,1
DA:347,1
DA:348,1
DA:352,17
DA:354,17
DA:355,17
DA:368,44
DA:369,44
DA:370,44
DA:371,44
DA:372,44
DA:373,44
DA:374,44
DA:375,44
DA:376,44
DA:378,1
DA:379,1
DA:380,1
DA:384,1
DA:385,1
DA:387,1
DA:388,1
DA:389,1
DA:390,1
DA:392,1
DA:393,1
DA:394,1
DA:395,1
DA:398,1
DA:399,1
DA:401,1
DA:402,1
DA:403,1
DA:404,1
DA:406,1
DA:408,1
DA:409,1
DA:411,1
DA:412,1
DA:413,1
DA:416,1
DA:417,1
DA:419,1
DA:420,1
DA:421,1
DA:422,1
DA:424,1
DA:425,1
DA:427,1
DA:428,1
DA:429,1
DA:430,1
DA:437,1
DA:438,1
DA:439,1
DA:440,1
DA:441,1
DA:442,1
DA:443,1
DA:444,1
DA:446,1
DA:447,1
DA:448,1
DA:449,1
DA:450,1
DA:451,1
DA:454,1
DA:455,1
DA:456,1
DA:457,1
DA:458,1
DA:459,1
DA:460,1
DA:461,1
DA:463,1
DA:464,1
DA:465,1
DA:466,1
DA:467,1
DA:470,1
DA:471,1
DA:472,1
DA:473,1
DA:474,1
DA:475,1
DA:476,1
DA:477,1
DA:479,1
DA:480,1
DA:482,1
DA:483,1
DA:484,1
DA:485,1
DA:486,1
DA:487,1
DA:490,1
DA:491,1
DA:492,1
DA:493,1
DA:494,1
DA:495,1
DA:496,1
DA:497,1
DA:499,1
DA:500,1
DA:501,1
DA:510,0
DA:511,0
DA:512,0
DA:513,0
DA:514,0
DA:515,0
DA:516,0
DA:517,0
DA:518,0
DA:520,2
DA:521,2
DA:522,2
DA:526,1
DA:527,1
DA:528,1
DA:529,1
DA:532,1
DA:533,1
DA:534,1
DA:535,1
DA:536,1
DA:537,1
DA:540,1
DA:544,1
DA:546,1
DA:547,1
DA:548,1
DA:550,1
DA:551,1
DA:552,1
DA:555,1
DA:556,1
DA:557,1
DA:558,1
DA:561,1
DA:562,1
DA:563,1
DA:564,1
DA:571,1
DA:572,1
DA:573,1
DA:574,1
DA:575,1
DA:577,1
DA:578,1
DA:579,1
DA:582,1
DA:583,1
DA:584,1
DA:585,1
DA:586,1
DA:588,1
DA:589,1
DA:590,1
DA:591,1
DA:594,1
DA:595,1
DA:596,1
DA:597,1
DA:600,1
DA:601,1
DA:602,1
DA:603,1
DA:604,1
DA:606,1
DA:607,1
DA:608,1
DA:609,1
DA:611,1
DA:613,1
DA:614,1
DA:615,1
DA:616,1
DA:619,1
DA:623,1
DA:624,1
DA:625,1
DA:627,1
DA:629,1
DA:630,1
DA:631,1
DA:632,1
DA:634,1
DA:635,1
DA:636,1
DA:637,1
DA:639,1
DA:640,1
DA:642,1
DA:643,1
DA:645,1
DA:646,1
DA:647,1
DA:649,1
DA:650,1
DA:651,1
DA:654,1
DA:658,1
DA:659,1
DA:660,1
DA:662,1
DA:663,1
DA:665,1
DA:666,1
DA:667,1
DA:668,1
DA:670,1
DA:671,1
DA:672,1
DA:673,1
DA:675,1
DA:677,1
DA:678,1
DA:679,1
DA:680,1
DA:681,1
DA:688,1
DA:689,1
DA:690,1
DA:691,1
DA:692,1
DA:695,1
DA:696,1
DA:697,1
DA:699,1
DA:700,1
DA:701,1
DA:702,1
DA:703,1
DA:705,1
DA:706,1
DA:709,1
DA:710,1
DA:711,1
DA:713,1
DA:714,1
DA:715,1
DA:716,1
DA:717,1
DA:719,1
DA:720,1
DA:721,1
DA:722,1
DA:723,1
DA:724,1
DA:727,1
DA:728,1
DA:730,1
DA:731,1
DA:732,1
DA:733,1
DA:735,1
DA:736,1
DA:737,1
DA:739,1
DA:740,1
DA:741,1
DA:744,1
DA:745,1
DA:747,1
DA:748,1
DA:749,1
DA:750,1
DA:752,1
DA:753,1
DA:754,1
DA:755,1
DA:757,1
DA:758,1
DA:759,1
DA:760,1
DA:761,1
DA:764,1
DA:765,1
DA:767,1
DA:768,1
DA:769,1
DA:770,1
DA:772,1
DA:773,1
DA:774,1
DA:775,1
DA:777,1
DA:778,1
DA:779,1
DA:780,1
DA:781,1
DA:782,1
DA:785,1
DA:786,1
DA:788,1
DA:789,1
DA:790,1
DA:791,1
DA:793,1
DA:794,1
DA:795,1
DA:796,1
DA:798,1
DA:799,1
DA:800,1
DA:803,1
DA:804,1
DA:806,1
DA:807,1
DA:808,1
DA:809,1
DA:811,1
DA:812,1
DA:813,1
DA:814,1
DA:816,1
DA:818,1
DA:820,1
DA:821,1
DA:822,1
DA:823,1
DA:826,1
DA:827,1
DA:830,1
DA:831,1
DA:832,1
DA:835,1
DA:836,1
DA:838,1
DA:839,1
DA:840,1
DA:841,1
DA:843,1
DA:845,1
DA:848,1
DA:849,1
DA:852,1
DA:853,1
DA:854,1
DA:855,1
DA:858,1
DA:859,1
DA:860,1
DA:861,1
DA:862,1
DA:865,1
DA:866,1
DA:868,1
DA:869,1
DA:870,1
DA:871,1
DA:874,1
DA:875,1
DA:876,1
DA:877,1
DA:878,1
DA:884,0
DA:885,0
DA:886,0
DA:887,0
DA:888,0
DA:889,0
DA:890,0
DA:891,0
DA:892,0
DA:894,1
DA:895,1
DA:896,1
DA:898,0
DA:899,0
DA:900,0
DA:904,1
DA:905,1
DA:907,1
DA:908,1
DA:910,1
DA:911,1
DA:912,1
DA:913,1
BRF:0
BRH:0
LF:508
LH:486
end_of_record
SF:/home/noah/src/batuta/src/pytorch_converter.rs
FN:88,_RNvMNtCs2Yt0WxJROpx_6batuta17pytorch_converterNtB2_16PyTorchOperation10complexity
FN:121,_RNvMNtCs2Yt0WxJROpx_6batuta17pytorch_converterNtB2_16PyTorchOperation14pytorch_module
FN:317,_RNvMs0_NtCs2Yt0WxJROpx_6batuta17pytorch_converterNtB5_16PyTorchConverter17conversion_report
FN:302,_RNvMs0_NtCs2Yt0WxJROpx_6batuta17pytorch_converterNtB5_16PyTorchConverter17recommend_backend
FN:312,_RNvMs0_NtCs2Yt0WxJROpx_6batuta17pytorch_converterNtB5_16PyTorchConverter20available_operations
FN:179,_RNvMs0_NtCs2Yt0WxJROpx_6batuta17pytorch_converterNtB5_16PyTorchConverter3new
FN:297,_RNvMs0_NtCs2Yt0WxJROpx_6batuta17pytorch_converterNtB5_16PyTorchConverter7convert
FN:172,_RNvXs_NtCs2Yt0WxJROpx_6batuta17pytorch_converterNtB4_16PyTorchConverterNtNtCs6RpC691fUBl_4core7default7Default7default
FN:473,_RNvNtNtCsjH0PaGjVXp8_6batuta17pytorch_converter5testss_20test_operation_clone
FN:426,_RNvNtNtCsjH0PaGjVXp8_6batuta17pytorch_converter5testss_22test_conversion_report
FN:628,_RNvNtNtCsjH0PaGjVXp8_6batuta17pytorch_converter5testss_22test_converter_default
FN:355,_RNvNtNtCsjH0PaGjVXp8_6batuta17pytorch_converter5testss_23test_converter_creation
FN:668,_RNvNtNtCsjH0PaGjVXp8_6batuta17pytorch_converter5testss_23test_forward_conversion
FN:467,_RNvNtNtCsjH0PaGjVXp8_6batuta17pytorch_converter5testss_23test_operation_equality
FN:385,_RNvNtNtCsjH0PaGjVXp8_6batuta17pytorch_converter5testss_24test_generate_conversion
FN:735,_RNvNtNtCsjH0PaGjVXp8_6batuta17pytorch_converter5testss_25test_available_operations
FN:361,_RNvNtNtCsjH0PaGjVXp8_6batuta17pytorch_converter5testss_25test_operation_complexity
FN:410,_RNvNtNtCsjH0PaGjVXp8_6batuta17pytorch_converter5testss_25test_pytorch_module_paths
FN:530,_RNvNtNtCsjH0PaGjVXp8_6batuta17pytorch_converter5testss_25test_pytorch_module_torch
FN:678,_RNvNtNtCsjH0PaGjVXp8_6batuta17pytorch_converter5testss_25test_tokenizer_conversion
FN:377,_RNvNtNtCsjH0PaGjVXp8_6batuta17pytorch_converter5testss_26test_load_model_conversion
FN:393,_RNvNtNtCsjH0PaGjVXp8_6batuta17pytorch_converter5testss_27test_backend_recommendation
FN:826,_RNvNtNtCsjH0PaGjVXp8_6batuta17pytorch_converter5testss_27test_imports_are_valid_rust
FN:708,_RNvNtNtCsjH0PaGjVXp8_6batuta17pytorch_converter5testss_28test_linear_layer_conversion
FN:546,_RNvNtNtCsjH0PaGjVXp8_6batuta17pytorch_converter5testss_28test_pytorch_module_torch_nn
FN:609,_RNvNtNtCsjH0PaGjVXp8_6batuta17pytorch_converter5testss_29test_realizar_operation_clone
FN:813,_RNvNtNtCsjH0PaGjVXp8_6batuta17pytorch_converter5testss_29test_usage_patterns_not_empty
FN:480,_RNvNtNtCsjH0PaGjVXp8_6batuta17pytorch_converter5testss_30test_complexity_low_operations
FN:687,_RNvNtNtCsjH0PaGjVXp8_6batuta17pytorch_converter5testss_30test_encode_decode_conversions
FN:717,_RNvNtNtCsjH0PaGjVXp8_6batuta17pytorch_converter5testss_31test_attention_layer_conversion
FN:516,_RNvNtNtCsjH0PaGjVXp8_6batuta17pytorch_converter5testss_31test_complexity_high_operations
FN:657,_RNvNtNtCsjH0PaGjVXp8_6batuta17pytorch_converter5testss_31test_convert_unmapped_operation
FN:726,_RNvNtNtCsjH0PaGjVXp8_6batuta17pytorch_converter5testss_31test_gelu_activation_conversion
FN:781,_RNvNtNtCsjH0PaGjVXp8_6batuta17pytorch_converter5testss_32test_conversion_report_structure
FN:563,_RNvNtNtCsjH0PaGjVXp8_6batuta17pytorch_converter5testss_32test_pytorch_module_transformers
FN:698,_RNvNtNtCsjH0PaGjVXp8_6batuta17pytorch_converter5testss_32test_tensor_operation_conversion
FN:439,_RNvNtNtCsjH0PaGjVXp8_6batuta17pytorch_converter5testss_33test_all_pytorch_operations_exist
FN:497,_RNvNtNtCsjH0PaGjVXp8_6batuta17pytorch_converter5testss_33test_complexity_medium_operations
FN:772,_RNvNtNtCsjH0PaGjVXp8_6batuta17pytorch_converter5testss_33test_recommend_backend_generation
FN:795,_RNvNtNtCsjH0PaGjVXp8_6batuta17pytorch_converter5testss_34test_conversion_report_has_modules
FN:634,_RNvNtNtCsjH0PaGjVXp8_6batuta17pytorch_converter5testss_34test_convert_all_mapped_operations
FN:576,_RNvNtNtCsjH0PaGjVXp8_6batuta17pytorch_converter5testss_35test_pytorch_module_torch_nn_module
FN:594,_RNvNtNtCsjH0PaGjVXp8_6batuta17pytorch_converter5testss_36test_realizar_operation_construction
FN:745,_RNvNtNtCsjH0PaGjVXp8_6batuta17pytorch_converter5testss_37test_recommend_backend_low_complexity
FN:763,_RNvNtNtCsjH0PaGjVXp8_6batuta17pytorch_converter5testss_38test_recommend_backend_high_complexity
FN:754,_RNvNtNtCsjH0PaGjVXp8_6batuta17pytorch_converter5testss_40test_recommend_backend_medium_complexity
FN:804,_RNvNtNtCsjH0PaGjVXp8_6batuta17pytorch_converter5testss_41test_conversion_report_has_all_operations
FN:88,_RNvMNtCsjH0PaGjVXp8_6batuta17pytorch_converterNtB2_16PyTorchOperation10complexity
FN:121,_RNvMNtCsjH0PaGjVXp8_6batuta17pytorch_converterNtB2_16PyTorchOperation14pytorch_module
FN:317,_RNvMs0_NtCsjH0PaGjVXp8_6batuta17pytorch_converterNtB5_16PyTorchConverter17conversion_report
FN:302,_RNvMs0_NtCsjH0PaGjVXp8_6batuta17pytorch_converterNtB5_16PyTorchConverter17recommend_backend
FN:312,_RNvMs0_NtCsjH0PaGjVXp8_6batuta17pytorch_converterNtB5_16PyTorchConverter20available_operations
FN:179,_RNvMs0_NtCsjH0PaGjVXp8_6batuta17pytorch_converterNtB5_16PyTorchConverter3new
FN:297,_RNvMs0_NtCsjH0PaGjVXp8_6batuta17pytorch_converterNtB5_16PyTorchConverter7convert
FN:172,_RNvXs_NtCsjH0PaGjVXp8_6batuta17pytorch_converterNtB4_16PyTorchConverterNtNtCs6RpC691fUBl_4core7default7Default7default
FN:673,_RNCNvNtNtCsjH0PaGjVXp8_6batuta17pytorch_converter5testss_23test_forward_conversion0B7_
FN:389,_RNCNvNtNtCsjH0PaGjVXp8_6batuta17pytorch_converter5testss_24test_generate_conversion0B7_
FN:683,_RNCNvNtNtCsjH0PaGjVXp8_6batuta17pytorch_converter5testss_25test_tokenizer_conversion0B7_
FN:381,_RNCNvNtNtCsjH0PaGjVXp8_6batuta17pytorch_converter5testss_26test_load_model_conversion0B7_
FN:713,_RNCNvNtNtCsjH0PaGjVXp8_6batuta17pytorch_converter5testss_28test_linear_layer_conversion0B7_
FN:731,_RNCNvNtNtCsjH0PaGjVXp8_6batuta17pytorch_converter5testss_31test_gelu_activation_conversion0B7_
FN:703,_RNCNvNtNtCsjH0PaGjVXp8_6batuta17pytorch_converter5testss_32test_tensor_operation_conversion0B7_
FN:673,_RNCNvNtNtCshEp7d2sUZm6_6batuta17pytorch_converter5testss_23test_forward_conversion0B7_
FN:389,_RNCNvNtNtCshEp7d2sUZm6_6batuta17pytorch_converter5testss_24test_generate_conversion0B7_
FN:683,_RNCNvNtNtCshEp7d2sUZm6_6batuta17pytorch_converter5testss_25test_tokenizer_conversion0B7_
FN:381,_RNCNvNtNtCshEp7d2sUZm6_6batuta17pytorch_converter5testss_26test_load_model_conversion0B7_
FN:713,_RNCNvNtNtCshEp7d2sUZm6_6batuta17pytorch_converter5testss_28test_linear_layer_conversion0B7_
FN:731,_RNCNvNtNtCshEp7d2sUZm6_6batuta17pytorch_converter5testss_31test_gelu_activation_conversion0B7_
FN:703,_RNCNvNtNtCshEp7d2sUZm6_6batuta17pytorch_converter5testss_32test_tensor_operation_conversion0B7_
FN:88,_RNvMNtCshEp7d2sUZm6_6batuta17pytorch_converterNtB2_16PyTorchOperation10complexity
FN:121,_RNvMNtCshEp7d2sUZm6_6batuta17pytorch_converterNtB2_16PyTorchOperation14pytorch_module
FN:317,_RNvMs0_NtCshEp7d2sUZm6_6batuta17pytorch_converterNtB5_16PyTorchConverter17conversion_report
FN:302,_RNvMs0_NtCshEp7d2sUZm6_6batuta17pytorch_converterNtB5_16PyTorchConverter17recommend_backend
FN:312,_RNvMs0_NtCshEp7d2sUZm6_6batuta17pytorch_converterNtB5_16PyTorchConverter20available_operations
FN:179,_RNvMs0_NtCshEp7d2sUZm6_6batuta17pytorch_converterNtB5_16PyTorchConverter3new
FN:297,_RNvMs0_NtCshEp7d2sUZm6_6batuta17pytorch_converterNtB5_16PyTorchConverter7convert
FN:172,_RNvXs_NtCshEp7d2sUZm6_6batuta17pytorch_converterNtB4_16PyTorchConverterNtNtCs6RpC691fUBl_4core7default7Default7default
FN:473,_RNvNtNtCshEp7d2sUZm6_6batuta17pytorch_converter5testss_20test_operation_clone
FN:426,_RNvNtNtCshEp7d2sUZm6_6batuta17pytorch_converter5testss_22test_conversion_report
FN:628,_RNvNtNtCshEp7d2sUZm6_6batuta17pytorch_converter5testss_22test_converter_default
FN:355,_RNvNtNtCshEp7d2sUZm6_6batuta17pytorch_converter5testss_23test_converter_creation
FN:668,_RNvNtNtCshEp7d2sUZm6_6batuta17pytorch_converter5testss_23test_forward_conversion
FN:467,_RNvNtNtCshEp7d2sUZm6_6batuta17pytorch_converter5testss_23test_operation_equality
FN:385,_RNvNtNtCshEp7d2sUZm6_6batuta17pytorch_converter5testss_24test_generate_conversion
FN:735,_RNvNtNtCshEp7d2sUZm6_6batuta17pytorch_converter5testss_25test_available_operations
FN:361,_RNvNtNtCshEp7d2sUZm6_6batuta17pytorch_converter5testss_25test_operation_complexity
FN:410,_RNvNtNtCshEp7d2sUZm6_6batuta17pytorch_converter5testss_25test_pytorch_module_paths
FN:530,_RNvNtNtCshEp7d2sUZm6_6batuta17pytorch_converter5testss_25test_pytorch_module_torch
FN:678,_RNvNtNtCshEp7d2sUZm6_6batuta17pytorch_converter5testss_25test_tokenizer_conversion
FN:377,_RNvNtNtCshEp7d2sUZm6_6batuta17pytorch_converter5testss_26test_load_model_conversion
FN:393,_RNvNtNtCshEp7d2sUZm6_6batuta17pytorch_converter5testss_27test_backend_recommendation
FN:826,_RNvNtNtCshEp7d2sUZm6_6batuta17pytorch_converter5testss_27test_imports_are_valid_rust
FN:708,_RNvNtNtCshEp7d2sUZm6_6batuta17pytorch_converter5testss_28test_linear_layer_conversion
FN:546,_RNvNtNtCshEp7d2sUZm6_6batuta17pytorch_converter5testss_28test_pytorch_module_torch_nn
FN:609,_RNvNtNtCshEp7d2sUZm6_6batuta17pytorch_converter5testss_29test_realizar_operation_clone
FN:813,_RNvNtNtCshEp7d2sUZm6_6batuta17pytorch_converter5testss_29test_usage_patterns_not_empty
FN:480,_RNvNtNtCshEp7d2sUZm6_6batuta17pytorch_converter5testss_30test_complexity_low_operations
FN:687,_RNvNtNtCshEp7d2sUZm6_6batuta17pytorch_converter5testss_30test_encode_decode_conversions
FN:717,_RNvNtNtCshEp7d2sUZm6_6batuta17pytorch_converter5testss_31test_attention_layer_conversion
FN:516,_RNvNtNtCshEp7d2sUZm6_6batuta17pytorch_converter5testss_31test_complexity_high_operations
FN:657,_RNvNtNtCshEp7d2sUZm6_6batuta17pytorch_converter5testss_31test_convert_unmapped_operation
FN:726,_RNvNtNtCshEp7d2sUZm6_6batuta17pytorch_converter5testss_31test_gelu_activation_conversion
FN:781,_RNvNtNtCshEp7d2sUZm6_6batuta17pytorch_converter5testss_32test_conversion_report_structure
FN:563,_RNvNtNtCshEp7d2sUZm6_6batuta17pytorch_converter5testss_32test_pytorch_module_transformers
FN:698,_RNvNtNtCshEp7d2sUZm6_6batuta17pytorch_converter5testss_32test_tensor_operation_conversion
FN:439,_RNvNtNtCshEp7d2sUZm6_6batuta17pytorch_converter5testss_33test_all_pytorch_operations_exist
FN:497,_RNvNtNtCshEp7d2sUZm6_6batuta17pytorch_converter5testss_33test_complexity_medium_operations
FN:772,_RNvNtNtCshEp7d2sUZm6_6batuta17pytorch_converter5testss_33test_recommend_backend_generation
FN:795,_RNvNtNtCshEp7d2sUZm6_6batuta17pytorch_converter5testss_34test_conversion_report_has_modules
FN:634,_RNvNtNtCshEp7d2sUZm6_6batuta17pytorch_converter5testss_34test_convert_all_mapped_operations
FN:576,_RNvNtNtCshEp7d2sUZm6_6batuta17pytorch_converter5testss_35test_pytorch_module_torch_nn_module
FN:594,_RNvNtNtCshEp7d2sUZm6_6batuta17pytorch_converter5testss_36test_realizar_operation_construction
FN:745,_RNvNtNtCshEp7d2sUZm6_6batuta17pytorch_converter5testss_37test_recommend_backend_low_complexity
FN:763,_RNvNtNtCshEp7d2sUZm6_6batuta17pytorch_converter5testss_38test_recommend_backend_high_complexity
FN:754,_RNvNtNtCshEp7d2sUZm6_6batuta17pytorch_converter5testss_40test_recommend_backend_medium_complexity
FN:804,_RNvNtNtCshEp7d2sUZm6_6batuta17pytorch_converter5testss_41test_conversion_report_has_all_operations
FN:88,_RNvMNtCsc3xvWSUKV5Z_6batuta17pytorch_converterNtB2_16PyTorchOperation10complexity
FN:121,_RNvMNtCsc3xvWSUKV5Z_6batuta17pytorch_converterNtB2_16PyTorchOperation14pytorch_module
FN:317,_RNvMs0_NtCsc3xvWSUKV5Z_6batuta17pytorch_converterNtB5_16PyTorchConverter17conversion_report
FN:302,_RNvMs0_NtCsc3xvWSUKV5Z_6batuta17pytorch_converterNtB5_16PyTorchConverter17recommend_backend
FN:312,_RNvMs0_NtCsc3xvWSUKV5Z_6batuta17pytorch_converterNtB5_16PyTorchConverter20available_operations
FN:179,_RNvMs0_NtCsc3xvWSUKV5Z_6batuta17pytorch_converterNtB5_16PyTorchConverter3new
FN:297,_RNvMs0_NtCsc3xvWSUKV5Z_6batuta17pytorch_converterNtB5_16PyTorchConverter7convert
FN:172,_RNvXs_NtCsc3xvWSUKV5Z_6batuta17pytorch_converterNtB4_16PyTorchConverterNtNtCs6RpC691fUBl_4core7default7Default7default
FNDA:0,_RNvMNtCs2Yt0WxJROpx_6batuta17pytorch_converterNtB2_16PyTorchOperation10complexity
FNDA:0,_RNvMNtCs2Yt0WxJROpx_6batuta17pytorch_converterNtB2_16PyTorchOperation14pytorch_module
FNDA:0,_RNvMs0_NtCs2Yt0WxJROpx_6batuta17pytorch_converterNtB5_16PyTorchConverter17conversion_report
FNDA:0,_RNvMs0_NtCs2Yt0WxJROpx_6batuta17pytorch_converterNtB5_16PyTorchConverter17recommend_backend
FNDA:0,_RNvMs0_NtCs2Yt0WxJROpx_6batuta17pytorch_converterNtB5_16PyTorchConverter20available_operations
FNDA:0,_RNvMs0_NtCs2Yt0WxJROpx_6batuta17pytorch_converterNtB5_16PyTorchConverter3new
FNDA:0,_RNvMs0_NtCs2Yt0WxJROpx_6batuta17pytorch_converterNtB5_16PyTorchConverter7convert
FNDA:0,_RNvXs_NtCs2Yt0WxJROpx_6batuta17pytorch_converterNtB4_16PyTorchConverterNtNtCs6RpC691fUBl_4core7default7Default7default
FNDA:1,_RNvNtNtCsjH0PaGjVXp8_6batuta17pytorch_converter5testss_20test_operation_clone
FNDA:1,_RNvNtNtCsjH0PaGjVXp8_6batuta17pytorch_converter5testss_22test_conversion_report
FNDA:1,_RNvNtNtCsjH0PaGjVXp8_6batuta17pytorch_converter5testss_22test_converter_default
FNDA:1,_RNvNtNtCsjH0PaGjVXp8_6batuta17pytorch_converter5testss_23test_converter_creation
FNDA:1,_RNvNtNtCsjH0PaGjVXp8_6batuta17pytorch_converter5testss_23test_forward_conversion
FNDA:1,_RNvNtNtCsjH0PaGjVXp8_6batuta17pytorch_converter5testss_23test_operation_equality
FNDA:1,_RNvNtNtCsjH0PaGjVXp8_6batuta17pytorch_converter5testss_24test_generate_conversion
FNDA:1,_RNvNtNtCsjH0PaGjVXp8_6batuta17pytorch_converter5testss_25test_available_operations
FNDA:1,_RNvNtNtCsjH0PaGjVXp8_6batuta17pytorch_converter5testss_25test_operation_complexity
FNDA:1,_RNvNtNtCsjH0PaGjVXp8_6batuta17pytorch_converter5testss_25test_pytorch_module_paths
FNDA:1,_RNvNtNtCsjH0PaGjVXp8_6batuta17pytorch_converter5testss_25test_pytorch_module_torch
FNDA:1,_RNvNtNtCsjH0PaGjVXp8_6batuta17pytorch_converter5testss_25test_tokenizer_conversion
FNDA:1,_RNvNtNtCsjH0PaGjVXp8_6batuta17pytorch_converter5testss_26test_load_model_conversion
FNDA:1,_RNvNtNtCsjH0PaGjVXp8_6batuta17pytorch_converter5testss_27test_backend_recommendation
FNDA:1,_RNvNtNtCsjH0PaGjVXp8_6batuta17pytorch_converter5testss_27test_imports_are_valid_rust
FNDA:1,_RNvNtNtCsjH0PaGjVXp8_6batuta17pytorch_converter5testss_28test_linear_layer_conversion
FNDA:1,_RNvNtNtCsjH0PaGjVXp8_6batuta17pytorch_converter5testss_28test_pytorch_module_torch_nn
FNDA:1,_RNvNtNtCsjH0PaGjVXp8_6batuta17pytorch_converter5testss_29test_realizar_operation_clone
FNDA:1,_RNvNtNtCsjH0PaGjVXp8_6batuta17pytorch_converter5testss_29test_usage_patterns_not_empty
FNDA:1,_RNvNtNtCsjH0PaGjVXp8_6batuta17pytorch_converter5testss_30test_complexity_low_operations
FNDA:1,_RNvNtNtCsjH0PaGjVXp8_6batuta17pytorch_converter5testss_30test_encode_decode_conversions
FNDA:1,_RNvNtNtCsjH0PaGjVXp8_6batuta17pytorch_converter5testss_31test_attention_layer_conversion
FNDA:1,_RNvNtNtCsjH0PaGjVXp8_6batuta17pytorch_converter5testss_31test_complexity_high_operations
FNDA:1,_RNvNtNtCsjH0PaGjVXp8_6batuta17pytorch_converter5testss_31test_convert_unmapped_operation
FNDA:1,_RNvNtNtCsjH0PaGjVXp8_6batuta17pytorch_converter5testss_31test_gelu_activation_conversion
FNDA:1,_RNvNtNtCsjH0PaGjVXp8_6batuta17pytorch_converter5testss_32test_conversion_report_structure
FNDA:1,_RNvNtNtCsjH0PaGjVXp8_6batuta17pytorch_converter5testss_32test_pytorch_module_transformers
FNDA:1,_RNvNtNtCsjH0PaGjVXp8_6batuta17pytorch_converter5testss_32test_tensor_operation_conversion
FNDA:1,_RNvNtNtCsjH0PaGjVXp8_6batuta17pytorch_converter5testss_33test_all_pytorch_operations_exist
FNDA:1,_RNvNtNtCsjH0PaGjVXp8_6batuta17pytorch_converter5testss_33test_complexity_medium_operations
FNDA:1,_RNvNtNtCsjH0PaGjVXp8_6batuta17pytorch_converter5testss_33test_recommend_backend_generation
FNDA:1,_RNvNtNtCsjH0PaGjVXp8_6batuta17pytorch_converter5testss_34test_conversion_report_has_modules
FNDA:1,_RNvNtNtCsjH0PaGjVXp8_6batuta17pytorch_converter5testss_34test_convert_all_mapped_operations
FNDA:1,_RNvNtNtCsjH0PaGjVXp8_6batuta17pytorch_converter5testss_35test_pytorch_module_torch_nn_module
FNDA:1,_RNvNtNtCsjH0PaGjVXp8_6batuta17pytorch_converter5testss_36test_realizar_operation_construction
FNDA:1,_RNvNtNtCsjH0PaGjVXp8_6batuta17pytorch_converter5testss_37test_recommend_backend_low_complexity
FNDA:1,_RNvNtNtCsjH0PaGjVXp8_6batuta17pytorch_converter5testss_38test_recommend_backend_high_complexity
FNDA:1,_RNvNtNtCsjH0PaGjVXp8_6batuta17pytorch_converter5testss_40test_recommend_backend_medium_complexity
FNDA:1,_RNvNtNtCsjH0PaGjVXp8_6batuta17pytorch_converter5testss_41test_conversion_report_has_all_operations
FNDA:30,_RNvMNtCsjH0PaGjVXp8_6batuta17pytorch_converterNtB2_16PyTorchOperation10complexity
FNDA:63,_RNvMNtCsjH0PaGjVXp8_6batuta17pytorch_converterNtB2_16PyTorchOperation14pytorch_module
FNDA:4,_RNvMs0_NtCsjH0PaGjVXp8_6batuta17pytorch_converterNtB5_16PyTorchConverter17conversion_report
FNDA:7,_RNvMs0_NtCsjH0PaGjVXp8_6batuta17pytorch_converterNtB5_16PyTorchConverter17recommend_backend
FNDA:5,_RNvMs0_NtCsjH0PaGjVXp8_6batuta17pytorch_converterNtB5_16PyTorchConverter20available_operations
FNDA:30,_RNvMs0_NtCsjH0PaGjVXp8_6batuta17pytorch_converterNtB5_16PyTorchConverter3new
FNDA:41,_RNvMs0_NtCsjH0PaGjVXp8_6batuta17pytorch_converterNtB5_16PyTorchConverter7convert
FNDA:1,_RNvXs_NtCsjH0PaGjVXp8_6batuta17pytorch_converterNtB4_16PyTorchConverterNtNtCs6RpC691fUBl_4core7default7Default7default
FNDA:1,_RNCNvNtNtCsjH0PaGjVXp8_6batuta17pytorch_converter5testss_23test_forward_conversion0B7_
FNDA:1,_RNCNvNtNtCsjH0PaGjVXp8_6batuta17pytorch_converter5testss_24test_generate_conversion0B7_
FNDA:1,_RNCNvNtNtCsjH0PaGjVXp8_6batuta17pytorch_converter5testss_25test_tokenizer_conversion0B7_
FNDA:1,_RNCNvNtNtCsjH0PaGjVXp8_6batuta17pytorch_converter5testss_26test_load_model_conversion0B7_
FNDA:1,_RNCNvNtNtCsjH0PaGjVXp8_6batuta17pytorch_converter5testss_28test_linear_layer_conversion0B7_
FNDA:1,_RNCNvNtNtCsjH0PaGjVXp8_6batuta17pytorch_converter5testss_31test_gelu_activation_conversion0B7_
FNDA:1,_RNCNvNtNtCsjH0PaGjVXp8_6batuta17pytorch_converter5testss_32test_tensor_operation_conversion0B7_
FNDA:1,_RNCNvNtNtCshEp7d2sUZm6_6batuta17pytorch_converter5testss_23test_forward_conversion0B7_
FNDA:1,_RNCNvNtNtCshEp7d2sUZm6_6batuta17pytorch_converter5testss_24test_generate_conversion0B7_
FNDA:1,_RNCNvNtNtCshEp7d2sUZm6_6batuta17pytorch_converter5testss_25test_tokenizer_conversion0B7_
FNDA:1,_RNCNvNtNtCshEp7d2sUZm6_6batuta17pytorch_converter5testss_26test_load_model_conversion0B7_
FNDA:1,_RNCNvNtNtCshEp7d2sUZm6_6batuta17pytorch_converter5testss_28test_linear_layer_conversion0B7_
FNDA:1,_RNCNvNtNtCshEp7d2sUZm6_6batuta17pytorch_converter5testss_31test_gelu_activation_conversion0B7_
FNDA:1,_RNCNvNtNtCshEp7d2sUZm6_6batuta17pytorch_converter5testss_32test_tensor_operation_conversion0B7_
FNDA:30,_RNvMNtCshEp7d2sUZm6_6batuta17pytorch_converterNtB2_16PyTorchOperation10complexity
FNDA:63,_RNvMNtCshEp7d2sUZm6_6batuta17pytorch_converterNtB2_16PyTorchOperation14pytorch_module
FNDA:4,_RNvMs0_NtCshEp7d2sUZm6_6batuta17pytorch_converterNtB5_16PyTorchConverter17conversion_report
FNDA:7,_RNvMs0_NtCshEp7d2sUZm6_6batuta17pytorch_converterNtB5_16PyTorchConverter17recommend_backend
FNDA:5,_RNvMs0_NtCshEp7d2sUZm6_6batuta17pytorch_converterNtB5_16PyTorchConverter20available_operations
FNDA:30,_RNvMs0_NtCshEp7d2sUZm6_6batuta17pytorch_converterNtB5_16PyTorchConverter3new
FNDA:41,_RNvMs0_NtCshEp7d2sUZm6_6batuta17pytorch_converterNtB5_16PyTorchConverter7convert
FNDA:1,_RNvXs_NtCshEp7d2sUZm6_6batuta17pytorch_converterNtB4_16PyTorchConverterNtNtCs6RpC691fUBl_4core7default7Default7default
FNDA:1,_RNvNtNtCshEp7d2sUZm6_6batuta17pytorch_converter5testss_20test_operation_clone
FNDA:1,_RNvNtNtCshEp7d2sUZm6_6batuta17pytorch_converter5testss_22test_conversion_report
FNDA:1,_RNvNtNtCshEp7d2sUZm6_6batuta17pytorch_converter5testss_22test_converter_default
FNDA:1,_RNvNtNtCshEp7d2sUZm6_6batuta17pytorch_converter5testss_23test_converter_creation
FNDA:1,_RNvNtNtCshEp7d2sUZm6_6batuta17pytorch_converter5testss_23test_forward_conversion
FNDA:1,_RNvNtNtCshEp7d2sUZm6_6batuta17pytorch_converter5testss_23test_operation_equality
FNDA:1,_RNvNtNtCshEp7d2sUZm6_6batuta17pytorch_converter5testss_24test_generate_conversion
FNDA:1,_RNvNtNtCshEp7d2sUZm6_6batuta17pytorch_converter5testss_25test_available_operations
FNDA:1,_RNvNtNtCshEp7d2sUZm6_6batuta17pytorch_converter5testss_25test_operation_complexity
FNDA:1,_RNvNtNtCshEp7d2sUZm6_6batuta17pytorch_converter5testss_25test_pytorch_module_paths
FNDA:1,_RNvNtNtCshEp7d2sUZm6_6batuta17pytorch_converter5testss_25test_pytorch_module_torch
FNDA:1,_RNvNtNtCshEp7d2sUZm6_6batuta17pytorch_converter5testss_25test_tokenizer_conversion
FNDA:1,_RNvNtNtCshEp7d2sUZm6_6batuta17pytorch_converter5testss_26test_load_model_conversion
FNDA:1,_RNvNtNtCshEp7d2sUZm6_6batuta17pytorch_converter5testss_27test_backend_recommendation
FNDA:1,_RNvNtNtCshEp7d2sUZm6_6batuta17pytorch_converter5testss_27test_imports_are_valid_rust
FNDA:1,_RNvNtNtCshEp7d2sUZm6_6batuta17pytorch_converter5testss_28test_linear_layer_conversion
FNDA:1,_RNvNtNtCshEp7d2sUZm6_6batuta17pytorch_converter5testss_28test_pytorch_module_torch_nn
FNDA:1,_RNvNtNtCshEp7d2sUZm6_6batuta17pytorch_converter5testss_29test_realizar_operation_clone
FNDA:1,_RNvNtNtCshEp7d2sUZm6_6batuta17pytorch_converter5testss_29test_usage_patterns_not_empty
FNDA:1,_RNvNtNtCshEp7d2sUZm6_6batuta17pytorch_converter5testss_30test_complexity_low_operations
FNDA:1,_RNvNtNtCshEp7d2sUZm6_6batuta17pytorch_converter5testss_30test_encode_decode_conversions
FNDA:1,_RNvNtNtCshEp7d2sUZm6_6batuta17pytorch_converter5testss_31test_attention_layer_conversion
FNDA:1,_RNvNtNtCshEp7d2sUZm6_6batuta17pytorch_converter5testss_31test_complexity_high_operations
FNDA:1,_RNvNtNtCshEp7d2sUZm6_6batuta17pytorch_converter5testss_31test_convert_unmapped_operation
FNDA:1,_RNvNtNtCshEp7d2sUZm6_6batuta17pytorch_converter5testss_31test_gelu_activation_conversion
FNDA:1,_RNvNtNtCshEp7d2sUZm6_6batuta17pytorch_converter5testss_32test_conversion_report_structure
FNDA:1,_RNvNtNtCshEp7d2sUZm6_6batuta17pytorch_converter5testss_32test_pytorch_module_transformers
FNDA:1,_RNvNtNtCshEp7d2sUZm6_6batuta17pytorch_converter5testss_32test_tensor_operation_conversion
FNDA:1,_RNvNtNtCshEp7d2sUZm6_6batuta17pytorch_converter5testss_33test_all_pytorch_operations_exist
FNDA:1,_RNvNtNtCshEp7d2sUZm6_6batuta17pytorch_converter5testss_33test_complexity_medium_operations
FNDA:1,_RNvNtNtCshEp7d2sUZm6_6batuta17pytorch_converter5testss_33test_recommend_backend_generation
FNDA:1,_RNvNtNtCshEp7d2sUZm6_6batuta17pytorch_converter5testss_34test_conversion_report_has_modules
FNDA:1,_RNvNtNtCshEp7d2sUZm6_6batuta17pytorch_converter5testss_34test_convert_all_mapped_operations
FNDA:1,_RNvNtNtCshEp7d2sUZm6_6batuta17pytorch_converter5testss_35test_pytorch_module_torch_nn_module
FNDA:1,_RNvNtNtCshEp7d2sUZm6_6batuta17pytorch_converter5testss_36test_realizar_operation_construction
FNDA:1,_RNvNtNtCshEp7d2sUZm6_6batuta17pytorch_converter5testss_37test_recommend_backend_low_complexity
FNDA:1,_RNvNtNtCshEp7d2sUZm6_6batuta17pytorch_converter5testss_38test_recommend_backend_high_complexity
FNDA:1,_RNvNtNtCshEp7d2sUZm6_6batuta17pytorch_converter5testss_40test_recommend_backend_medium_complexity
FNDA:1,_RNvNtNtCshEp7d2sUZm6_6batuta17pytorch_converter5testss_41test_conversion_report_has_all_operations
FNDA:0,_RNvMNtCsc3xvWSUKV5Z_6batuta17pytorch_converterNtB2_16PyTorchOperation10complexity
FNDA:0,_RNvMNtCsc3xvWSUKV5Z_6batuta17pytorch_converterNtB2_16PyTorchOperation14pytorch_module
FNDA:0,_RNvMs0_NtCsc3xvWSUKV5Z_6batuta17pytorch_converterNtB5_16PyTorchConverter17conversion_report
FNDA:0,_RNvMs0_NtCsc3xvWSUKV5Z_6batuta17pytorch_converterNtB5_16PyTorchConverter17recommend_backend
FNDA:0,_RNvMs0_NtCsc3xvWSUKV5Z_6batuta17pytorch_converterNtB5_16PyTorchConverter20available_operations
FNDA:0,_RNvMs0_NtCsc3xvWSUKV5Z_6batuta17pytorch_converterNtB5_16PyTorchConverter3new
FNDA:0,_RNvMs0_NtCsc3xvWSUKV5Z_6batuta17pytorch_converterNtB5_16PyTorchConverter7convert
FNDA:0,_RNvXs_NtCsc3xvWSUKV5Z_6batuta17pytorch_converterNtB4_16PyTorchConverterNtNtCs6RpC691fUBl_4core7default7Default7default
FNF:54
FNH:54
DA:88,60
DA:91,60
DA:99,20
DA:110,24
DA:116,16
DA:118,60
DA:121,126
DA:122,126
DA:128,30
DA:136,40
DA:140,32
DA:145,24
DA:147,126
DA:172,2
DA:173,2
DA:174,2
DA:179,60
DA:180,60
DA:183,60
DA:184,60
DA:185,60
DA:186,60
DA:187,60
DA:188,60
DA:189,60
DA:190,60
DA:193,60
DA:194,60
DA:195,60
DA:196,60
DA:197,60
DA:198,60
DA:199,60
DA:200,60
DA:204,60
DA:205,60
DA:206,60
DA:207,60
DA:208,60
DA:209,60
DA:210,60
DA:211,60
DA:214,60
DA:215,60
DA:216,60
DA:217,60
DA:218,60
DA:219,60
DA:220,60
DA:221,60
DA:222,60
DA:223,60
DA:227,60
DA:228,60
DA:229,60
DA:230,60
DA:231,60
DA:232,60
DA:233,60
DA:234,60
DA:238,60
DA:239,60
DA:240,60
DA:241,60
DA:242,60
DA:243,60
DA:244,60
DA:245,60
DA:248,60
DA:249,60
DA:250,60
DA:251,60
DA:252,60
DA:253,60
DA:254,60
DA:255,60
DA:259,60
DA:260,60
DA:261,60
DA:262,60
DA:263,60
DA:264,60
DA:265,60
DA:266,60
DA:270,60
DA:271,60
DA:272,60
DA:273,60
DA:274,60
DA:275,60
DA:276,60
DA:277,60
DA:280,60
DA:281,60
DA:282,60
DA:283,60
DA:284,60
DA:285,60
DA:286,60
DA:287,60
DA:290,60
DA:291,60
DA:292,60
DA:293,60
DA:294,60
DA:297,82
DA:298,82
DA:299,82
DA:302,14
DA:303,14
DA:304,14
DA:305,14
DA:306,14
DA:307,14
DA:308,14
DA:309,14
DA:312,10
DA:313,10
DA:314,10
DA:317,8
DA:318,8
DA:319,8
DA:322,8
DA:323,8
DA:325,88
DA:326,80
DA:327,80
DA:328,80
DA:329,80
DA:330,80
DA:332,32
DA:333,32
DA:335,112
DA:336,80
DA:337,80
DA:338,80
DA:339,80
DA:340,80
DA:341,80
DA:342,80
DA:343,32
DA:346,8
DA:347,8
DA:355,2
DA:356,2
DA:357,2
DA:358,2
DA:361,2
DA:362,2
DA:363,2
DA:366,2
DA:367,2
DA:370,2
DA:371,2
DA:374,2
DA:377,2
DA:378,2
DA:379,2
DA:380,2
DA:381,2
DA:382,2
DA:385,2
DA:386,2
DA:387,2
DA:388,2
DA:389,2
DA:390,2
DA:393,2
DA:394,2
DA:397,2
DA:398,2
DA:401,2
DA:402,2
DA:405,2
DA:406,2
DA:407,2
DA:410,2
DA:411,2
DA:412,2
DA:415,2
DA:416,2
DA:419,2
DA:420,2
DA:423,2
DA:426,2
DA:427,2
DA:428,2
DA:429,2
DA:430,2
DA:431,2
DA:432,2
DA:439,2
DA:441,2
DA:442,2
DA:443,2
DA:444,2
DA:445,2
DA:446,2
DA:447,2
DA:448,2
DA:449,2
DA:450,2
DA:451,2
DA:452,2
DA:453,2
DA:454,2
DA:455,2
DA:456,2
DA:457,2
DA:458,2
DA:459,2
DA:460,2
DA:461,2
DA:463,2
DA:464,2
DA:467,2
DA:468,2
DA:469,2
DA:470,2
DA:473,2
DA:474,2
DA:475,2
DA:476,2
DA:477,2
DA:480,2
DA:481,2
DA:482,2
DA:483,2
DA:484,2
DA:485,2
DA:486,2
DA:487,2
DA:488,2
DA:491,16
DA:492,14
DA:494,2
DA:497,2
DA:498,2
DA:499,2
DA:500,2
DA:501,2
DA:502,2
DA:503,2
DA:504,2
DA:505,2
DA:506,2
DA:507,2
DA:510,20
DA:511,18
DA:513,2
DA:516,2
DA:517,2
DA:518,2
DA:519,2
DA:520,2
DA:521,2
DA:524,10
DA:525,8
DA:527,2
DA:530,2
DA:531,2
DA:532,2
DA:533,2
DA:534,2
DA:535,2
DA:536,2
DA:537,2
DA:540,14
DA:541,12
DA:543,2
DA:546,2
DA:547,2
DA:548,2
DA:549,2
DA:550,2
DA:551,2
DA:552,2
DA:553,2
DA:554,2
DA:557,16
DA:558,14
DA:560,2
DA:563,2
DA:564,2
DA:565,2
DA:566,2
DA:567,2
DA:570,8
DA:571,6
DA:573,2
DA:576,2
DA:577,2
DA:578,2
DA:579,2
DA:580,2
DA:581,2
DA:584,10
DA:585,8
DA:587,2
DA:594,2
DA:595,2
DA:596,2
DA:597,2
DA:598,2
DA:599,2
DA:600,2
DA:602,2
DA:603,2
DA:604,2
DA:605,2
DA:606,2
DA:609,2
DA:610,2
DA:611,2
DA:612,2
DA:613,2
DA:614,2
DA:615,2
DA:617,2
DA:618,2
DA:619,2
DA:620,2
DA:621,2
DA:628,2
DA:629,2
DA:630,2
DA:631,2
DA:634,2
DA:635,2
DA:638,2
DA:639,2
DA:640,2
DA:641,2
DA:642,2
DA:643,2
DA:644,2
DA:645,2
DA:646,2
DA:647,2
DA:648,2
DA:651,22
DA:652,20
DA:654,2
DA:657,2
DA:658,2
DA:662,2
DA:664,2
DA:665,2
DA:668,2
DA:669,2
DA:670,2
DA:672,2
DA:673,2
DA:674,2
DA:675,2
DA:678,2
DA:679,2
DA:680,2
DA:682,2
DA:683,2
DA:684,2
DA:687,2
DA:688,2
DA:690,2
DA:691,2
DA:693,2
DA:694,2
DA:695,2
DA:698,2
DA:699,2
DA:700,2
DA:702,2
DA:703,2
DA:704,2
DA:705,2
DA:708,2
DA:709,2
DA:710,2
DA:712,2
DA:713,2
DA:714,2
DA:717,2
DA:718,2
DA:719,2
DA:721,2
DA:722,2
DA:723,2
DA:726,2
DA:727,2
DA:728,2
DA:730,2
DA:731,2
DA:732,2
DA:735,2
DA:736,2
DA:737,2
DA:739,2
DA:741,2
DA:742,2
DA:745,2
DA:746,2
DA:749,2
DA:750,2
DA:751,2
DA:754,2
DA:755,2
DA:758,2
DA:759,2
DA:760,2
DA:763,2
DA:764,2
DA:767,2
DA:768,2
DA:769,2
DA:772,2
DA:773,2
DA:776,2
DA:777,2
DA:778,2
DA:781,2
DA:782,2
DA:783,2
DA:786,2
DA:787,2
DA:788,2
DA:789,2
DA:790,2
DA:791,2
DA:792,2
DA:795,2
DA:796,2
DA:797,2
DA:800,2
DA:801,2
DA:804,2
DA:805,2
DA:806,2
DA:809,2
DA:810,2
DA:813,2
DA:814,2
DA:816,20
DA:817,20
DA:818,20
DA:819,20
DA:820,20
DA:821,0
DA:823,2
DA:826,2
DA:827,2
DA:829,20
DA:830,20
DA:831,40
DA:832,20
DA:833,20
DA:835,0
DA:837,2
BRF:0
BRH:0
LF:464
LH:462
end_of_record
SF:/home/noah/src/batuta/src/report.rs
FN:253,_RNCNvMNtCs2Yt0WxJROpx_6batuta6reportNtB4_15MigrationReport11to_markdown0B6_
FN:256,_RNCNvMNtCs2Yt0WxJROpx_6batuta6reportNtB4_15MigrationReport11to_markdowns0_0B6_
FN:257,_RNCNvMNtCs2Yt0WxJROpx_6batuta6reportNtB4_15MigrationReport11to_markdowns1_0B6_
FN:254,_RNCNvMNtCs2Yt0WxJROpx_6batuta6reportNtB4_15MigrationReport11to_markdowns_0B6_
FN:140,_RNCNvMNtCs2Yt0WxJROpx_6batuta6reportNtB4_15MigrationReport7to_html0B6_
FN:146,_RNCNvMNtCs2Yt0WxJROpx_6batuta6reportNtB4_15MigrationReport7to_htmls0_0B6_
FN:147,_RNCNvMNtCs2Yt0WxJROpx_6batuta6reportNtB4_15MigrationReport7to_htmls1_0B6_
FN:141,_RNCNvMNtCs2Yt0WxJROpx_6batuta6reportNtB4_15MigrationReport7to_htmls_0B6_
FN:187,_RNvMNtCs2Yt0WxJROpx_6batuta6reportNtB2_15MigrationReport11to_markdown
FN:17,_RNvMNtCs2Yt0WxJROpx_6batuta6reportNtB2_15MigrationReport3new
FN:393,_RNvMNtCs2Yt0WxJROpx_6batuta6reportNtB2_15MigrationReport4save
FN:27,_RNvMNtCs2Yt0WxJROpx_6batuta6reportNtB2_15MigrationReport7to_html
FN:287,_RNvMNtCs2Yt0WxJROpx_6batuta6reportNtB2_15MigrationReport7to_json
FN:292,_RNvMNtCs2Yt0WxJROpx_6batuta6reportNtB2_15MigrationReport7to_text
FN:414,_RNvNtCs2Yt0WxJROpx_6batuta6report13get_tdg_grade
FN:187,_RNvMNtCsjH0PaGjVXp8_6batuta6reportNtB2_15MigrationReport11to_markdown
FN:17,_RNvMNtCsjH0PaGjVXp8_6batuta6reportNtB2_15MigrationReport3new
FN:393,_RNvMNtCsjH0PaGjVXp8_6batuta6reportNtB2_15MigrationReport4save
FN:27,_RNvMNtCsjH0PaGjVXp8_6batuta6reportNtB2_15MigrationReport7to_html
FN:287,_RNvMNtCsjH0PaGjVXp8_6batuta6reportNtB2_15MigrationReport7to_json
FN:292,_RNvMNtCsjH0PaGjVXp8_6batuta6reportNtB2_15MigrationReport7to_text
FN:414,_RNvNtCsjH0PaGjVXp8_6batuta6report13get_tdg_grade
FN:437,_RNvNtNtCsjH0PaGjVXp8_6batuta6report5tests20create_test_analysis
FN:466,_RNvNtNtCsjH0PaGjVXp8_6batuta6report5tests20create_test_workflow
FN:788,_RNvNtNtCsjH0PaGjVXp8_6batuta6report5testss_14test_save_html
FN:820,_RNvNtNtCsjH0PaGjVXp8_6batuta6report5testss_14test_save_json
FN:836,_RNvNtNtCsjH0PaGjVXp8_6batuta6report5testss_14test_save_text
FN:804,_RNvNtNtCsjH0PaGjVXp8_6batuta6report5testss_18test_save_markdown
FN:699,_RNvNtNtCsjH0PaGjVXp8_6batuta6report5testss_18test_to_json_valid
FN:862,_RNvNtNtCsjH0PaGjVXp8_6batuta6report5testss_20test_get_tdg_grade_a
FN:874,_RNvNtNtCsjH0PaGjVXp8_6batuta6report5testss_20test_get_tdg_grade_b
FN:880,_RNvNtNtCsjH0PaGjVXp8_6batuta6report5testss_20test_get_tdg_grade_c
FN:886,_RNvNtNtCsjH0PaGjVXp8_6batuta6report5testss_20test_get_tdg_grade_d
FN:713,_RNvNtNtCsjH0PaGjVXp8_6batuta6report5testss_24test_to_json_deserialize
FN:856,_RNvNtNtCsjH0PaGjVXp8_6batuta6report5testss_25test_get_tdg_grade_a_plus
FN:868,_RNvNtNtCsjH0PaGjVXp8_6batuta6report5testss_25test_get_tdg_grade_b_plus
FN:479,_RNvNtNtCsjH0PaGjVXp8_6batuta6report5testss_25test_migration_report_new
FN:491,_RNvNtNtCsjH0PaGjVXp8_6batuta6report5testss_27test_migration_report_clone
FN:601,_RNvNtNtCsjH0PaGjVXp8_6batuta6report5testss_28test_to_html_contains_footer
FN:506,_RNvNtNtCsjH0PaGjVXp8_6batuta6report5testss_28test_to_html_contains_header
FN:730,_RNvNtNtCsjH0PaGjVXp8_6batuta6report5testss_28test_to_text_contains_header
FN:949,_RNvNtNtCsjH0PaGjVXp8_6batuta6report5testss_29test_report_format_clone_copy
FN:897,_RNvNtNtCsjH0PaGjVXp8_6batuta6report5testss_29test_report_with_no_languages
FN:935,_RNvNtNtCsjH0PaGjVXp8_6batuta6report5testss_29test_report_with_no_tdg_score
FN:519,_RNvNtNtCsjH0PaGjVXp8_6batuta6report5testss_29test_to_html_contains_summary
FN:743,_RNvNtNtCsjH0PaGjVXp8_6batuta6report5testss_29test_to_text_contains_summary
FN:975,_RNvNtNtCsjH0PaGjVXp8_6batuta6report5testss_30test_report_with_low_tdg_score
FN:574,_RNvNtNtCsjH0PaGjVXp8_6batuta6report5testss_30test_to_html_contains_workflow
FN:771,_RNvNtNtCsjH0PaGjVXp8_6batuta6report5testss_30test_to_text_contains_workflow
FN:959,_RNvNtNtCsjH0PaGjVXp8_6batuta6report5testss_31test_report_with_high_tdg_score
FN:533,_RNvNtNtCsjH0PaGjVXp8_6batuta6report5testss_31test_to_html_contains_tdg_score
FN:757,_RNvNtNtCsjH0PaGjVXp8_6batuta6report5testss_31test_to_text_contains_languages
FN:991,_RNvNtNtCsjH0PaGjVXp8_6batuta6report5testss_32test_report_with_ml_dependencies
FN:916,_RNvNtNtCsjH0PaGjVXp8_6batuta6report5testss_32test_report_with_no_dependencies
FN:682,_RNvNtNtCsjH0PaGjVXp8_6batuta6report5testss_32test_to_markdown_contains_footer
FN:618,_RNvNtNtCsjH0PaGjVXp8_6batuta6report5testss_32test_to_markdown_contains_header
FN:630,_RNvNtNtCsjH0PaGjVXp8_6batuta6report5testss_33test_to_markdown_contains_summary
FN:561,_RNvNtNtCsjH0PaGjVXp8_6batuta6report5testss_34test_to_html_contains_dependencies
FN:669,_RNvNtNtCsjH0PaGjVXp8_6batuta6report5testss_34test_to_markdown_contains_workflow
FN:546,_RNvNtNtCsjH0PaGjVXp8_6batuta6report5testss_37test_to_html_contains_languages_table
FN:588,_RNvNtNtCsjH0PaGjVXp8_6batuta6report5testss_37test_to_html_contains_recommendations
FN:657,_RNvNtNtCsjH0PaGjVXp8_6batuta6report5testss_38test_to_markdown_contains_dependencies
FN:644,_RNvNtNtCsjH0PaGjVXp8_6batuta6report5testss_41test_to_markdown_contains_languages_table
FN:253,_RNCNvMNtCsjH0PaGjVXp8_6batuta6reportNtB4_15MigrationReport11to_markdown0B6_
FN:256,_RNCNvMNtCsjH0PaGjVXp8_6batuta6reportNtB4_15MigrationReport11to_markdowns0_0B6_
FN:257,_RNCNvMNtCsjH0PaGjVXp8_6batuta6reportNtB4_15MigrationReport11to_markdowns1_0B6_
FN:254,_RNCNvMNtCsjH0PaGjVXp8_6batuta6reportNtB4_15MigrationReport11to_markdowns_0B6_
FN:140,_RNCNvMNtCsjH0PaGjVXp8_6batuta6reportNtB4_15MigrationReport7to_html0B6_
FN:146,_RNCNvMNtCsjH0PaGjVXp8_6batuta6reportNtB4_15MigrationReport7to_htmls0_0B6_
FN:147,_RNCNvMNtCsjH0PaGjVXp8_6batuta6reportNtB4_15MigrationReport7to_htmls1_0B6_
FN:141,_RNCNvMNtCsjH0PaGjVXp8_6batuta6reportNtB4_15MigrationReport7to_htmls_0B6_
FN:437,_RNvNtNtCshEp7d2sUZm6_6batuta6report5tests20create_test_analysis
FN:466,_RNvNtNtCshEp7d2sUZm6_6batuta6report5tests20create_test_workflow
FN:788,_RNvNtNtCshEp7d2sUZm6_6batuta6report5testss_14test_save_html
FN:820,_RNvNtNtCshEp7d2sUZm6_6batuta6report5testss_14test_save_json
FN:836,_RNvNtNtCshEp7d2sUZm6_6batuta6report5testss_14test_save_text
FN:804,_RNvNtNtCshEp7d2sUZm6_6batuta6report5testss_18test_save_markdown
FN:699,_RNvNtNtCshEp7d2sUZm6_6batuta6report5testss_18test_to_json_valid
FN:862,_RNvNtNtCshEp7d2sUZm6_6batuta6report5testss_20test_get_tdg_grade_a
FN:874,_RNvNtNtCshEp7d2sUZm6_6batuta6report5testss_20test_get_tdg_grade_b
FN:880,_RNvNtNtCshEp7d2sUZm6_6batuta6report5testss_20test_get_tdg_grade_c
FN:886,_RNvNtNtCshEp7d2sUZm6_6batuta6report5testss_20test_get_tdg_grade_d
FN:713,_RNvNtNtCshEp7d2sUZm6_6batuta6report5testss_24test_to_json_deserialize
FN:856,_RNvNtNtCshEp7d2sUZm6_6batuta6report5testss_25test_get_tdg_grade_a_plus
FN:868,_RNvNtNtCshEp7d2sUZm6_6batuta6report5testss_25test_get_tdg_grade_b_plus
FN:479,_RNvNtNtCshEp7d2sUZm6_6batuta6report5testss_25test_migration_report_new
FN:491,_RNvNtNtCshEp7d2sUZm6_6batuta6report5testss_27test_migration_report_clone
FN:601,_RNvNtNtCshEp7d2sUZm6_6batuta6report5testss_28test_to_html_contains_footer
FN:506,_RNvNtNtCshEp7d2sUZm6_6batuta6report5testss_28test_to_html_contains_header
FN:730,_RNvNtNtCshEp7d2sUZm6_6batuta6report5testss_28test_to_text_contains_header
FN:949,_RNvNtNtCshEp7d2sUZm6_6batuta6report5testss_29test_report_format_clone_copy
FN:897,_RNvNtNtCshEp7d2sUZm6_6batuta6report5testss_29test_report_with_no_languages
FN:935,_RNvNtNtCshEp7d2sUZm6_6batuta6report5testss_29test_report_with_no_tdg_score
FN:519,_RNvNtNtCshEp7d2sUZm6_6batuta6report5testss_29test_to_html_contains_summary
FN:743,_RNvNtNtCshEp7d2sUZm6_6batuta6report5testss_29test_to_text_contains_summary
FN:975,_RNvNtNtCshEp7d2sUZm6_6batuta6report5testss_30test_report_with_low_tdg_score
FN:574,_RNvNtNtCshEp7d2sUZm6_6batuta6report5testss_30test_to_html_contains_workflow
FN:771,_RNvNtNtCshEp7d2sUZm6_6batuta6report5testss_30test_to_text_contains_workflow
FN:959,_RNvNtNtCshEp7d2sUZm6_6batuta6report5testss_31test_report_with_high_tdg_score
FN:533,_RNvNtNtCshEp7d2sUZm6_6batuta6report5testss_31test_to_html_contains_tdg_score
FN:757,_RNvNtNtCshEp7d2sUZm6_6batuta6report5testss_31test_to_text_contains_languages
FN:991,_RNvNtNtCshEp7d2sUZm6_6batuta6report5testss_32test_report_with_ml_dependencies
FN:916,_RNvNtNtCshEp7d2sUZm6_6batuta6report5testss_32test_report_with_no_dependencies
FN:682,_RNvNtNtCshEp7d2sUZm6_6batuta6report5testss_32test_to_markdown_contains_footer
FN:618,_RNvNtNtCshEp7d2sUZm6_6batuta6report5testss_32test_to_markdown_contains_header
FN:630,_RNvNtNtCshEp7d2sUZm6_6batuta6report5testss_33test_to_markdown_contains_summary
FN:561,_RNvNtNtCshEp7d2sUZm6_6batuta6report5testss_34test_to_html_contains_dependencies
FN:669,_RNvNtNtCshEp7d2sUZm6_6batuta6report5testss_34test_to_markdown_contains_workflow
FN:546,_RNvNtNtCshEp7d2sUZm6_6batuta6report5testss_37test_to_html_contains_languages_table
FN:588,_RNvNtNtCshEp7d2sUZm6_6batuta6report5testss_37test_to_html_contains_recommendations
FN:657,_RNvNtNtCshEp7d2sUZm6_6batuta6report5testss_38test_to_markdown_contains_dependencies
FN:644,_RNvNtNtCshEp7d2sUZm6_6batuta6report5testss_41test_to_markdown_contains_languages_table
FN:253,_RNCNvMNtCshEp7d2sUZm6_6batuta6reportNtB4_15MigrationReport11to_markdown0B6_
FN:256,_RNCNvMNtCshEp7d2sUZm6_6batuta6reportNtB4_15MigrationReport11to_markdowns0_0B6_
FN:257,_RNCNvMNtCshEp7d2sUZm6_6batuta6reportNtB4_15MigrationReport11to_markdowns1_0B6_
FN:254,_RNCNvMNtCshEp7d2sUZm6_6batuta6reportNtB4_15MigrationReport11to_markdowns_0B6_
FN:140,_RNCNvMNtCshEp7d2sUZm6_6batuta6reportNtB4_15MigrationReport7to_html0B6_
FN:146,_RNCNvMNtCshEp7d2sUZm6_6batuta6reportNtB4_15MigrationReport7to_htmls0_0B6_
FN:147,_RNCNvMNtCshEp7d2sUZm6_6batuta6reportNtB4_15MigrationReport7to_htmls1_0B6_
FN:141,_RNCNvMNtCshEp7d2sUZm6_6batuta6reportNtB4_15MigrationReport7to_htmls_0B6_
FN:187,_RNvMNtCshEp7d2sUZm6_6batuta6reportNtB2_15MigrationReport11to_markdown
FN:17,_RNvMNtCshEp7d2sUZm6_6batuta6reportNtB2_15MigrationReport3new
FN:393,_RNvMNtCshEp7d2sUZm6_6batuta6reportNtB2_15MigrationReport4save
FN:27,_RNvMNtCshEp7d2sUZm6_6batuta6reportNtB2_15MigrationReport7to_html
FN:287,_RNvMNtCshEp7d2sUZm6_6batuta6reportNtB2_15MigrationReport7to_json
FN:292,_RNvMNtCshEp7d2sUZm6_6batuta6reportNtB2_15MigrationReport7to_text
FN:414,_RNvNtCshEp7d2sUZm6_6batuta6report13get_tdg_grade
FN:253,_RNCNvMNtCsc3xvWSUKV5Z_6batuta6reportNtB4_15MigrationReport11to_markdown0B6_
FN:256,_RNCNvMNtCsc3xvWSUKV5Z_6batuta6reportNtB4_15MigrationReport11to_markdowns0_0B6_
FN:257,_RNCNvMNtCsc3xvWSUKV5Z_6batuta6reportNtB4_15MigrationReport11to_markdowns1_0B6_
FN:254,_RNCNvMNtCsc3xvWSUKV5Z_6batuta6reportNtB4_15MigrationReport11to_markdowns_0B6_
FN:140,_RNCNvMNtCsc3xvWSUKV5Z_6batuta6reportNtB4_15MigrationReport7to_html0B6_
FN:146,_RNCNvMNtCsc3xvWSUKV5Z_6batuta6reportNtB4_15MigrationReport7to_htmls0_0B6_
FN:147,_RNCNvMNtCsc3xvWSUKV5Z_6batuta6reportNtB4_15MigrationReport7to_htmls1_0B6_
FN:141,_RNCNvMNtCsc3xvWSUKV5Z_6batuta6reportNtB4_15MigrationReport7to_htmls_0B6_
FNDA:1,_RNCNvMNtCs2Yt0WxJROpx_6batuta6reportNtB4_15MigrationReport11to_markdown0B6_
FNDA:1,_RNCNvMNtCs2Yt0WxJROpx_6batuta6reportNtB4_15MigrationReport11to_markdowns0_0B6_
FNDA:4,_RNCNvMNtCs2Yt0WxJROpx_6batuta6reportNtB4_15MigrationReport11to_markdowns1_0B6_
FNDA:4,_RNCNvMNtCs2Yt0WxJROpx_6batuta6reportNtB4_15MigrationReport11to_markdowns_0B6_
FNDA:1,_RNCNvMNtCs2Yt0WxJROpx_6batuta6reportNtB4_15MigrationReport7to_html0B6_
FNDA:1,_RNCNvMNtCs2Yt0WxJROpx_6batuta6reportNtB4_15MigrationReport7to_htmls0_0B6_
FNDA:4,_RNCNvMNtCs2Yt0WxJROpx_6batuta6reportNtB4_15MigrationReport7to_htmls1_0B6_
FNDA:4,_RNCNvMNtCs2Yt0WxJROpx_6batuta6reportNtB4_15MigrationReport7to_htmls_0B6_
FNDA:1,_RNvMNtCs2Yt0WxJROpx_6batuta6reportNtB2_15MigrationReport11to_markdown
FNDA:4,_RNvMNtCs2Yt0WxJROpx_6batuta6reportNtB2_15MigrationReport3new
FNDA:4,_RNvMNtCs2Yt0WxJROpx_6batuta6reportNtB2_15MigrationReport4save
FNDA:1,_RNvMNtCs2Yt0WxJROpx_6batuta6reportNtB2_15MigrationReport7to_html
FNDA:1,_RNvMNtCs2Yt0WxJROpx_6batuta6reportNtB2_15MigrationReport7to_json
FNDA:1,_RNvMNtCs2Yt0WxJROpx_6batuta6reportNtB2_15MigrationReport7to_text
FNDA:3,_RNvNtCs2Yt0WxJROpx_6batuta6report13get_tdg_grade
FNDA:9,_RNvMNtCsjH0PaGjVXp8_6batuta6reportNtB2_15MigrationReport11to_markdown
FNDA:32,_RNvMNtCsjH0PaGjVXp8_6batuta6reportNtB2_15MigrationReport3new
FNDA:4,_RNvMNtCsjH0PaGjVXp8_6batuta6reportNtB2_15MigrationReport4save
FNDA:15,_RNvMNtCsjH0PaGjVXp8_6batuta6reportNtB2_15MigrationReport7to_html
FNDA:3,_RNvMNtCsjH0PaGjVXp8_6batuta6reportNtB2_15MigrationReport7to_json
FNDA:7,_RNvMNtCsjH0PaGjVXp8_6batuta6reportNtB2_15MigrationReport7to_text
FNDA:37,_RNvNtCsjH0PaGjVXp8_6batuta6report13get_tdg_grade
FNDA:29,_RNvNtNtCsjH0PaGjVXp8_6batuta6report5tests20create_test_analysis
FNDA:29,_RNvNtNtCsjH0PaGjVXp8_6batuta6report5tests20create_test_workflow
FNDA:1,_RNvNtNtCsjH0PaGjVXp8_6batuta6report5testss_14test_save_html
FNDA:1,_RNvNtNtCsjH0PaGjVXp8_6batuta6report5testss_14test_save_json
FNDA:1,_RNvNtNtCsjH0PaGjVXp8_6batuta6report5testss_14test_save_text
FNDA:1,_RNvNtNtCsjH0PaGjVXp8_6batuta6report5testss_18test_save_markdown
FNDA:1,_RNvNtNtCsjH0PaGjVXp8_6batuta6report5testss_18test_to_json_valid
FNDA:1,_RNvNtNtCsjH0PaGjVXp8_6batuta6report5testss_20test_get_tdg_grade_a
FNDA:1,_RNvNtNtCsjH0PaGjVXp8_6batuta6report5testss_20test_get_tdg_grade_b
FNDA:1,_RNvNtNtCsjH0PaGjVXp8_6batuta6report5testss_20test_get_tdg_grade_c
FNDA:1,_RNvNtNtCsjH0PaGjVXp8_6batuta6report5testss_20test_get_tdg_grade_d
FNDA:1,_RNvNtNtCsjH0PaGjVXp8_6batuta6report5testss_24test_to_json_deserialize
FNDA:1,_RNvNtNtCsjH0PaGjVXp8_6batuta6report5testss_25test_get_tdg_grade_a_plus
FNDA:1,_RNvNtNtCsjH0PaGjVXp8_6batuta6report5testss_25test_get_tdg_grade_b_plus
FNDA:1,_RNvNtNtCsjH0PaGjVXp8_6batuta6report5testss_25test_migration_report_new
FNDA:1,_RNvNtNtCsjH0PaGjVXp8_6batuta6report5testss_27test_migration_report_clone
FNDA:1,_RNvNtNtCsjH0PaGjVXp8_6batuta6report5testss_28test_to_html_contains_footer
FNDA:1,_RNvNtNtCsjH0PaGjVXp8_6batuta6report5testss_28test_to_html_contains_header
FNDA:1,_RNvNtNtCsjH0PaGjVXp8_6batuta6report5testss_28test_to_text_contains_header
FNDA:1,_RNvNtNtCsjH0PaGjVXp8_6batuta6report5testss_29test_report_format_clone_copy
FNDA:1,_RNvNtNtCsjH0PaGjVXp8_6batuta6report5testss_29test_report_with_no_languages
FNDA:1,_RNvNtNtCsjH0PaGjVXp8_6batuta6report5testss_29test_report_with_no_tdg_score
FNDA:1,_RNvNtNtCsjH0PaGjVXp8_6batuta6report5testss_29test_to_html_contains_summary
FNDA:1,_RNvNtNtCsjH0PaGjVXp8_6batuta6report5testss_29test_to_text_contains_summary
FNDA:1,_RNvNtNtCsjH0PaGjVXp8_6batuta6report5testss_30test_report_with_low_tdg_score
FNDA:1,_RNvNtNtCsjH0PaGjVXp8_6batuta6report5testss_30test_to_html_contains_workflow
FNDA:1,_RNvNtNtCsjH0PaGjVXp8_6batuta6report5testss_30test_to_text_contains_workflow
FNDA:1,_RNvNtNtCsjH0PaGjVXp8_6batuta6report5testss_31test_report_with_high_tdg_score
FNDA:1,_RNvNtNtCsjH0PaGjVXp8_6batuta6report5testss_31test_to_html_contains_tdg_score
FNDA:1,_RNvNtNtCsjH0PaGjVXp8_6batuta6report5testss_31test_to_text_contains_languages
FNDA:1,_RNvNtNtCsjH0PaGjVXp8_6batuta6report5testss_32test_report_with_ml_dependencies
FNDA:1,_RNvNtNtCsjH0PaGjVXp8_6batuta6report5testss_32test_report_with_no_dependencies
FNDA:1,_RNvNtNtCsjH0PaGjVXp8_6batuta6report5testss_32test_to_markdown_contains_footer
FNDA:1,_RNvNtNtCsjH0PaGjVXp8_6batuta6report5testss_32test_to_markdown_contains_header
FNDA:1,_RNvNtNtCsjH0PaGjVXp8_6batuta6report5testss_33test_to_markdown_contains_summary
FNDA:1,_RNvNtNtCsjH0PaGjVXp8_6batuta6report5testss_34test_to_html_contains_dependencies
FNDA:1,_RNvNtNtCsjH0PaGjVXp8_6batuta6report5testss_34test_to_markdown_contains_workflow
FNDA:1,_RNvNtNtCsjH0PaGjVXp8_6batuta6report5testss_37test_to_html_contains_languages_table
FNDA:1,_RNvNtNtCsjH0PaGjVXp8_6batuta6report5testss_37test_to_html_contains_recommendations
FNDA:1,_RNvNtNtCsjH0PaGjVXp8_6batuta6report5testss_38test_to_markdown_contains_dependencies
FNDA:1,_RNvNtNtCsjH0PaGjVXp8_6batuta6report5testss_41test_to_markdown_contains_languages_table
FNDA:14,_RNCNvMNtCsjH0PaGjVXp8_6batuta6reportNtB4_15MigrationReport11to_markdown0B6_
FNDA:7,_RNCNvMNtCsjH0PaGjVXp8_6batuta6reportNtB4_15MigrationReport11to_markdowns0_0B6_
FNDA:38,_RNCNvMNtCsjH0PaGjVXp8_6batuta6reportNtB4_15MigrationReport11to_markdowns1_0B6_
FNDA:31,_RNCNvMNtCsjH0PaGjVXp8_6batuta6reportNtB4_15MigrationReport11to_markdowns_0B6_
FNDA:24,_RNCNvMNtCsjH0PaGjVXp8_6batuta6reportNtB4_15MigrationReport7to_html0B6_
FNDA:12,_RNCNvMNtCsjH0PaGjVXp8_6batuta6reportNtB4_15MigrationReport7to_htmls0_0B6_
FNDA:63,_RNCNvMNtCsjH0PaGjVXp8_6batuta6reportNtB4_15MigrationReport7to_htmls1_0B6_
FNDA:51,_RNCNvMNtCsjH0PaGjVXp8_6batuta6reportNtB4_15MigrationReport7to_htmls_0B6_
FNDA:29,_RNvNtNtCshEp7d2sUZm6_6batuta6report5tests20create_test_analysis
FNDA:29,_RNvNtNtCshEp7d2sUZm6_6batuta6report5tests20create_test_workflow
FNDA:1,_RNvNtNtCshEp7d2sUZm6_6batuta6report5testss_14test_save_html
FNDA:1,_RNvNtNtCshEp7d2sUZm6_6batuta6report5testss_14test_save_json
FNDA:1,_RNvNtNtCshEp7d2sUZm6_6batuta6report5testss_14test_save_text
FNDA:1,_RNvNtNtCshEp7d2sUZm6_6batuta6report5testss_18test_save_markdown
FNDA:1,_RNvNtNtCshEp7d2sUZm6_6batuta6report5testss_18test_to_json_valid
FNDA:1,_RNvNtNtCshEp7d2sUZm6_6batuta6report5testss_20test_get_tdg_grade_a
FNDA:1,_RNvNtNtCshEp7d2sUZm6_6batuta6report5testss_20test_get_tdg_grade_b
FNDA:1,_RNvNtNtCshEp7d2sUZm6_6batuta6report5testss_20test_get_tdg_grade_c
FNDA:1,_RNvNtNtCshEp7d2sUZm6_6batuta6report5testss_20test_get_tdg_grade_d
FNDA:1,_RNvNtNtCshEp7d2sUZm6_6batuta6report5testss_24test_to_json_deserialize
FNDA:1,_RNvNtNtCshEp7d2sUZm6_6batuta6report5testss_25test_get_tdg_grade_a_plus
FNDA:1,_RNvNtNtCshEp7d2sUZm6_6batuta6report5testss_25test_get_tdg_grade_b_plus
FNDA:1,_RNvNtNtCshEp7d2sUZm6_6batuta6report5testss_25test_migration_report_new
FNDA:1,_RNvNtNtCshEp7d2sUZm6_6batuta6report5testss_27test_migration_report_clone
FNDA:1,_RNvNtNtCshEp7d2sUZm6_6batuta6report5testss_28test_to_html_contains_footer
FNDA:1,_RNvNtNtCshEp7d2sUZm6_6batuta6report5testss_28test_to_html_contains_header
FNDA:1,_RNvNtNtCshEp7d2sUZm6_6batuta6report5testss_28test_to_text_contains_header
FNDA:1,_RNvNtNtCshEp7d2sUZm6_6batuta6report5testss_29test_report_format_clone_copy
FNDA:1,_RNvNtNtCshEp7d2sUZm6_6batuta6report5testss_29test_report_with_no_languages
FNDA:1,_RNvNtNtCshEp7d2sUZm6_6batuta6report5testss_29test_report_with_no_tdg_score
FNDA:1,_RNvNtNtCshEp7d2sUZm6_6batuta6report5testss_29test_to_html_contains_summary
FNDA:1,_RNvNtNtCshEp7d2sUZm6_6batuta6report5testss_29test_to_text_contains_summary
FNDA:1,_RNvNtNtCshEp7d2sUZm6_6batuta6report5testss_30test_report_with_low_tdg_score
FNDA:1,_RNvNtNtCshEp7d2sUZm6_6batuta6report5testss_30test_to_html_contains_workflow
FNDA:1,_RNvNtNtCshEp7d2sUZm6_6batuta6report5testss_30test_to_text_contains_workflow
FNDA:1,_RNvNtNtCshEp7d2sUZm6_6batuta6report5testss_31test_report_with_high_tdg_score
FNDA:1,_RNvNtNtCshEp7d2sUZm6_6batuta6report5testss_31test_to_html_contains_tdg_score
FNDA:1,_RNvNtNtCshEp7d2sUZm6_6batuta6report5testss_31test_to_text_contains_languages
FNDA:1,_RNvNtNtCshEp7d2sUZm6_6batuta6report5testss_32test_report_with_ml_dependencies
FNDA:1,_RNvNtNtCshEp7d2sUZm6_6batuta6report5testss_32test_report_with_no_dependencies
FNDA:1,_RNvNtNtCshEp7d2sUZm6_6batuta6report5testss_32test_to_markdown_contains_footer
FNDA:1,_RNvNtNtCshEp7d2sUZm6_6batuta6report5testss_32test_to_markdown_contains_header
FNDA:1,_RNvNtNtCshEp7d2sUZm6_6batuta6report5testss_33test_to_markdown_contains_summary
FNDA:1,_RNvNtNtCshEp7d2sUZm6_6batuta6report5testss_34test_to_html_contains_dependencies
FNDA:1,_RNvNtNtCshEp7d2sUZm6_6batuta6report5testss_34test_to_markdown_contains_workflow
FNDA:1,_RNvNtNtCshEp7d2sUZm6_6batuta6report5testss_37test_to_html_contains_languages_table
FNDA:1,_RNvNtNtCshEp7d2sUZm6_6batuta6report5testss_37test_to_html_contains_recommendations
FNDA:1,_RNvNtNtCshEp7d2sUZm6_6batuta6report5testss_38test_to_markdown_contains_dependencies
FNDA:1,_RNvNtNtCshEp7d2sUZm6_6batuta6report5testss_41test_to_markdown_contains_languages_table
FNDA:14,_RNCNvMNtCshEp7d2sUZm6_6batuta6reportNtB4_15MigrationReport11to_markdown0B6_
FNDA:7,_RNCNvMNtCshEp7d2sUZm6_6batuta6reportNtB4_15MigrationReport11to_markdowns0_0B6_
FNDA:38,_RNCNvMNtCshEp7d2sUZm6_6batuta6reportNtB4_15MigrationReport11to_markdowns1_0B6_
FNDA:31,_RNCNvMNtCshEp7d2sUZm6_6batuta6reportNtB4_15MigrationReport11to_markdowns_0B6_
FNDA:24,_RNCNvMNtCshEp7d2sUZm6_6batuta6reportNtB4_15MigrationReport7to_html0B6_
FNDA:12,_RNCNvMNtCshEp7d2sUZm6_6batuta6reportNtB4_15MigrationReport7to_htmls0_0B6_
FNDA:63,_RNCNvMNtCshEp7d2sUZm6_6batuta6reportNtB4_15MigrationReport7to_htmls1_0B6_
FNDA:51,_RNCNvMNtCshEp7d2sUZm6_6batuta6reportNtB4_15MigrationReport7to_htmls_0B6_
FNDA:9,_RNvMNtCshEp7d2sUZm6_6batuta6reportNtB2_15MigrationReport11to_markdown
FNDA:32,_RNvMNtCshEp7d2sUZm6_6batuta6reportNtB2_15MigrationReport3new
FNDA:4,_RNvMNtCshEp7d2sUZm6_6batuta6reportNtB2_15MigrationReport4save
FNDA:15,_RNvMNtCshEp7d2sUZm6_6batuta6reportNtB2_15MigrationReport7to_html
FNDA:3,_RNvMNtCshEp7d2sUZm6_6batuta6reportNtB2_15MigrationReport7to_json
FNDA:7,_RNvMNtCshEp7d2sUZm6_6batuta6reportNtB2_15MigrationReport7to_text
FNDA:37,_RNvNtCshEp7d2sUZm6_6batuta6report13get_tdg_grade
FNDA:0,_RNCNvMNtCsc3xvWSUKV5Z_6batuta6reportNtB4_15MigrationReport11to_markdown0B6_
FNDA:0,_RNCNvMNtCsc3xvWSUKV5Z_6batuta6reportNtB4_15MigrationReport11to_markdowns0_0B6_
FNDA:0,_RNCNvMNtCsc3xvWSUKV5Z_6batuta6reportNtB4_15MigrationReport11to_markdowns1_0B6_
FNDA:0,_RNCNvMNtCsc3xvWSUKV5Z_6batuta6reportNtB4_15MigrationReport11to_markdowns_0B6_
FNDA:0,_RNCNvMNtCsc3xvWSUKV5Z_6batuta6reportNtB4_15MigrationReport7to_html0B6_
FNDA:0,_RNCNvMNtCsc3xvWSUKV5Z_6batuta6reportNtB4_15MigrationReport7to_htmls0_0B6_
FNDA:0,_RNCNvMNtCsc3xvWSUKV5Z_6batuta6reportNtB4_15MigrationReport7to_htmls1_0B6_
FNDA:0,_RNCNvMNtCsc3xvWSUKV5Z_6batuta6reportNtB4_15MigrationReport7to_htmls_0B6_
FNF:56
FNH:56
DA:17,68
DA:18,68
DA:19,68
DA:20,68
DA:21,68
DA:22,68
DA:23,68
DA:24,68
DA:27,31
DA:28,31
DA:31,31
DA:32,31
DA:33,31
DA:34,31
DA:35,31
DA:36,31
DA:37,31
DA:38,31
DA:39,31
DA:40,31
DA:41,31
DA:44,31
DA:45,31
DA:46,31
DA:47,31
DA:48,31
DA:51,31
DA:52,31
DA:53,31
DA:54,31
DA:55,31
DA:56,31
DA:57,31
DA:58,31
DA:59,31
DA:60,31
DA:61,31
DA:62,31
DA:63,25
DA:64,25
DA:65,25
DA:66,25
DA:67,25
DA:68,31
DA:69,25
DA:70,25
DA:71,25
DA:72,25
DA:73,25
DA:74,25
DA:75,31
DA:76,31
DA:79,31
DA:80,25
DA:81,25
DA:82,25
DA:83,25
DA:84,25
DA:85,74
DA:86,49
DA:87,49
DA:88,49
DA:89,49
DA:90,49
DA:91,49
DA:92,49
DA:93,49
DA:94,25
DA:95,25
DA:96,25
DA:97,6
DA:100,31
DA:101,24
DA:102,24
DA:103,24
DA:104,48
DA:105,24
DA:106,24
DA:108,0
DA:110,24
DA:111,24
DA:112,24
DA:113,24
DA:115,24
DA:116,24
DA:117,7
DA:120,31
DA:121,31
DA:122,31
DA:123,31
DA:124,31
DA:125,31
DA:126,155
DA:127,155
DA:128,155
DA:129,25
DA:130,24
DA:131,0
DA:132,106
DA:134,155
DA:135,155
DA:136,155
DA:137,155
DA:138,155
DA:139,155
DA:140,155
DA:141,155
DA:143,155
DA:144,155
DA:145,155
DA:146,155
DA:147,155
DA:149,155
DA:150,0
DA:152,31
DA:153,31
DA:154,31
DA:157,31
DA:158,31
DA:159,31
DA:160,31
DA:161,25
DA:162,25
DA:163,31
DA:164,24
DA:165,24
DA:166,31
DA:167,25
DA:168,2
DA:169,23
DA:170,6
DA:171,31
DA:172,31
DA:175,31
DA:176,31
DA:177,31
DA:178,31
DA:180,31
DA:181,31
DA:183,31
DA:184,31
DA:187,19
DA:188,19
DA:191,19
DA:192,19
DA:193,19
DA:194,19
DA:195,19
DA:198,19
DA:199,19
DA:200,19
DA:201,19
DA:202,15
DA:203,15
DA:204,19
DA:205,15
DA:206,15
DA:207,15
DA:208,19
DA:211,19
DA:212,15
DA:213,15
DA:214,15
DA:215,44
DA:216,29
DA:217,29
DA:218,29
DA:219,29
DA:220,29
DA:221,29
DA:222,29
DA:223,29
DA:224,15
DA:225,4
DA:228,19
DA:229,14
DA:230,28
DA:231,14
DA:232,14
DA:234,0
DA:236,14
DA:238,14
DA:239,5
DA:242,19
DA:243,19
DA:244,19
DA:245,19
DA:246,95
DA:247,95
DA:248,95
DA:249,95
DA:252,95
DA:253,95
DA:254,95
DA:255,95
DA:256,95
DA:257,95
DA:259,0
DA:261,19
DA:264,19
DA:265,19
DA:266,15
DA:267,15
DA:268,19
DA:269,14
DA:270,14
DA:271,19
DA:272,15
DA:273,0
DA:274,15
DA:275,4
DA:276,19
DA:279,19
DA:280,19
DA:281,19
DA:283,19
DA:284,19
DA:287,7
DA:288,7
DA:289,7
DA:292,15
DA:293,15
DA:296,15
DA:297,15
DA:298,15
DA:299,15
DA:300,15
DA:301,15
DA:302,15
DA:305,15
DA:306,15
DA:307,15
DA:308,15
DA:309,15
DA:310,15
DA:311,11
DA:312,11
DA:313,15
DA:314,11
DA:315,11
DA:316,11
DA:317,15
DA:320,15
DA:321,11
DA:322,11
DA:323,11
DA:324,32
DA:325,21
DA:326,21
DA:327,21
DA:328,21
DA:329,21
DA:330,21
DA:331,21
DA:332,21
DA:333,11
DA:334,4
DA:337,15
DA:338,10
DA:339,10
DA:340,10
DA:341,20
DA:342,10
DA:343,10
DA:345,0
DA:347,10
DA:348,10
DA:350,10
DA:351,5
DA:354,15
DA:355,15
DA:356,15
DA:357,15
DA:358,75
DA:359,75
DA:360,75
DA:361,75
DA:362,21
DA:363,54
DA:364,75
DA:365,11
DA:366,64
DA:367,75
DA:368,0
DA:370,15
DA:373,15
DA:374,15
DA:375,15
DA:376,15
DA:377,11
DA:378,11
DA:379,15
DA:380,10
DA:381,10
DA:382,15
DA:383,11
DA:384,0
DA:385,11
DA:386,4
DA:387,15
DA:389,15
DA:390,15
DA:393,12
DA:394,12
DA:395,3
DA:396,3
DA:397,3
DA:398,3
DA:401,12
DA:402,12
DA:403,12
DA:414,77
DA:415,77
DA:416,9
DA:417,68
DA:418,4
DA:419,64
DA:420,48
DA:421,16
DA:422,4
DA:423,12
DA:424,6
DA:426,6
DA:428,77
DA:437,58
DA:438,58
DA:439,58
DA:440,58
DA:441,58
DA:442,58
DA:444,58
DA:445,58
DA:446,58
DA:447,58
DA:448,58
DA:449,58
DA:450,58
DA:451,58
DA:452,58
DA:453,58
DA:454,58
DA:455,58
DA:457,58
DA:458,58
DA:459,58
DA:460,58
DA:461,58
DA:463,58
DA:464,58
DA:466,58
DA:467,58
DA:468,58
DA:469,58
DA:470,58
DA:471,58
DA:472,58
DA:479,2
DA:480,2
DA:481,2
DA:483,2
DA:485,2
DA:486,2
DA:487,2
DA:488,2
DA:491,2
DA:492,2
DA:493,2
DA:494,2
DA:496,2
DA:497,2
DA:498,2
DA:499,2
DA:506,2
DA:507,2
DA:508,2
DA:509,2
DA:511,2
DA:513,2
DA:514,2
DA:515,2
DA:516,2
DA:519,2
DA:520,2
DA:521,2
DA:522,2
DA:524,2
DA:526,2
DA:527,2
DA:528,2
DA:529,2
DA:530,2
DA:533,2
DA:534,2
DA:535,2
DA:536,2
DA:538,2
DA:540,2
DA:541,2
DA:542,2
DA:543,2
DA:546,2
DA:547,2
DA:548,2
DA:549,2
DA:551,2
DA:553,2
DA:554,2
DA:555,2
DA:556,2
DA:557,2
DA:558,2
DA:561,2
DA:562,2
DA:563,2
DA:564,2
DA:566,2
DA:568,2
DA:569,2
DA:570,2
DA:571,2
DA:574,2
DA:575,2
DA:576,2
DA:577,2
DA:579,2
DA:581,2
DA:582,2
DA:583,2
DA:584,2
DA:585,2
DA:588,2
DA:589,2
DA:590,2
DA:591,2
DA:593,2
DA:595,2
DA:596,2
DA:597,2
DA:598,2
DA:601,2
DA:602,2
DA:603,2
DA:604,2
DA:606,2
DA:608,2
DA:609,2
DA:610,2
DA:611,2
DA:618,2
DA:619,2
DA:620,2
DA:621,2
DA:623,2
DA:625,2
DA:626,2
DA:627,2
DA:630,2
DA:631,2
DA:632,2
DA:633,2
DA:635,2
DA:637,2
DA:638,2
DA:639,2
DA:640,2
DA:641,2
DA:644,2
DA:645,2
DA:646,2
DA:647,2
DA:649,2
DA:651,2
DA:652,2
DA:653,2
DA:654,2
DA:657,2
DA:658,2
DA:659,2
DA:660,2
DA:662,2
DA:664,2
DA:665,2
DA:666,2
DA:669,2
DA:670,2
DA:671,2
DA:672,2
DA:674,2
DA:676,2
DA:677,2
DA:678,2
DA:679,2
DA:682,2
DA:683,2
DA:684,2
DA:685,2
DA:687,2
DA:689,2
DA:690,2
DA:691,2
DA:692,2
DA:699,2
DA:700,2
DA:701,2
DA:702,2
DA:704,2
DA:706,2
DA:707,2
DA:708,2
DA:709,2
DA:710,2
DA:713,2
DA:714,2
DA:715,2
DA:716,2
DA:718,2
DA:719,2
DA:721,2
DA:722,2
DA:723,2
DA:730,2
DA:731,2
DA:732,2
DA:733,2
DA:735,2
DA:737,2
DA:738,2
DA:739,2
DA:740,2
DA:743,2
DA:744,2
DA:745,2
DA:746,2
DA:748,2
DA:750,2
DA:751,2
DA:752,2
DA:753,2
DA:754,2
DA:757,2
DA:758,2
DA:759,2
DA:760,2
DA:762,2
DA:764,2
DA:765,2
DA:766,2
DA:767,2
DA:768,2
DA:771,2
DA:772,2
DA:773,2
DA:774,2
DA:776,2
DA:778,2
DA:779,2
DA:780,2
DA:781,2
DA:788,2
DA:789,2
DA:790,2
DA:792,2
DA:793,2
DA:794,2
DA:796,2
DA:798,2
DA:799,2
DA:800,2
DA:801,2
DA:804,2
DA:805,2
DA:806,2
DA:808,2
DA:809,2
DA:810,2
DA:812,2
DA:814,2
DA:815,2
DA:816,2
DA:817,2
DA:820,2
DA:821,2
DA:822,2
DA:824,2
DA:825,2
DA:826,2
DA:828,2
DA:830,2
DA:831,2
DA:832,2
DA:833,2
DA:836,2
DA:837,2
DA:838,2
DA:840,2
DA:841,2
DA:842,2
DA:844,2
DA:846,2
DA:847,2
DA:848,2
DA:849,2
DA:856,2
DA:857,2
DA:858,2
DA:859,2
DA:862,2
DA:863,2
DA:864,2
DA:865,2
DA:868,2
DA:869,2
DA:870,2
DA:871,2
DA:874,2
DA:875,2
DA:876,2
DA:877,2
DA:880,2
DA:881,2
DA:882,2
DA:883,2
DA:886,2
DA:887,2
DA:888,2
DA:889,2
DA:890,2
DA:897,2
DA:898,2
DA:899,2
DA:900,2
DA:901,2
DA:903,2
DA:905,2
DA:906,2
DA:908,2
DA:909,2
DA:911,2
DA:912,2
DA:913,2
DA:916,2
DA:917,2
DA:918,2
DA:919,2
DA:920,2
DA:922,2
DA:924,2
DA:925,2
DA:926,2
DA:929,2
DA:930,2
DA:931,2
DA:932,2
DA:935,2
DA:936,2
DA:937,2
DA:938,2
DA:939,2
DA:941,2
DA:943,2
DA:945,2
DA:946,2
DA:949,2
DA:950,2
DA:951,2
DA:954,2
DA:955,2
DA:956,2
DA:959,2
DA:960,2
DA:961,2
DA:962,2
DA:964,2
DA:966,2
DA:967,2
DA:968,2
DA:971,2
DA:972,2
DA:975,2
DA:976,2
DA:977,2
DA:978,2
DA:980,2
DA:982,2
DA:983,2
DA:984,2
DA:987,2
DA:988,2
DA:991,2
DA:992,2
DA:993,2
DA:995,2
DA:997,2
DA:999,2
DA:1000,2
DA:1001,2
BRF:0
BRH:0
LF:704
LH:695
end_of_record
SF:/home/noah/src/batuta/src/sklearn_converter.rs
FN:84,_RNvMNtCs2Yt0WxJROpx_6batuta17sklearn_converterNtB2_16SklearnAlgorithm10complexity
FN:118,_RNvMNtCs2Yt0WxJROpx_6batuta17sklearn_converterNtB2_16SklearnAlgorithm14sklearn_module
FN:311,_RNvMs0_NtCs2Yt0WxJROpx_6batuta17sklearn_converterNtB5_16SklearnConverter17conversion_report
FN:296,_RNvMs0_NtCs2Yt0WxJROpx_6batuta17sklearn_converterNtB5_16SklearnConverter17recommend_backend
FN:306,_RNvMs0_NtCs2Yt0WxJROpx_6batuta17sklearn_converterNtB5_16SklearnConverter20available_algorithms
FN:180,_RNvMs0_NtCs2Yt0WxJROpx_6batuta17sklearn_converterNtB5_16SklearnConverter3new
FN:291,_RNvMs0_NtCs2Yt0WxJROpx_6batuta17sklearn_converterNtB5_16SklearnConverter7convert
FN:173,_RNvXs_NtCs2Yt0WxJROpx_6batuta17sklearn_converterNtB4_16SklearnConverterNtNtCs6RpC691fUBl_4core7default7Default7default
FN:746,_RNvNtNtCsjH0PaGjVXp8_6batuta17sklearn_converter5testss_19test_mse_conversion
FN:473,_RNvNtNtCsjH0PaGjVXp8_6batuta17sklearn_converter5testss_20test_algorithm_clone
FN:425,_RNvNtNtCsjH0PaGjVXp8_6batuta17sklearn_converter5testss_22test_conversion_report
FN:660,_RNvNtNtCsjH0PaGjVXp8_6batuta17sklearn_converter5testss_22test_converter_default
FN:384,_RNvNtNtCsjH0PaGjVXp8_6batuta17sklearn_converter5testss_22test_kmeans_conversion
FN:467,_RNvNtNtCsjH0PaGjVXp8_6batuta17sklearn_converter5testss_23test_algorithm_equality
FN:349,_RNvNtNtCsjH0PaGjVXp8_6batuta17sklearn_converter5testss_23test_converter_creation
FN:737,_RNvNtNtCsjH0PaGjVXp8_6batuta17sklearn_converter5testss_24test_accuracy_conversion
FN:557,_RNvNtNtCsjH0PaGjVXp8_6batuta17sklearn_converter5testss_24test_sklearn_module_tree
FN:355,_RNvNtNtCsjH0PaGjVXp8_6batuta17sklearn_converter5testss_25test_algorithm_complexity
FN:755,_RNvNtNtCsjH0PaGjVXp8_6batuta17sklearn_converter5testss_25test_available_algorithms
FN:409,_RNvNtNtCsjH0PaGjVXp8_6batuta17sklearn_converter5testss_25test_sklearn_module_paths
FN:392,_RNvNtNtCsjH0PaGjVXp8_6batuta17sklearn_converter5testss_27test_backend_recommendation
FN:846,_RNvNtNtCsjH0PaGjVXp8_6batuta17sklearn_converter5testss_27test_imports_are_valid_rust
FN:545,_RNvNtNtCsjH0PaGjVXp8_6batuta17sklearn_converter5testss_27test_sklearn_module_cluster
FN:606,_RNvNtNtCsjH0PaGjVXp8_6batuta17sklearn_converter5testss_27test_sklearn_module_metrics
FN:569,_RNvNtNtCsjH0PaGjVXp8_6batuta17sklearn_converter5testss_28test_sklearn_module_ensemble
FN:641,_RNvNtNtCsjH0PaGjVXp8_6batuta17sklearn_converter5testss_29test_aprender_algorithm_clone
FN:708,_RNvNtNtCsjH0PaGjVXp8_6batuta17sklearn_converter5testss_29test_decision_tree_conversion
FN:833,_RNvNtNtCsjH0PaGjVXp8_6batuta17sklearn_converter5testss_29test_usage_patterns_not_empty
FN:480,_RNvNtNtCsjH0PaGjVXp8_6batuta17sklearn_converter5testss_30test_complexity_low_algorithms
FN:514,_RNvNtNtCsjH0PaGjVXp8_6batuta17sklearn_converter5testss_31test_complexity_high_algorithms
FN:687,_RNvNtNtCsjH0PaGjVXp8_6batuta17sklearn_converter5testss_31test_convert_unmapped_algorithm
FN:718,_RNvNtNtCsjH0PaGjVXp8_6batuta17sklearn_converter5testss_31test_standard_scaler_conversion
FN:801,_RNvNtNtCsjH0PaGjVXp8_6batuta17sklearn_converter5testss_32test_conversion_report_structure
FN:531,_RNvNtNtCsjH0PaGjVXp8_6batuta17sklearn_converter5testss_32test_sklearn_module_linear_model
FN:728,_RNvNtNtCsjH0PaGjVXp8_6batuta17sklearn_converter5testss_32test_train_test_split_conversion
FN:438,_RNvNtNtCsjH0PaGjVXp8_6batuta17sklearn_converter5testss_33test_all_sklearn_algorithms_exist
FN:494,_RNvNtNtCsjH0PaGjVXp8_6batuta17sklearn_converter5testss_33test_complexity_medium_algorithms
FN:371,_RNvNtNtCsjH0PaGjVXp8_6batuta17sklearn_converter5testss_33test_linear_regression_conversion
FN:792,_RNvNtNtCsjH0PaGjVXp8_6batuta17sklearn_converter5testss_33test_recommend_backend_clustering
FN:581,_RNvNtNtCsjH0PaGjVXp8_6batuta17sklearn_converter5testss_33test_sklearn_module_preprocessing
FN:815,_RNvNtNtCsjH0PaGjVXp8_6batuta17sklearn_converter5testss_34test_conversion_report_has_modules
FN:666,_RNvNtNtCsjH0PaGjVXp8_6batuta17sklearn_converter5testss_34test_convert_all_mapped_algorithms
FN:698,_RNvNtNtCsjH0PaGjVXp8_6batuta17sklearn_converter5testss_35test_logistic_regression_conversion
FN:594,_RNvNtNtCsjH0PaGjVXp8_6batuta17sklearn_converter5testss_35test_sklearn_module_model_selection
FN:626,_RNvNtNtCsjH0PaGjVXp8_6batuta17sklearn_converter5testss_36test_aprender_algorithm_construction
FN:765,_RNvNtNtCsjH0PaGjVXp8_6batuta17sklearn_converter5testss_37test_recommend_backend_low_complexity
FN:877,_RNvNtNtCsjH0PaGjVXp8_6batuta17sklearn_converter5testss_38test_clustering_has_unsupervised_trait
FN:783,_RNvNtNtCsjH0PaGjVXp8_6batuta17sklearn_converter5testss_38test_recommend_backend_high_complexity
FN:860,_RNvNtNtCsjH0PaGjVXp8_6batuta17sklearn_converter5testss_39test_linear_models_have_estimator_trait
FN:887,_RNvNtNtCsjH0PaGjVXp8_6batuta17sklearn_converter5testss_40test_preprocessing_has_transformer_trait
FN:774,_RNvNtNtCsjH0PaGjVXp8_6batuta17sklearn_converter5testss_40test_recommend_backend_medium_complexity
FN:824,_RNvNtNtCsjH0PaGjVXp8_6batuta17sklearn_converter5testss_41test_conversion_report_has_all_algorithms
FN:84,_RNvMNtCsjH0PaGjVXp8_6batuta17sklearn_converterNtB2_16SklearnAlgorithm10complexity
FN:118,_RNvMNtCsjH0PaGjVXp8_6batuta17sklearn_converterNtB2_16SklearnAlgorithm14sklearn_module
FN:311,_RNvMs0_NtCsjH0PaGjVXp8_6batuta17sklearn_converterNtB5_16SklearnConverter17conversion_report
FN:296,_RNvMs0_NtCsjH0PaGjVXp8_6batuta17sklearn_converterNtB5_16SklearnConverter17recommend_backend
FN:306,_RNvMs0_NtCsjH0PaGjVXp8_6batuta17sklearn_converterNtB5_16SklearnConverter20available_algorithms
FN:180,_RNvMs0_NtCsjH0PaGjVXp8_6batuta17sklearn_converterNtB5_16SklearnConverter3new
FN:291,_RNvMs0_NtCsjH0PaGjVXp8_6batuta17sklearn_converterNtB5_16SklearnConverter7convert
FN:173,_RNvXs_NtCsjH0PaGjVXp8_6batuta17sklearn_converterNtB4_16SklearnConverterNtNtCs6RpC691fUBl_4core7default7Default7default
FN:751,_RNCNvNtNtCsjH0PaGjVXp8_6batuta17sklearn_converter5testss_19test_mse_conversion0B7_
FN:388,_RNCNvNtNtCsjH0PaGjVXp8_6batuta17sklearn_converter5testss_22test_kmeans_conversion0B7_
FN:742,_RNCNvNtNtCsjH0PaGjVXp8_6batuta17sklearn_converter5testss_24test_accuracy_conversion0B7_
FN:713,_RNCNvNtNtCsjH0PaGjVXp8_6batuta17sklearn_converter5testss_29test_decision_tree_conversion0B7_
FN:723,_RNCNvNtNtCsjH0PaGjVXp8_6batuta17sklearn_converter5testss_31test_standard_scaler_conversion0B7_
FN:733,_RNCNvNtNtCsjH0PaGjVXp8_6batuta17sklearn_converter5testss_32test_train_test_split_conversion0B7_
FN:380,_RNCNvNtNtCsjH0PaGjVXp8_6batuta17sklearn_converter5testss_33test_linear_regression_conversion0B7_
FN:703,_RNCNvNtNtCsjH0PaGjVXp8_6batuta17sklearn_converter5testss_35test_logistic_regression_conversion0B7_
FN:881,_RNCNvNtNtCsjH0PaGjVXp8_6batuta17sklearn_converter5testss_38test_clustering_has_unsupervised_trait0B7_
FN:870,_RNCNvNtNtCsjH0PaGjVXp8_6batuta17sklearn_converter5testss_39test_linear_models_have_estimator_trait0B7_
FN:891,_RNCNvNtNtCsjH0PaGjVXp8_6batuta17sklearn_converter5testss_40test_preprocessing_has_transformer_trait0B7_
FN:751,_RNCNvNtNtCshEp7d2sUZm6_6batuta17sklearn_converter5testss_19test_mse_conversion0B7_
FN:388,_RNCNvNtNtCshEp7d2sUZm6_6batuta17sklearn_converter5testss_22test_kmeans_conversion0B7_
FN:742,_RNCNvNtNtCshEp7d2sUZm6_6batuta17sklearn_converter5testss_24test_accuracy_conversion0B7_
FN:713,_RNCNvNtNtCshEp7d2sUZm6_6batuta17sklearn_converter5testss_29test_decision_tree_conversion0B7_
FN:723,_RNCNvNtNtCshEp7d2sUZm6_6batuta17sklearn_converter5testss_31test_standard_scaler_conversion0B7_
FN:733,_RNCNvNtNtCshEp7d2sUZm6_6batuta17sklearn_converter5testss_32test_train_test_split_conversion0B7_
FN:380,_RNCNvNtNtCshEp7d2sUZm6_6batuta17sklearn_converter5testss_33test_linear_regression_conversion0B7_
FN:703,_RNCNvNtNtCshEp7d2sUZm6_6batuta17sklearn_converter5testss_35test_logistic_regression_conversion0B7_
FN:881,_RNCNvNtNtCshEp7d2sUZm6_6batuta17sklearn_converter5testss_38test_clustering_has_unsupervised_trait0B7_
FN:870,_RNCNvNtNtCshEp7d2sUZm6_6batuta17sklearn_converter5testss_39test_linear_models_have_estimator_trait0B7_
FN:891,_RNCNvNtNtCshEp7d2sUZm6_6batuta17sklearn_converter5testss_40test_preprocessing_has_transformer_trait0B7_
FN:84,_RNvMNtCshEp7d2sUZm6_6batuta17sklearn_converterNtB2_16SklearnAlgorithm10complexity
FN:118,_RNvMNtCshEp7d2sUZm6_6batuta17sklearn_converterNtB2_16SklearnAlgorithm14sklearn_module
FN:311,_RNvMs0_NtCshEp7d2sUZm6_6batuta17sklearn_converterNtB5_16SklearnConverter17conversion_report
FN:296,_RNvMs0_NtCshEp7d2sUZm6_6batuta17sklearn_converterNtB5_16SklearnConverter17recommend_backend
FN:306,_RNvMs0_NtCshEp7d2sUZm6_6batuta17sklearn_converterNtB5_16SklearnConverter20available_algorithms
FN:180,_RNvMs0_NtCshEp7d2sUZm6_6batuta17sklearn_converterNtB5_16SklearnConverter3new
FN:291,_RNvMs0_NtCshEp7d2sUZm6_6batuta17sklearn_converterNtB5_16SklearnConverter7convert
FN:173,_RNvXs_NtCshEp7d2sUZm6_6batuta17sklearn_converterNtB4_16SklearnConverterNtNtCs6RpC691fUBl_4core7default7Default7default
FN:746,_RNvNtNtCshEp7d2sUZm6_6batuta17sklearn_converter5testss_19test_mse_conversion
FN:473,_RNvNtNtCshEp7d2sUZm6_6batuta17sklearn_converter5testss_20test_algorithm_clone
FN:425,_RNvNtNtCshEp7d2sUZm6_6batuta17sklearn_converter5testss_22test_conversion_report
FN:660,_RNvNtNtCshEp7d2sUZm6_6batuta17sklearn_converter5testss_22test_converter_default
FN:384,_RNvNtNtCshEp7d2sUZm6_6batuta17sklearn_converter5testss_22test_kmeans_conversion
FN:467,_RNvNtNtCshEp7d2sUZm6_6batuta17sklearn_converter5testss_23test_algorithm_equality
FN:349,_RNvNtNtCshEp7d2sUZm6_6batuta17sklearn_converter5testss_23test_converter_creation
FN:737,_RNvNtNtCshEp7d2sUZm6_6batuta17sklearn_converter5testss_24test_accuracy_conversion
FN:557,_RNvNtNtCshEp7d2sUZm6_6batuta17sklearn_converter5testss_24test_sklearn_module_tree
FN:355,_RNvNtNtCshEp7d2sUZm6_6batuta17sklearn_converter5testss_25test_algorithm_complexity
FN:755,_RNvNtNtCshEp7d2sUZm6_6batuta17sklearn_converter5testss_25test_available_algorithms
FN:409,_RNvNtNtCshEp7d2sUZm6_6batuta17sklearn_converter5testss_25test_sklearn_module_paths
FN:392,_RNvNtNtCshEp7d2sUZm6_6batuta17sklearn_converter5testss_27test_backend_recommendation
FN:846,_RNvNtNtCshEp7d2sUZm6_6batuta17sklearn_converter5testss_27test_imports_are_valid_rust
FN:545,_RNvNtNtCshEp7d2sUZm6_6batuta17sklearn_converter5testss_27test_sklearn_module_cluster
FN:606,_RNvNtNtCshEp7d2sUZm6_6batuta17sklearn_converter5testss_27test_sklearn_module_metrics
FN:569,_RNvNtNtCshEp7d2sUZm6_6batuta17sklearn_converter5testss_28test_sklearn_module_ensemble
FN:641,_RNvNtNtCshEp7d2sUZm6_6batuta17sklearn_converter5testss_29test_aprender_algorithm_clone
FN:708,_RNvNtNtCshEp7d2sUZm6_6batuta17sklearn_converter5testss_29test_decision_tree_conversion
FN:833,_RNvNtNtCshEp7d2sUZm6_6batuta17sklearn_converter5testss_29test_usage_patterns_not_empty
FN:480,_RNvNtNtCshEp7d2sUZm6_6batuta17sklearn_converter5testss_30test_complexity_low_algorithms
FN:514,_RNvNtNtCshEp7d2sUZm6_6batuta17sklearn_converter5testss_31test_complexity_high_algorithms
FN:687,_RNvNtNtCshEp7d2sUZm6_6batuta17sklearn_converter5testss_31test_convert_unmapped_algorithm
FN:718,_RNvNtNtCshEp7d2sUZm6_6batuta17sklearn_converter5testss_31test_standard_scaler_conversion
FN:801,_RNvNtNtCshEp7d2sUZm6_6batuta17sklearn_converter5testss_32test_conversion_report_structure
FN:531,_RNvNtNtCshEp7d2sUZm6_6batuta17sklearn_converter5testss_32test_sklearn_module_linear_model
FN:728,_RNvNtNtCshEp7d2sUZm6_6batuta17sklearn_converter5testss_32test_train_test_split_conversion
FN:438,_RNvNtNtCshEp7d2sUZm6_6batuta17sklearn_converter5testss_33test_all_sklearn_algorithms_exist
FN:494,_RNvNtNtCshEp7d2sUZm6_6batuta17sklearn_converter5testss_33test_complexity_medium_algorithms
FN:371,_RNvNtNtCshEp7d2sUZm6_6batuta17sklearn_converter5testss_33test_linear_regression_conversion
FN:792,_RNvNtNtCshEp7d2sUZm6_6batuta17sklearn_converter5testss_33test_recommend_backend_clustering
FN:581,_RNvNtNtCshEp7d2sUZm6_6batuta17sklearn_converter5testss_33test_sklearn_module_preprocessing
FN:815,_RNvNtNtCshEp7d2sUZm6_6batuta17sklearn_converter5testss_34test_conversion_report_has_modules
FN:666,_RNvNtNtCshEp7d2sUZm6_6batuta17sklearn_converter5testss_34test_convert_all_mapped_algorithms
FN:698,_RNvNtNtCshEp7d2sUZm6_6batuta17sklearn_converter5testss_35test_logistic_regression_conversion
FN:594,_RNvNtNtCshEp7d2sUZm6_6batuta17sklearn_converter5testss_35test_sklearn_module_model_selection
FN:626,_RNvNtNtCshEp7d2sUZm6_6batuta17sklearn_converter5testss_36test_aprender_algorithm_construction
FN:765,_RNvNtNtCshEp7d2sUZm6_6batuta17sklearn_converter5testss_37test_recommend_backend_low_complexity
FN:877,_RNvNtNtCshEp7d2sUZm6_6batuta17sklearn_converter5testss_38test_clustering_has_unsupervised_trait
FN:783,_RNvNtNtCshEp7d2sUZm6_6batuta17sklearn_converter5testss_38test_recommend_backend_high_complexity
FN:860,_RNvNtNtCshEp7d2sUZm6_6batuta17sklearn_converter5testss_39test_linear_models_have_estimator_trait
FN:887,_RNvNtNtCshEp7d2sUZm6_6batuta17sklearn_converter5testss_40test_preprocessing_has_transformer_trait
FN:774,_RNvNtNtCshEp7d2sUZm6_6batuta17sklearn_converter5testss_40test_recommend_backend_medium_complexity
FN:824,_RNvNtNtCshEp7d2sUZm6_6batuta17sklearn_converter5testss_41test_conversion_report_has_all_algorithms
FN:84,_RNvMNtCsc3xvWSUKV5Z_6batuta17sklearn_converterNtB2_16SklearnAlgorithm10complexity
FN:118,_RNvMNtCsc3xvWSUKV5Z_6batuta17sklearn_converterNtB2_16SklearnAlgorithm14sklearn_module
FN:311,_RNvMs0_NtCsc3xvWSUKV5Z_6batuta17sklearn_converterNtB5_16SklearnConverter17conversion_report
FN:296,_RNvMs0_NtCsc3xvWSUKV5Z_6batuta17sklearn_converterNtB5_16SklearnConverter17recommend_backend
FN:306,_RNvMs0_NtCsc3xvWSUKV5Z_6batuta17sklearn_converterNtB5_16SklearnConverter20available_algorithms
FN:180,_RNvMs0_NtCsc3xvWSUKV5Z_6batuta17sklearn_converterNtB5_16SklearnConverter3new
FN:291,_RNvMs0_NtCsc3xvWSUKV5Z_6batuta17sklearn_converterNtB5_16SklearnConverter7convert
FN:173,_RNvXs_NtCsc3xvWSUKV5Z_6batuta17sklearn_converterNtB4_16SklearnConverterNtNtCs6RpC691fUBl_4core7default7Default7default
FNDA:0,_RNvMNtCs2Yt0WxJROpx_6batuta17sklearn_converterNtB2_16SklearnAlgorithm10complexity
FNDA:0,_RNvMNtCs2Yt0WxJROpx_6batuta17sklearn_converterNtB2_16SklearnAlgorithm14sklearn_module
FNDA:0,_RNvMs0_NtCs2Yt0WxJROpx_6batuta17sklearn_converterNtB5_16SklearnConverter17conversion_report
FNDA:0,_RNvMs0_NtCs2Yt0WxJROpx_6batuta17sklearn_converterNtB5_16SklearnConverter17recommend_backend
FNDA:0,_RNvMs0_NtCs2Yt0WxJROpx_6batuta17sklearn_converterNtB5_16SklearnConverter20available_algorithms
FNDA:0,_RNvMs0_NtCs2Yt0WxJROpx_6batuta17sklearn_converterNtB5_16SklearnConverter3new
FNDA:0,_RNvMs0_NtCs2Yt0WxJROpx_6batuta17sklearn_converterNtB5_16SklearnConverter7convert
FNDA:0,_RNvXs_NtCs2Yt0WxJROpx_6batuta17sklearn_converterNtB4_16SklearnConverterNtNtCs6RpC691fUBl_4core7default7Default7default
FNDA:1,_RNvNtNtCsjH0PaGjVXp8_6batuta17sklearn_converter5testss_19test_mse_conversion
FNDA:1,_RNvNtNtCsjH0PaGjVXp8_6batuta17sklearn_converter5testss_20test_algorithm_clone
FNDA:1,_RNvNtNtCsjH0PaGjVXp8_6batuta17sklearn_converter5testss_22test_conversion_report
FNDA:1,_RNvNtNtCsjH0PaGjVXp8_6batuta17sklearn_converter5testss_22test_converter_default
FNDA:1,_RNvNtNtCsjH0PaGjVXp8_6batuta17sklearn_converter5testss_22test_kmeans_conversion
FNDA:1,_RNvNtNtCsjH0PaGjVXp8_6batuta17sklearn_converter5testss_23test_algorithm_equality
FNDA:1,_RNvNtNtCsjH0PaGjVXp8_6batuta17sklearn_converter5testss_23test_converter_creation
FNDA:1,_RNvNtNtCsjH0PaGjVXp8_6batuta17sklearn_converter5testss_24test_accuracy_conversion
FNDA:1,_RNvNtNtCsjH0PaGjVXp8_6batuta17sklearn_converter5testss_24test_sklearn_module_tree
FNDA:1,_RNvNtNtCsjH0PaGjVXp8_6batuta17sklearn_converter5testss_25test_algorithm_complexity
FNDA:1,_RNvNtNtCsjH0PaGjVXp8_6batuta17sklearn_converter5testss_25test_available_algorithms
FNDA:1,_RNvNtNtCsjH0PaGjVXp8_6batuta17sklearn_converter5testss_25test_sklearn_module_paths
FNDA:1,_RNvNtNtCsjH0PaGjVXp8_6batuta17sklearn_converter5testss_27test_backend_recommendation
FNDA:1,_RNvNtNtCsjH0PaGjVXp8_6batuta17sklearn_converter5testss_27test_imports_are_valid_rust
FNDA:1,_RNvNtNtCsjH0PaGjVXp8_6batuta17sklearn_converter5testss_27test_sklearn_module_cluster
FNDA:1,_RNvNtNtCsjH0PaGjVXp8_6batuta17sklearn_converter5testss_27test_sklearn_module_metrics
FNDA:1,_RNvNtNtCsjH0PaGjVXp8_6batuta17sklearn_converter5testss_28test_sklearn_module_ensemble
FNDA:1,_RNvNtNtCsjH0PaGjVXp8_6batuta17sklearn_converter5testss_29test_aprender_algorithm_clone
FNDA:1,_RNvNtNtCsjH0PaGjVXp8_6batuta17sklearn_converter5testss_29test_decision_tree_conversion
FNDA:1,_RNvNtNtCsjH0PaGjVXp8_6batuta17sklearn_converter5testss_29test_usage_patterns_not_empty
FNDA:1,_RNvNtNtCsjH0PaGjVXp8_6batuta17sklearn_converter5testss_30test_complexity_low_algorithms
FNDA:1,_RNvNtNtCsjH0PaGjVXp8_6batuta17sklearn_converter5testss_31test_complexity_high_algorithms
FNDA:1,_RNvNtNtCsjH0PaGjVXp8_6batuta17sklearn_converter5testss_31test_convert_unmapped_algorithm
FNDA:1,_RNvNtNtCsjH0PaGjVXp8_6batuta17sklearn_converter5testss_31test_standard_scaler_conversion
FNDA:1,_RNvNtNtCsjH0PaGjVXp8_6batuta17sklearn_converter5testss_32test_conversion_report_structure
FNDA:1,_RNvNtNtCsjH0PaGjVXp8_6batuta17sklearn_converter5testss_32test_sklearn_module_linear_model
FNDA:1,_RNvNtNtCsjH0PaGjVXp8_6batuta17sklearn_converter5testss_32test_train_test_split_conversion
FNDA:1,_RNvNtNtCsjH0PaGjVXp8_6batuta17sklearn_converter5testss_33test_all_sklearn_algorithms_exist
FNDA:1,_RNvNtNtCsjH0PaGjVXp8_6batuta17sklearn_converter5testss_33test_complexity_medium_algorithms
FNDA:1,_RNvNtNtCsjH0PaGjVXp8_6batuta17sklearn_converter5testss_33test_linear_regression_conversion
FNDA:1,_RNvNtNtCsjH0PaGjVXp8_6batuta17sklearn_converter5testss_33test_recommend_backend_clustering
FNDA:1,_RNvNtNtCsjH0PaGjVXp8_6batuta17sklearn_converter5testss_33test_sklearn_module_preprocessing
FNDA:1,_RNvNtNtCsjH0PaGjVXp8_6batuta17sklearn_converter5testss_34test_conversion_report_has_modules
FNDA:1,_RNvNtNtCsjH0PaGjVXp8_6batuta17sklearn_converter5testss_34test_convert_all_mapped_algorithms
FNDA:1,_RNvNtNtCsjH0PaGjVXp8_6batuta17sklearn_converter5testss_35test_logistic_regression_conversion
FNDA:1,_RNvNtNtCsjH0PaGjVXp8_6batuta17sklearn_converter5testss_35test_sklearn_module_model_selection
FNDA:1,_RNvNtNtCsjH0PaGjVXp8_6batuta17sklearn_converter5testss_36test_aprender_algorithm_construction
FNDA:1,_RNvNtNtCsjH0PaGjVXp8_6batuta17sklearn_converter5testss_37test_recommend_backend_low_complexity
FNDA:1,_RNvNtNtCsjH0PaGjVXp8_6batuta17sklearn_converter5testss_38test_clustering_has_unsupervised_trait
FNDA:1,_RNvNtNtCsjH0PaGjVXp8_6batuta17sklearn_converter5testss_38test_recommend_backend_high_complexity
FNDA:1,_RNvNtNtCsjH0PaGjVXp8_6batuta17sklearn_converter5testss_39test_linear_models_have_estimator_trait
FNDA:1,_RNvNtNtCsjH0PaGjVXp8_6batuta17sklearn_converter5testss_40test_preprocessing_has_transformer_trait
FNDA:1,_RNvNtNtCsjH0PaGjVXp8_6batuta17sklearn_converter5testss_40test_recommend_backend_medium_complexity
FNDA:1,_RNvNtNtCsjH0PaGjVXp8_6batuta17sklearn_converter5testss_41test_conversion_report_has_all_algorithms
FNDA:31,_RNvMNtCsjH0PaGjVXp8_6batuta17sklearn_converterNtB2_16SklearnAlgorithm10complexity
FNDA:56,_RNvMNtCsjH0PaGjVXp8_6batuta17sklearn_converterNtB2_16SklearnAlgorithm14sklearn_module
FNDA:4,_RNvMs0_NtCsjH0PaGjVXp8_6batuta17sklearn_converterNtB5_16SklearnConverter17conversion_report
FNDA:7,_RNvMs0_NtCsjH0PaGjVXp8_6batuta17sklearn_converterNtB5_16SklearnConverter17recommend_backend
FNDA:5,_RNvMs0_NtCsjH0PaGjVXp8_6batuta17sklearn_converterNtB5_16SklearnConverter20available_algorithms
FNDA:32,_RNvMs0_NtCsjH0PaGjVXp8_6batuta17sklearn_converterNtB5_16SklearnConverter3new
FNDA:37,_RNvMs0_NtCsjH0PaGjVXp8_6batuta17sklearn_converterNtB5_16SklearnConverter7convert
FNDA:1,_RNvXs_NtCsjH0PaGjVXp8_6batuta17sklearn_converterNtB4_16SklearnConverterNtNtCs6RpC691fUBl_4core7default7Default7default
FNDA:1,_RNCNvNtNtCsjH0PaGjVXp8_6batuta17sklearn_converter5testss_19test_mse_conversion0B7_
FNDA:1,_RNCNvNtNtCsjH0PaGjVXp8_6batuta17sklearn_converter5testss_22test_kmeans_conversion0B7_
FNDA:1,_RNCNvNtNtCsjH0PaGjVXp8_6batuta17sklearn_converter5testss_24test_accuracy_conversion0B7_
FNDA:1,_RNCNvNtNtCsjH0PaGjVXp8_6batuta17sklearn_converter5testss_29test_decision_tree_conversion0B7_
FNDA:1,_RNCNvNtNtCsjH0PaGjVXp8_6batuta17sklearn_converter5testss_31test_standard_scaler_conversion0B7_
FNDA:1,_RNCNvNtNtCsjH0PaGjVXp8_6batuta17sklearn_converter5testss_32test_train_test_split_conversion0B7_
FNDA:1,_RNCNvNtNtCsjH0PaGjVXp8_6batuta17sklearn_converter5testss_33test_linear_regression_conversion0B7_
FNDA:1,_RNCNvNtNtCsjH0PaGjVXp8_6batuta17sklearn_converter5testss_35test_logistic_regression_conversion0B7_
FNDA:2,_RNCNvNtNtCsjH0PaGjVXp8_6batuta17sklearn_converter5testss_38test_clustering_has_unsupervised_trait0B7_
FNDA:4,_RNCNvNtNtCsjH0PaGjVXp8_6batuta17sklearn_converter5testss_39test_linear_models_have_estimator_trait0B7_
FNDA:2,_RNCNvNtNtCsjH0PaGjVXp8_6batuta17sklearn_converter5testss_40test_preprocessing_has_transformer_trait0B7_
FNDA:1,_RNCNvNtNtCshEp7d2sUZm6_6batuta17sklearn_converter5testss_19test_mse_conversion0B7_
FNDA:1,_RNCNvNtNtCshEp7d2sUZm6_6batuta17sklearn_converter5testss_22test_kmeans_conversion0B7_
FNDA:1,_RNCNvNtNtCshEp7d2sUZm6_6batuta17sklearn_converter5testss_24test_accuracy_conversion0B7_
FNDA:1,_RNCNvNtNtCshEp7d2sUZm6_6batuta17sklearn_converter5testss_29test_decision_tree_conversion0B7_
FNDA:1,_RNCNvNtNtCshEp7d2sUZm6_6batuta17sklearn_converter5testss_31test_standard_scaler_conversion0B7_
FNDA:1,_RNCNvNtNtCshEp7d2sUZm6_6batuta17sklearn_converter5testss_32test_train_test_split_conversion0B7_
FNDA:1,_RNCNvNtNtCshEp7d2sUZm6_6batuta17sklearn_converter5testss_33test_linear_regression_conversion0B7_
FNDA:1,_RNCNvNtNtCshEp7d2sUZm6_6batuta17sklearn_converter5testss_35test_logistic_regression_conversion0B7_
FNDA:2,_RNCNvNtNtCshEp7d2sUZm6_6batuta17sklearn_converter5testss_38test_clustering_has_unsupervised_trait0B7_
FNDA:4,_RNCNvNtNtCshEp7d2sUZm6_6batuta17sklearn_converter5testss_39test_linear_models_have_estimator_trait0B7_
FNDA:2,_RNCNvNtNtCshEp7d2sUZm6_6batuta17sklearn_converter5testss_40test_preprocessing_has_transformer_trait0B7_
FNDA:31,_RNvMNtCshEp7d2sUZm6_6batuta17sklearn_converterNtB2_16SklearnAlgorithm10complexity
FNDA:56,_RNvMNtCshEp7d2sUZm6_6batuta17sklearn_converterNtB2_16SklearnAlgorithm14sklearn_module
FNDA:4,_RNvMs0_NtCshEp7d2sUZm6_6batuta17sklearn_converterNtB5_16SklearnConverter17conversion_report
FNDA:7,_RNvMs0_NtCshEp7d2sUZm6_6batuta17sklearn_converterNtB5_16SklearnConverter17recommend_backend
FNDA:5,_RNvMs0_NtCshEp7d2sUZm6_6batuta17sklearn_converterNtB5_16SklearnConverter20available_algorithms
FNDA:32,_RNvMs0_NtCshEp7d2sUZm6_6batuta17sklearn_converterNtB5_16SklearnConverter3new
FNDA:37,_RNvMs0_NtCshEp7d2sUZm6_6batuta17sklearn_converterNtB5_16SklearnConverter7convert
FNDA:1,_RNvXs_NtCshEp7d2sUZm6_6batuta17sklearn_converterNtB4_16SklearnConverterNtNtCs6RpC691fUBl_4core7default7Default7default
FNDA:1,_RNvNtNtCshEp7d2sUZm6_6batuta17sklearn_converter5testss_19test_mse_conversion
FNDA:1,_RNvNtNtCshEp7d2sUZm6_6batuta17sklearn_converter5testss_20test_algorithm_clone
FNDA:1,_RNvNtNtCshEp7d2sUZm6_6batuta17sklearn_converter5testss_22test_conversion_report
FNDA:1,_RNvNtNtCshEp7d2sUZm6_6batuta17sklearn_converter5testss_22test_converter_default
FNDA:1,_RNvNtNtCshEp7d2sUZm6_6batuta17sklearn_converter5testss_22test_kmeans_conversion
FNDA:1,_RNvNtNtCshEp7d2sUZm6_6batuta17sklearn_converter5testss_23test_algorithm_equality
FNDA:1,_RNvNtNtCshEp7d2sUZm6_6batuta17sklearn_converter5testss_23test_converter_creation
FNDA:1,_RNvNtNtCshEp7d2sUZm6_6batuta17sklearn_converter5testss_24test_accuracy_conversion
FNDA:1,_RNvNtNtCshEp7d2sUZm6_6batuta17sklearn_converter5testss_24test_sklearn_module_tree
FNDA:1,_RNvNtNtCshEp7d2sUZm6_6batuta17sklearn_converter5testss_25test_algorithm_complexity
FNDA:1,_RNvNtNtCshEp7d2sUZm6_6batuta17sklearn_converter5testss_25test_available_algorithms
FNDA:1,_RNvNtNtCshEp7d2sUZm6_6batuta17sklearn_converter5testss_25test_sklearn_module_paths
FNDA:1,_RNvNtNtCshEp7d2sUZm6_6batuta17sklearn_converter5testss_27test_backend_recommendation
FNDA:1,_RNvNtNtCshEp7d2sUZm6_6batuta17sklearn_converter5testss_27test_imports_are_valid_rust
FNDA:1,_RNvNtNtCshEp7d2sUZm6_6batuta17sklearn_converter5testss_27test_sklearn_module_cluster
FNDA:1,_RNvNtNtCshEp7d2sUZm6_6batuta17sklearn_converter5testss_27test_sklearn_module_metrics
FNDA:1,_RNvNtNtCshEp7d2sUZm6_6batuta17sklearn_converter5testss_28test_sklearn_module_ensemble
FNDA:1,_RNvNtNtCshEp7d2sUZm6_6batuta17sklearn_converter5testss_29test_aprender_algorithm_clone
FNDA:1,_RNvNtNtCshEp7d2sUZm6_6batuta17sklearn_converter5testss_29test_decision_tree_conversion
FNDA:1,_RNvNtNtCshEp7d2sUZm6_6batuta17sklearn_converter5testss_29test_usage_patterns_not_empty
FNDA:1,_RNvNtNtCshEp7d2sUZm6_6batuta17sklearn_converter5testss_30test_complexity_low_algorithms
FNDA:1,_RNvNtNtCshEp7d2sUZm6_6batuta17sklearn_converter5testss_31test_complexity_high_algorithms
FNDA:1,_RNvNtNtCshEp7d2sUZm6_6batuta17sklearn_converter5testss_31test_convert_unmapped_algorithm
FNDA:1,_RNvNtNtCshEp7d2sUZm6_6batuta17sklearn_converter5testss_31test_standard_scaler_conversion
FNDA:1,_RNvNtNtCshEp7d2sUZm6_6batuta17sklearn_converter5testss_32test_conversion_report_structure
FNDA:1,_RNvNtNtCshEp7d2sUZm6_6batuta17sklearn_converter5testss_32test_sklearn_module_linear_model
FNDA:1,_RNvNtNtCshEp7d2sUZm6_6batuta17sklearn_converter5testss_32test_train_test_split_conversion
FNDA:1,_RNvNtNtCshEp7d2sUZm6_6batuta17sklearn_converter5testss_33test_all_sklearn_algorithms_exist
FNDA:1,_RNvNtNtCshEp7d2sUZm6_6batuta17sklearn_converter5testss_33test_complexity_medium_algorithms
FNDA:1,_RNvNtNtCshEp7d2sUZm6_6batuta17sklearn_converter5testss_33test_linear_regression_conversion
FNDA:1,_RNvNtNtCshEp7d2sUZm6_6batuta17sklearn_converter5testss_33test_recommend_backend_clustering
FNDA:1,_RNvNtNtCshEp7d2sUZm6_6batuta17sklearn_converter5testss_33test_sklearn_module_preprocessing
FNDA:1,_RNvNtNtCshEp7d2sUZm6_6batuta17sklearn_converter5testss_34test_conversion_report_has_modules
FNDA:1,_RNvNtNtCshEp7d2sUZm6_6batuta17sklearn_converter5testss_34test_convert_all_mapped_algorithms
FNDA:1,_RNvNtNtCshEp7d2sUZm6_6batuta17sklearn_converter5testss_35test_logistic_regression_conversion
FNDA:1,_RNvNtNtCshEp7d2sUZm6_6batuta17sklearn_converter5testss_35test_sklearn_module_model_selection
FNDA:1,_RNvNtNtCshEp7d2sUZm6_6batuta17sklearn_converter5testss_36test_aprender_algorithm_construction
FNDA:1,_RNvNtNtCshEp7d2sUZm6_6batuta17sklearn_converter5testss_37test_recommend_backend_low_complexity
FNDA:1,_RNvNtNtCshEp7d2sUZm6_6batuta17sklearn_converter5testss_38test_clustering_has_unsupervised_trait
FNDA:1,_RNvNtNtCshEp7d2sUZm6_6batuta17sklearn_converter5testss_38test_recommend_backend_high_complexity
FNDA:1,_RNvNtNtCshEp7d2sUZm6_6batuta17sklearn_converter5testss_39test_linear_models_have_estimator_trait
FNDA:1,_RNvNtNtCshEp7d2sUZm6_6batuta17sklearn_converter5testss_40test_preprocessing_has_transformer_trait
FNDA:1,_RNvNtNtCshEp7d2sUZm6_6batuta17sklearn_converter5testss_40test_recommend_backend_medium_complexity
FNDA:1,_RNvNtNtCshEp7d2sUZm6_6batuta17sklearn_converter5testss_41test_conversion_report_has_all_algorithms
FNDA:0,_RNvMNtCsc3xvWSUKV5Z_6batuta17sklearn_converterNtB2_16SklearnAlgorithm10complexity
FNDA:0,_RNvMNtCsc3xvWSUKV5Z_6batuta17sklearn_converterNtB2_16SklearnAlgorithm14sklearn_module
FNDA:0,_RNvMs0_NtCsc3xvWSUKV5Z_6batuta17sklearn_converterNtB5_16SklearnConverter17conversion_report
FNDA:0,_RNvMs0_NtCsc3xvWSUKV5Z_6batuta17sklearn_converterNtB5_16SklearnConverter17recommend_backend
FNDA:0,_RNvMs0_NtCsc3xvWSUKV5Z_6batuta17sklearn_converterNtB5_16SklearnConverter20available_algorithms
FNDA:0,_RNvMs0_NtCsc3xvWSUKV5Z_6batuta17sklearn_converterNtB5_16SklearnConverter3new
FNDA:0,_RNvMs0_NtCsc3xvWSUKV5Z_6batuta17sklearn_converterNtB5_16SklearnConverter7convert
FNDA:0,_RNvXs_NtCsc3xvWSUKV5Z_6batuta17sklearn_converterNtB4_16SklearnConverterNtNtCs6RpC691fUBl_4core7default7Default7default
FNF:63
FNH:63
DA:84,62
DA:87,62
DA:92,14
DA:104,26
DA:113,22
DA:115,62
DA:118,112
DA:119,112
DA:123,26
DA:125,14
DA:128,12
DA:131,4
DA:135,16
DA:138,12
DA:146,28
DA:148,112
DA:173,2
DA:174,2
DA:175,2
DA:180,64
DA:181,64
DA:184,64
DA:185,64
DA:186,64
DA:187,64
DA:188,64
DA:189,64
DA:190,64
DA:191,64
DA:192,64
DA:193,64
DA:194,64
DA:197,64
DA:198,64
DA:199,64
DA:200,64
DA:201,64
DA:202,64
DA:203,64
DA:204,64
DA:205,64
DA:206,64
DA:207,64
DA:211,64
DA:212,64
DA:213,64
DA:214,64
DA:215,64
DA:216,64
DA:217,64
DA:218,64
DA:219,64
DA:220,64
DA:221,64
DA:225,64
DA:226,64
DA:227,64
DA:228,64
DA:229,64
DA:230,64
DA:231,64
DA:232,64
DA:233,64
DA:234,64
DA:235,64
DA:239,64
DA:240,64
DA:241,64
DA:242,64
DA:243,64
DA:244,64
DA:245,64
DA:246,64
DA:247,64
DA:248,64
DA:249,64
DA:253,64
DA:254,64
DA:255,64
DA:256,64
DA:257,64
DA:258,64
DA:259,64
DA:260,64
DA:264,64
DA:265,64
DA:266,64
DA:267,64
DA:268,64
DA:269,64
DA:270,64
DA:271,64
DA:274,64
DA:275,64
DA:276,64
DA:277,64
DA:278,64
DA:279,64
DA:280,64
DA:281,64
DA:284,64
DA:285,64
DA:286,64
DA:287,64
DA:288,64
DA:291,74
DA:292,74
DA:293,74
DA:296,14
DA:297,14
DA:298,14
DA:299,14
DA:300,14
DA:301,14
DA:302,14
DA:303,14
DA:306,10
DA:307,10
DA:308,10
DA:311,8
DA:312,8
DA:313,8
DA:316,8
DA:317,8
DA:319,72
DA:320,64
DA:321,64
DA:322,64
DA:323,64
DA:324,64
DA:326,48
DA:327,48
DA:329,112
DA:330,64
DA:331,64
DA:332,64
DA:333,64
DA:334,64
DA:335,64
DA:336,64
DA:337,48
DA:340,8
DA:341,8
DA:349,2
DA:350,2
DA:351,2
DA:352,2
DA:355,2
DA:356,2
DA:357,2
DA:360,2
DA:361,2
DA:364,2
DA:365,2
DA:368,2
DA:371,2
DA:372,2
DA:373,2
DA:374,2
DA:375,2
DA:376,2
DA:377,2
DA:378,2
DA:379,2
DA:380,2
DA:381,2
DA:384,2
DA:385,2
DA:386,2
DA:387,2
DA:388,2
DA:389,2
DA:392,2
DA:393,2
DA:396,2
DA:397,2
DA:400,2
DA:401,2
DA:404,2
DA:405,2
DA:406,2
DA:409,2
DA:410,2
DA:411,2
DA:414,2
DA:415,2
DA:418,2
DA:419,2
DA:422,2
DA:425,2
DA:426,2
DA:427,2
DA:428,2
DA:429,2
DA:430,2
DA:431,2
DA:438,2
DA:440,2
DA:441,2
DA:442,2
DA:443,2
DA:444,2
DA:445,2
DA:446,2
DA:447,2
DA:448,2
DA:449,2
DA:450,2
DA:451,2
DA:452,2
DA:453,2
DA:454,2
DA:455,2
DA:456,2
DA:457,2
DA:458,2
DA:459,2
DA:460,2
DA:461,2
DA:463,2
DA:464,2
DA:467,2
DA:468,2
DA:469,2
DA:470,2
DA:473,2
DA:474,2
DA:475,2
DA:476,2
DA:477,2
DA:480,2
DA:481,2
DA:482,2
DA:483,2
DA:484,2
DA:485,2
DA:488,10
DA:489,8
DA:491,2
DA:494,2
DA:495,2
DA:496,2
DA:497,2
DA:498,2
DA:499,2
DA:500,2
DA:501,2
DA:502,2
DA:503,2
DA:504,2
DA:505,2
DA:508,22
DA:509,20
DA:511,2
DA:514,2
DA:515,2
DA:516,2
DA:517,2
DA:518,2
DA:519,2
DA:520,2
DA:521,2
DA:522,2
DA:525,16
DA:526,14
DA:528,2
DA:531,2
DA:532,2
DA:533,2
DA:534,2
DA:535,2
DA:536,2
DA:539,10
DA:540,8
DA:542,2
DA:545,2
DA:546,2
DA:547,2
DA:548,2
DA:551,6
DA:552,4
DA:554,2
DA:557,2
DA:558,2
DA:559,2
DA:560,2
DA:563,6
DA:564,4
DA:566,2
DA:569,2
DA:570,2
DA:571,2
DA:572,2
DA:575,6
DA:576,4
DA:578,2
DA:581,2
DA:582,2
DA:583,2
DA:584,2
DA:585,2
DA:588,8
DA:589,6
DA:591,2
DA:594,2
DA:595,2
DA:596,2
DA:597,2
DA:600,6
DA:601,4
DA:603,2
DA:606,2
DA:607,2
DA:608,2
DA:609,2
DA:610,2
DA:611,2
DA:612,2
DA:613,2
DA:616,14
DA:617,12
DA:619,2
DA:626,2
DA:627,2
DA:628,2
DA:629,2
DA:630,2
DA:631,2
DA:632,2
DA:634,2
DA:635,2
DA:636,2
DA:637,2
DA:638,2
DA:641,2
DA:642,2
DA:643,2
DA:644,2
DA:645,2
DA:646,2
DA:647,2
DA:649,2
DA:650,2
DA:651,2
DA:652,2
DA:653,2
DA:660,2
DA:661,2
DA:662,2
DA:663,2
DA:666,2
DA:667,2
DA:670,2
DA:671,2
DA:672,2
DA:673,2
DA:674,2
DA:675,2
DA:676,2
DA:677,2
DA:678,2
DA:681,18
DA:682,16
DA:684,2
DA:687,2
DA:688,2
DA:692,2
DA:694,2
DA:695,2
DA:698,2
DA:699,2
DA:700,2
DA:702,2
DA:703,2
DA:704,2
DA:705,2
DA:708,2
DA:709,2
DA:710,2
DA:712,2
DA:713,2
DA:714,2
DA:715,2
DA:718,2
DA:719,2
DA:720,2
DA:722,2
DA:723,2
DA:724,2
DA:725,2
DA:728,2
DA:729,2
DA:730,2
DA:732,2
DA:733,2
DA:734,2
DA:737,2
DA:738,2
DA:739,2
DA:741,2
DA:742,2
DA:743,2
DA:746,2
DA:747,2
DA:748,2
DA:750,2
DA:751,2
DA:752,2
DA:755,2
DA:756,2
DA:757,2
DA:759,2
DA:761,2
DA:762,2
DA:765,2
DA:766,2
DA:769,2
DA:770,2
DA:771,2
DA:774,2
DA:775,2
DA:778,2
DA:779,2
DA:780,2
DA:783,2
DA:784,2
DA:787,2
DA:788,2
DA:789,2
DA:792,2
DA:793,2
DA:796,2
DA:797,2
DA:798,2
DA:801,2
DA:802,2
DA:803,2
DA:806,2
DA:807,2
DA:808,2
DA:809,2
DA:810,2
DA:811,2
DA:812,2
DA:815,2
DA:816,2
DA:817,2
DA:820,2
DA:821,2
DA:824,2
DA:825,2
DA:826,2
DA:829,2
DA:830,2
DA:833,2
DA:834,2
DA:836,16
DA:837,16
DA:838,16
DA:839,16
DA:840,16
DA:841,0
DA:843,2
DA:846,2
DA:847,2
DA:849,16
DA:850,16
DA:851,42
DA:852,26
DA:853,26
DA:855,0
DA:857,2
DA:860,2
DA:861,2
DA:863,2
DA:864,2
DA:865,2
DA:868,6
DA:869,4
DA:870,8
DA:871,0
DA:872,0
DA:874,2
DA:877,2
DA:878,2
DA:880,2
DA:881,4
DA:882,0
DA:883,0
DA:884,2
DA:887,2
DA:888,2
DA:890,2
DA:891,4
DA:892,0
DA:893,0
DA:894,2
BRF:0
BRH:0
LF:508
LH:500
end_of_record
SF:/home/noah/src/batuta/src/tools.rs
FN:60,_RNvMNtCs2Yt0WxJROpx_6batuta5toolsNtB2_12ToolRegistry14has_transpiler
FN:328,_RNvNtCs2Yt0WxJROpx_6batuta5tools15analyze_quality
FN:306,_RNvNtCs2Yt0WxJROpx_6batuta5tools15transpile_c_cpp
FN:282,_RNvNtCs2Yt0WxJROpx_6batuta5tools15transpile_shell
FN:347,_RNvNtCs2Yt0WxJROpx_6batuta5tools16run_ruchy_script
FN:259,_RNvNtCs2Yt0WxJROpx_6batuta5tools16transpile_python
FN:242,_RNCNvNtCs2Yt0WxJROpx_6batuta5tools8run_tool0B5_
FN:77,_RNvMNtCs2Yt0WxJROpx_6batuta5toolsNtB2_12ToolRegistry15available_tools
FN:65,_RNvMNtCs2Yt0WxJROpx_6batuta5toolsNtB2_12ToolRegistry27get_transpiler_for_language
FN:130,_RNvMNtCs2Yt0WxJROpx_6batuta5toolsNtB2_12ToolRegistry29get_installation_instructions
FN:43,_RNvMNtCs2Yt0WxJROpx_6batuta5toolsNtB2_12ToolRegistry6detect
FN:175,_RNvNtCs2Yt0WxJROpx_6batuta5tools11detect_tool
FN:204,_RNvNtCs2Yt0WxJROpx_6batuta5tools16get_tool_version
FN:226,_RNvNtCs2Yt0WxJROpx_6batuta5tools8run_tool
FN:690,_RNCNvNtNtCsjH0PaGjVXp8_6batuta5tools5testss_37test_available_tools_unavailable_flag0B7_
FN:242,_RNCNvNtCsjH0PaGjVXp8_6batuta5tools8run_tool0B5_
FN:433,_RNvNtNtCsjH0PaGjVXp8_6batuta5tools5tests20create_test_registry
FN:467,_RNvNtNtCsjH0PaGjVXp8_6batuta5tools5tests21create_empty_registry
FN:500,_RNvNtNtCsjH0PaGjVXp8_6batuta5tools5testss_19test_tool_detection
FN:400,_RNvNtNtCsjH0PaGjVXp8_6batuta5tools5testss_20test_tool_info_clone
FN:416,_RNvNtNtCsjH0PaGjVXp8_6batuta5tools5testss_20test_tool_info_debug
FN:372,_RNvNtNtCsjH0PaGjVXp8_6batuta5tools5testss_23test_tool_info_creation
FN:799,_RNvNtNtCsjH0PaGjVXp8_6batuta5tools5testss_24test_run_tool_basic_args
FN:482,_RNvNtNtCsjH0PaGjVXp8_6batuta5tools5testss_24test_tool_registry_clone
FN:492,_RNvNtNtCsjH0PaGjVXp8_6batuta5tools5testss_24test_tool_registry_debug
FN:783,_RNvNtNtCsjH0PaGjVXp8_6batuta5tools5testss_25test_analyze_quality_path
FN:516,_RNvNtNtCsjH0PaGjVXp8_6batuta5tools5testss_25test_has_transpiler_empty
FN:387,_RNvNtNtCsjH0PaGjVXp8_6batuta5tools5testss_25test_tool_info_no_version
FN:661,_RNvNtNtCsjH0PaGjVXp8_6batuta5tools5testss_26test_available_tools_empty
FN:791,_RNvNtNtCsjH0PaGjVXp8_6batuta5tools5testss_26test_run_ruchy_script_path
FN:774,_RNvNtNtCsjH0PaGjVXp8_6batuta5tools5testss_26test_transpile_c_cpp_paths
FN:765,_RNvNtNtCsjH0PaGjVXp8_6batuta5tools5testss_26test_transpile_shell_paths
FN:755,_RNvNtNtCsjH0PaGjVXp8_6batuta5tools5testss_27test_transpile_python_paths
FN:668,_RNvNtNtCsjH0PaGjVXp8_6batuta5tools5testss_28test_available_tools_partial
FN:522,_RNvNtNtCsjH0PaGjVXp8_6batuta5tools5testss_29test_has_transpiler_only_decy
FN:510,_RNvNtNtCsjH0PaGjVXp8_6batuta5tools5testss_30test_has_transpiler_with_tools
FN:810,_RNvNtNtCsjH0PaGjVXp8_6batuta5tools5testss_30test_run_tool_with_working_dir
FN:546,_RNvNtNtCsjH0PaGjVXp8_6batuta5tools5testss_31test_has_transpiler_only_bashrs
FN:534,_RNvNtNtCsjH0PaGjVXp8_6batuta5tools5testss_32test_has_transpiler_only_depyler
FN:618,_RNvNtNtCsjH0PaGjVXp8_6batuta5tools5testss_34test_available_tools_all_installed
FN:558,_RNvNtNtCsjH0PaGjVXp8_6batuta5tools5testss_34test_get_transpiler_for_language_c
FN:566,_RNvNtNtCsjH0PaGjVXp8_6batuta5tools5testss_36test_get_transpiler_for_language_cpp
FN:681,_RNvNtNtCsjH0PaGjVXp8_6batuta5tools5testss_37test_available_tools_unavailable_flag
FN:597,_RNvNtNtCsjH0PaGjVXp8_6batuta5tools5testss_37test_get_transpiler_for_language_rust
FN:611,_RNvNtNtCsjH0PaGjVXp8_6batuta5tools5testss_38test_get_transpiler_for_language_other
FN:582,_RNvNtNtCsjH0PaGjVXp8_6batuta5tools5testss_38test_get_transpiler_for_language_shell
FN:574,_RNvNtNtCsjH0PaGjVXp8_6batuta5tools5testss_39test_get_transpiler_for_language_python
FN:722,_RNvNtNtCsjH0PaGjVXp8_6batuta5tools5testss_42test_get_installation_instructions_partial
FN:604,_RNvNtNtCsjH0PaGjVXp8_6batuta5tools5testss_43test_get_transpiler_for_language_javascript
FN:743,_RNvNtNtCsjH0PaGjVXp8_6batuta5tools5testss_45test_get_installation_instructions_empty_list
FN:694,_RNvNtNtCsjH0PaGjVXp8_6batuta5tools5testss_46test_get_installation_instructions_all_missing
FN:713,_RNvNtNtCsjH0PaGjVXp8_6batuta5tools5testss_47test_get_installation_instructions_none_missing
FN:733,_RNvNtNtCsjH0PaGjVXp8_6batuta5tools5testss_47test_get_installation_instructions_unknown_tool
FN:60,_RNvMNtCsjH0PaGjVXp8_6batuta5toolsNtB2_12ToolRegistry14has_transpiler
FN:77,_RNvMNtCsjH0PaGjVXp8_6batuta5toolsNtB2_12ToolRegistry15available_tools
FN:65,_RNvMNtCsjH0PaGjVXp8_6batuta5toolsNtB2_12ToolRegistry27get_transpiler_for_language
FN:130,_RNvMNtCsjH0PaGjVXp8_6batuta5toolsNtB2_12ToolRegistry29get_installation_instructions
FN:43,_RNvMNtCsjH0PaGjVXp8_6batuta5toolsNtB2_12ToolRegistry6detect
FN:175,_RNvNtCsjH0PaGjVXp8_6batuta5tools11detect_tool
FN:328,_RNvNtCsjH0PaGjVXp8_6batuta5tools15analyze_quality
FN:306,_RNvNtCsjH0PaGjVXp8_6batuta5tools15transpile_c_cpp
FN:282,_RNvNtCsjH0PaGjVXp8_6batuta5tools15transpile_shell
FN:204,_RNvNtCsjH0PaGjVXp8_6batuta5tools16get_tool_version
FN:347,_RNvNtCsjH0PaGjVXp8_6batuta5tools16run_ruchy_script
FN:259,_RNvNtCsjH0PaGjVXp8_6batuta5tools16transpile_python
FN:226,_RNvNtCsjH0PaGjVXp8_6batuta5tools8run_tool
FN:242,_RNCNvNtCshEp7d2sUZm6_6batuta5tools8run_tool0B5_
FN:433,_RNvNtNtCshEp7d2sUZm6_6batuta5tools5tests20create_test_registry
FN:467,_RNvNtNtCshEp7d2sUZm6_6batuta5tools5tests21create_empty_registry
FN:500,_RNvNtNtCshEp7d2sUZm6_6batuta5tools5testss_19test_tool_detection
FN:400,_RNvNtNtCshEp7d2sUZm6_6batuta5tools5testss_20test_tool_info_clone
FN:416,_RNvNtNtCshEp7d2sUZm6_6batuta5tools5testss_20test_tool_info_debug
FN:372,_RNvNtNtCshEp7d2sUZm6_6batuta5tools5testss_23test_tool_info_creation
FN:799,_RNvNtNtCshEp7d2sUZm6_6batuta5tools5testss_24test_run_tool_basic_args
FN:482,_RNvNtNtCshEp7d2sUZm6_6batuta5tools5testss_24test_tool_registry_clone
FN:492,_RNvNtNtCshEp7d2sUZm6_6batuta5tools5testss_24test_tool_registry_debug
FN:783,_RNvNtNtCshEp7d2sUZm6_6batuta5tools5testss_25test_analyze_quality_path
FN:516,_RNvNtNtCshEp7d2sUZm6_6batuta5tools5testss_25test_has_transpiler_empty
FN:387,_RNvNtNtCshEp7d2sUZm6_6batuta5tools5testss_25test_tool_info_no_version
FN:661,_RNvNtNtCshEp7d2sUZm6_6batuta5tools5testss_26test_available_tools_empty
FN:791,_RNvNtNtCshEp7d2sUZm6_6batuta5tools5testss_26test_run_ruchy_script_path
FN:774,_RNvNtNtCshEp7d2sUZm6_6batuta5tools5testss_26test_transpile_c_cpp_paths
FN:765,_RNvNtNtCshEp7d2sUZm6_6batuta5tools5testss_26test_transpile_shell_paths
FN:755,_RNvNtNtCshEp7d2sUZm6_6batuta5tools5testss_27test_transpile_python_paths
FN:668,_RNvNtNtCshEp7d2sUZm6_6batuta5tools5testss_28test_available_tools_partial
FN:522,_RNvNtNtCshEp7d2sUZm6_6batuta5tools5testss_29test_has_transpiler_only_decy
FN:510,_RNvNtNtCshEp7d2sUZm6_6batuta5tools5testss_30test_has_transpiler_with_tools
FN:810,_RNvNtNtCshEp7d2sUZm6_6batuta5tools5testss_30test_run_tool_with_working_dir
FN:546,_RNvNtNtCshEp7d2sUZm6_6batuta5tools5testss_31test_has_transpiler_only_bashrs
FN:534,_RNvNtNtCshEp7d2sUZm6_6batuta5tools5testss_32test_has_transpiler_only_depyler
FN:618,_RNvNtNtCshEp7d2sUZm6_6batuta5tools5testss_34test_available_tools_all_installed
FN:558,_RNvNtNtCshEp7d2sUZm6_6batuta5tools5testss_34test_get_transpiler_for_language_c
FN:566,_RNvNtNtCshEp7d2sUZm6_6batuta5tools5testss_36test_get_transpiler_for_language_cpp
FN:681,_RNvNtNtCshEp7d2sUZm6_6batuta5tools5testss_37test_available_tools_unavailable_flag
FN:597,_RNvNtNtCshEp7d2sUZm6_6batuta5tools5testss_37test_get_transpiler_for_language_rust
FN:611,_RNvNtNtCshEp7d2sUZm6_6batuta5tools5testss_38test_get_transpiler_for_language_other
FN:582,_RNvNtNtCshEp7d2sUZm6_6batuta5tools5testss_38test_get_transpiler_for_language_shell
FN:574,_RNvNtNtCshEp7d2sUZm6_6batuta5tools5testss_39test_get_transpiler_for_language_python
FN:722,_RNvNtNtCshEp7d2sUZm6_6batuta5tools5testss_42test_get_installation_instructions_partial
FN:604,_RNvNtNtCshEp7d2sUZm6_6batuta5tools5testss_43test_get_transpiler_for_language_javascript
FN:743,_RNvNtNtCshEp7d2sUZm6_6batuta5tools5testss_45test_get_installation_instructions_empty_list
FN:694,_RNvNtNtCshEp7d2sUZm6_6batuta5tools5testss_46test_get_installation_instructions_all_missing
FN:713,_RNvNtNtCshEp7d2sUZm6_6batuta5tools5testss_47test_get_installation_instructions_none_missing
FN:733,_RNvNtNtCshEp7d2sUZm6_6batuta5tools5testss_47test_get_installation_instructions_unknown_tool
FN:60,_RNvMNtCshEp7d2sUZm6_6batuta5toolsNtB2_12ToolRegistry14has_transpiler
FN:77,_RNvMNtCshEp7d2sUZm6_6batuta5toolsNtB2_12ToolRegistry15available_tools
FN:65,_RNvMNtCshEp7d2sUZm6_6batuta5toolsNtB2_12ToolRegistry27get_transpiler_for_language
FN:130,_RNvMNtCshEp7d2sUZm6_6batuta5toolsNtB2_12ToolRegistry29get_installation_instructions
FN:43,_RNvMNtCshEp7d2sUZm6_6batuta5toolsNtB2_12ToolRegistry6detect
FN:175,_RNvNtCshEp7d2sUZm6_6batuta5tools11detect_tool
FN:328,_RNvNtCshEp7d2sUZm6_6batuta5tools15analyze_quality
FN:306,_RNvNtCshEp7d2sUZm6_6batuta5tools15transpile_c_cpp
FN:282,_RNvNtCshEp7d2sUZm6_6batuta5tools15transpile_shell
FN:204,_RNvNtCshEp7d2sUZm6_6batuta5tools16get_tool_version
FN:347,_RNvNtCshEp7d2sUZm6_6batuta5tools16run_ruchy_script
FN:259,_RNvNtCshEp7d2sUZm6_6batuta5tools16transpile_python
FN:226,_RNvNtCshEp7d2sUZm6_6batuta5tools8run_tool
FN:690,_RNCNvNtNtCshEp7d2sUZm6_6batuta5tools5testss_37test_available_tools_unavailable_flag0B7_
FN:242,_RNCNvNtCsc3xvWSUKV5Z_6batuta5tools8run_tool0B5_
FN:60,_RNvMNtCsc3xvWSUKV5Z_6batuta5toolsNtB2_12ToolRegistry14has_transpiler
FN:77,_RNvMNtCsc3xvWSUKV5Z_6batuta5toolsNtB2_12ToolRegistry15available_tools
FN:65,_RNvMNtCsc3xvWSUKV5Z_6batuta5toolsNtB2_12ToolRegistry27get_transpiler_for_language
FN:130,_RNvMNtCsc3xvWSUKV5Z_6batuta5toolsNtB2_12ToolRegistry29get_installation_instructions
FN:43,_RNvMNtCsc3xvWSUKV5Z_6batuta5toolsNtB2_12ToolRegistry6detect
FN:175,_RNvNtCsc3xvWSUKV5Z_6batuta5tools11detect_tool
FN:328,_RNvNtCsc3xvWSUKV5Z_6batuta5tools15analyze_quality
FN:306,_RNvNtCsc3xvWSUKV5Z_6batuta5tools15transpile_c_cpp
FN:282,_RNvNtCsc3xvWSUKV5Z_6batuta5tools15transpile_shell
FN:204,_RNvNtCsc3xvWSUKV5Z_6batuta5tools16get_tool_version
FN:347,_RNvNtCsc3xvWSUKV5Z_6batuta5tools16run_ruchy_script
FN:259,_RNvNtCsc3xvWSUKV5Z_6batuta5tools16transpile_python
FN:226,_RNvNtCsc3xvWSUKV5Z_6batuta5tools8run_tool
FNDA:0,_RNvMNtCs2Yt0WxJROpx_6batuta5toolsNtB2_12ToolRegistry14has_transpiler
FNDA:0,_RNvNtCs2Yt0WxJROpx_6batuta5tools15analyze_quality
FNDA:0,_RNvNtCs2Yt0WxJROpx_6batuta5tools15transpile_c_cpp
FNDA:0,_RNvNtCs2Yt0WxJROpx_6batuta5tools15transpile_shell
FNDA:0,_RNvNtCs2Yt0WxJROpx_6batuta5tools16run_ruchy_script
FNDA:0,_RNvNtCs2Yt0WxJROpx_6batuta5tools16transpile_python
FNDA:0,_RNCNvNtCs2Yt0WxJROpx_6batuta5tools8run_tool0B5_
FNDA:0,_RNvMNtCs2Yt0WxJROpx_6batuta5toolsNtB2_12ToolRegistry15available_tools
FNDA:0,_RNvMNtCs2Yt0WxJROpx_6batuta5toolsNtB2_12ToolRegistry27get_transpiler_for_language
FNDA:0,_RNvMNtCs2Yt0WxJROpx_6batuta5toolsNtB2_12ToolRegistry29get_installation_instructions
FNDA:0,_RNvMNtCs2Yt0WxJROpx_6batuta5toolsNtB2_12ToolRegistry6detect
FNDA:0,_RNvNtCs2Yt0WxJROpx_6batuta5tools11detect_tool
FNDA:0,_RNvNtCs2Yt0WxJROpx_6batuta5tools16get_tool_version
FNDA:0,_RNvNtCs2Yt0WxJROpx_6batuta5tools8run_tool
FNDA:3,_RNCNvNtNtCsjH0PaGjVXp8_6batuta5tools5testss_37test_available_tools_unavailable_flag0B7_
FNDA:1,_RNCNvNtCsjH0PaGjVXp8_6batuta5tools8run_tool0B5_
FNDA:16,_RNvNtNtCsjH0PaGjVXp8_6batuta5tools5tests20create_test_registry
FNDA:7,_RNvNtNtCsjH0PaGjVXp8_6batuta5tools5tests21create_empty_registry
FNDA:1,_RNvNtNtCsjH0PaGjVXp8_6batuta5tools5testss_19test_tool_detection
FNDA:1,_RNvNtNtCsjH0PaGjVXp8_6batuta5tools5testss_20test_tool_info_clone
FNDA:1,_RNvNtNtCsjH0PaGjVXp8_6batuta5tools5testss_20test_tool_info_debug
FNDA:1,_RNvNtNtCsjH0PaGjVXp8_6batuta5tools5testss_23test_tool_info_creation
FNDA:1,_RNvNtNtCsjH0PaGjVXp8_6batuta5tools5testss_24test_run_tool_basic_args
FNDA:1,_RNvNtNtCsjH0PaGjVXp8_6batuta5tools5testss_24test_tool_registry_clone
FNDA:1,_RNvNtNtCsjH0PaGjVXp8_6batuta5tools5testss_24test_tool_registry_debug
FNDA:1,_RNvNtNtCsjH0PaGjVXp8_6batuta5tools5testss_25test_analyze_quality_path
FNDA:1,_RNvNtNtCsjH0PaGjVXp8_6batuta5tools5testss_25test_has_transpiler_empty
FNDA:1,_RNvNtNtCsjH0PaGjVXp8_6batuta5tools5testss_25test_tool_info_no_version
FNDA:1,_RNvNtNtCsjH0PaGjVXp8_6batuta5tools5testss_26test_available_tools_empty
FNDA:1,_RNvNtNtCsjH0PaGjVXp8_6batuta5tools5testss_26test_run_ruchy_script_path
FNDA:1,_RNvNtNtCsjH0PaGjVXp8_6batuta5tools5testss_26test_transpile_c_cpp_paths
FNDA:1,_RNvNtNtCsjH0PaGjVXp8_6batuta5tools5testss_26test_transpile_shell_paths
FNDA:1,_RNvNtNtCsjH0PaGjVXp8_6batuta5tools5testss_27test_transpile_python_paths
FNDA:1,_RNvNtNtCsjH0PaGjVXp8_6batuta5tools5testss_28test_available_tools_partial
FNDA:1,_RNvNtNtCsjH0PaGjVXp8_6batuta5tools5testss_29test_has_transpiler_only_decy
FNDA:1,_RNvNtNtCsjH0PaGjVXp8_6batuta5tools5testss_30test_has_transpiler_with_tools
FNDA:1,_RNvNtNtCsjH0PaGjVXp8_6batuta5tools5testss_30test_run_tool_with_working_dir
FNDA:1,_RNvNtNtCsjH0PaGjVXp8_6batuta5tools5testss_31test_has_transpiler_only_bashrs
FNDA:1,_RNvNtNtCsjH0PaGjVXp8_6batuta5tools5testss_32test_has_transpiler_only_depyler
FNDA:1,_RNvNtNtCsjH0PaGjVXp8_6batuta5tools5testss_34test_available_tools_all_installed
FNDA:1,_RNvNtNtCsjH0PaGjVXp8_6batuta5tools5testss_34test_get_transpiler_for_language_c
FNDA:1,_RNvNtNtCsjH0PaGjVXp8_6batuta5tools5testss_36test_get_transpiler_for_language_cpp
FNDA:1,_RNvNtNtCsjH0PaGjVXp8_6batuta5tools5testss_37test_available_tools_unavailable_flag
FNDA:1,_RNvNtNtCsjH0PaGjVXp8_6batuta5tools5testss_37test_get_transpiler_for_language_rust
FNDA:1,_RNvNtNtCsjH0PaGjVXp8_6batuta5tools5testss_38test_get_transpiler_for_language_other
FNDA:1,_RNvNtNtCsjH0PaGjVXp8_6batuta5tools5testss_38test_get_transpiler_for_language_shell
FNDA:1,_RNvNtNtCsjH0PaGjVXp8_6batuta5tools5testss_39test_get_transpiler_for_language_python
FNDA:1,_RNvNtNtCsjH0PaGjVXp8_6batuta5tools5testss_42test_get_installation_instructions_partial
FNDA:1,_RNvNtNtCsjH0PaGjVXp8_6batuta5tools5testss_43test_get_transpiler_for_language_javascript
FNDA:1,_RNvNtNtCsjH0PaGjVXp8_6batuta5tools5testss_45test_get_installation_instructions_empty_list
FNDA:1,_RNvNtNtCsjH0PaGjVXp8_6batuta5tools5testss_46test_get_installation_instructions_all_missing
FNDA:1,_RNvNtNtCsjH0PaGjVXp8_6batuta5tools5testss_47test_get_installation_instructions_none_missing
FNDA:1,_RNvNtNtCsjH0PaGjVXp8_6batuta5tools5testss_47test_get_installation_instructions_unknown_tool
FNDA:5,_RNvMNtCsjH0PaGjVXp8_6batuta5toolsNtB2_12ToolRegistry14has_transpiler
FNDA:5,_RNvMNtCsjH0PaGjVXp8_6batuta5toolsNtB2_12ToolRegistry15available_tools
FNDA:7,_RNvMNtCsjH0PaGjVXp8_6batuta5toolsNtB2_12ToolRegistry27get_transpiler_for_language
FNDA:5,_RNvMNtCsjH0PaGjVXp8_6batuta5toolsNtB2_12ToolRegistry29get_installation_instructions
FNDA:2,_RNvMNtCsjH0PaGjVXp8_6batuta5toolsNtB2_12ToolRegistry6detect
FNDA:18,_RNvNtCsjH0PaGjVXp8_6batuta5tools11detect_tool
FNDA:1,_RNvNtCsjH0PaGjVXp8_6batuta5tools15analyze_quality
FNDA:1,_RNvNtCsjH0PaGjVXp8_6batuta5tools15transpile_c_cpp
FNDA:1,_RNvNtCsjH0PaGjVXp8_6batuta5tools15transpile_shell
FNDA:12,_RNvNtCsjH0PaGjVXp8_6batuta5tools16get_tool_version
FNDA:1,_RNvNtCsjH0PaGjVXp8_6batuta5tools16run_ruchy_script
FNDA:1,_RNvNtCsjH0PaGjVXp8_6batuta5tools16transpile_python
FNDA:7,_RNvNtCsjH0PaGjVXp8_6batuta5tools8run_tool
FNDA:1,_RNCNvNtCshEp7d2sUZm6_6batuta5tools8run_tool0B5_
FNDA:16,_RNvNtNtCshEp7d2sUZm6_6batuta5tools5tests20create_test_registry
FNDA:7,_RNvNtNtCshEp7d2sUZm6_6batuta5tools5tests21create_empty_registry
FNDA:1,_RNvNtNtCshEp7d2sUZm6_6batuta5tools5testss_19test_tool_detection
FNDA:1,_RNvNtNtCshEp7d2sUZm6_6batuta5tools5testss_20test_tool_info_clone
FNDA:1,_RNvNtNtCshEp7d2sUZm6_6batuta5tools5testss_20test_tool_info_debug
FNDA:1,_RNvNtNtCshEp7d2sUZm6_6batuta5tools5testss_23test_tool_info_creation
FNDA:1,_RNvNtNtCshEp7d2sUZm6_6batuta5tools5testss_24test_run_tool_basic_args
FNDA:1,_RNvNtNtCshEp7d2sUZm6_6batuta5tools5testss_24test_tool_registry_clone
FNDA:1,_RNvNtNtCshEp7d2sUZm6_6batuta5tools5testss_24test_tool_registry_debug
FNDA:1,_RNvNtNtCshEp7d2sUZm6_6batuta5tools5testss_25test_analyze_quality_path
FNDA:1,_RNvNtNtCshEp7d2sUZm6_6batuta5tools5testss_25test_has_transpiler_empty
FNDA:1,_RNvNtNtCshEp7d2sUZm6_6batuta5tools5testss_25test_tool_info_no_version
FNDA:1,_RNvNtNtCshEp7d2sUZm6_6batuta5tools5testss_26test_available_tools_empty
FNDA:1,_RNvNtNtCshEp7d2sUZm6_6batuta5tools5testss_26test_run_ruchy_script_path
FNDA:1,_RNvNtNtCshEp7d2sUZm6_6batuta5tools5testss_26test_transpile_c_cpp_paths
FNDA:1,_RNvNtNtCshEp7d2sUZm6_6batuta5tools5testss_26test_transpile_shell_paths
FNDA:1,_RNvNtNtCshEp7d2sUZm6_6batuta5tools5testss_27test_transpile_python_paths
FNDA:1,_RNvNtNtCshEp7d2sUZm6_6batuta5tools5testss_28test_available_tools_partial
FNDA:1,_RNvNtNtCshEp7d2sUZm6_6batuta5tools5testss_29test_has_transpiler_only_decy
FNDA:1,_RNvNtNtCshEp7d2sUZm6_6batuta5tools5testss_30test_has_transpiler_with_tools
FNDA:1,_RNvNtNtCshEp7d2sUZm6_6batuta5tools5testss_30test_run_tool_with_working_dir
FNDA:1,_RNvNtNtCshEp7d2sUZm6_6batuta5tools5testss_31test_has_transpiler_only_bashrs
FNDA:1,_RNvNtNtCshEp7d2sUZm6_6batuta5tools5testss_32test_has_transpiler_only_depyler
FNDA:1,_RNvNtNtCshEp7d2sUZm6_6batuta5tools5testss_34test_available_tools_all_installed
FNDA:1,_RNvNtNtCshEp7d2sUZm6_6batuta5tools5testss_34test_get_transpiler_for_language_c
FNDA:1,_RNvNtNtCshEp7d2sUZm6_6batuta5tools5testss_36test_get_transpiler_for_language_cpp
FNDA:1,_RNvNtNtCshEp7d2sUZm6_6batuta5tools5testss_37test_available_tools_unavailable_flag
FNDA:1,_RNvNtNtCshEp7d2sUZm6_6batuta5tools5testss_37test_get_transpiler_for_language_rust
FNDA:1,_RNvNtNtCshEp7d2sUZm6_6batuta5tools5testss_38test_get_transpiler_for_language_other
FNDA:1,_RNvNtNtCshEp7d2sUZm6_6batuta5tools5testss_38test_get_transpiler_for_language_shell
FNDA:1,_RNvNtNtCshEp7d2sUZm6_6batuta5tools5testss_39test_get_transpiler_for_language_python
FNDA:1,_RNvNtNtCshEp7d2sUZm6_6batuta5tools5testss_42test_get_installation_instructions_partial
FNDA:1,_RNvNtNtCshEp7d2sUZm6_6batuta5tools5testss_43test_get_transpiler_for_language_javascript
FNDA:1,_RNvNtNtCshEp7d2sUZm6_6batuta5tools5testss_45test_get_installation_instructions_empty_list
FNDA:1,_RNvNtNtCshEp7d2sUZm6_6batuta5tools5testss_46test_get_installation_instructions_all_missing
FNDA:1,_RNvNtNtCshEp7d2sUZm6_6batuta5tools5testss_47test_get_installation_instructions_none_missing
FNDA:1,_RNvNtNtCshEp7d2sUZm6_6batuta5tools5testss_47test_get_installation_instructions_unknown_tool
FNDA:5,_RNvMNtCshEp7d2sUZm6_6batuta5toolsNtB2_12ToolRegistry14has_transpiler
FNDA:5,_RNvMNtCshEp7d2sUZm6_6batuta5toolsNtB2_12ToolRegistry15available_tools
FNDA:7,_RNvMNtCshEp7d2sUZm6_6batuta5toolsNtB2_12ToolRegistry27get_transpiler_for_language
FNDA:5,_RNvMNtCshEp7d2sUZm6_6batuta5toolsNtB2_12ToolRegistry29get_installation_instructions
FNDA:2,_RNvMNtCshEp7d2sUZm6_6batuta5toolsNtB2_12ToolRegistry6detect
FNDA:18,_RNvNtCshEp7d2sUZm6_6batuta5tools11detect_tool
FNDA:1,_RNvNtCshEp7d2sUZm6_6batuta5tools15analyze_quality
FNDA:1,_RNvNtCshEp7d2sUZm6_6batuta5tools15transpile_c_cpp
FNDA:1,_RNvNtCshEp7d2sUZm6_6batuta5tools15transpile_shell
FNDA:12,_RNvNtCshEp7d2sUZm6_6batuta5tools16get_tool_version
FNDA:1,_RNvNtCshEp7d2sUZm6_6batuta5tools16run_ruchy_script
FNDA:1,_RNvNtCshEp7d2sUZm6_6batuta5tools16transpile_python
FNDA:7,_RNvNtCshEp7d2sUZm6_6batuta5tools8run_tool
FNDA:3,_RNCNvNtNtCshEp7d2sUZm6_6batuta5tools5testss_37test_available_tools_unavailable_flag0B7_
FNDA:0,_RNCNvNtCsc3xvWSUKV5Z_6batuta5tools8run_tool0B5_
FNDA:0,_RNvMNtCsc3xvWSUKV5Z_6batuta5toolsNtB2_12ToolRegistry14has_transpiler
FNDA:0,_RNvMNtCsc3xvWSUKV5Z_6batuta5toolsNtB2_12ToolRegistry15available_tools
FNDA:0,_RNvMNtCsc3xvWSUKV5Z_6batuta5toolsNtB2_12ToolRegistry27get_transpiler_for_language
FNDA:0,_RNvMNtCsc3xvWSUKV5Z_6batuta5toolsNtB2_12ToolRegistry29get_installation_instructions
FNDA:0,_RNvMNtCsc3xvWSUKV5Z_6batuta5toolsNtB2_12ToolRegistry6detect
FNDA:0,_RNvNtCsc3xvWSUKV5Z_6batuta5tools11detect_tool
FNDA:0,_RNvNtCsc3xvWSUKV5Z_6batuta5tools15analyze_quality
FNDA:0,_RNvNtCsc3xvWSUKV5Z_6batuta5tools15transpile_c_cpp
FNDA:0,_RNvNtCsc3xvWSUKV5Z_6batuta5tools15transpile_shell
FNDA:0,_RNvNtCsc3xvWSUKV5Z_6batuta5tools16get_tool_version
FNDA:0,_RNvNtCsc3xvWSUKV5Z_6batuta5tools16run_ruchy_script
FNDA:0,_RNvNtCsc3xvWSUKV5Z_6batuta5tools16transpile_python
FNDA:0,_RNvNtCsc3xvWSUKV5Z_6batuta5tools8run_tool
FNF:52
FNH:52
DA:43,4
DA:44,4
DA:46,4
DA:47,4
DA:48,4
DA:49,4
DA:50,4
DA:51,4
DA:52,4
DA:53,4
DA:54,4
DA:55,4
DA:56,4
DA:57,4
DA:60,10
DA:61,10
DA:62,10
DA:65,14
DA:68,14
DA:69,4
DA:70,2
DA:71,2
DA:72,6
DA:74,14
DA:77,10
DA:78,10
DA:80,10
DA:81,6
DA:82,6
DA:83,6
DA:84,4
DA:85,10
DA:86,8
DA:87,6
DA:88,6
DA:89,2
DA:90,10
DA:91,4
DA:92,4
DA:93,4
DA:94,6
DA:95,10
DA:96,8
DA:97,8
DA:98,8
DA:99,2
DA:100,10
DA:101,8
DA:102,8
DA:103,8
DA:104,2
DA:105,10
DA:106,2
DA:107,2
DA:108,2
DA:109,8
DA:110,10
DA:111,2
DA:112,2
DA:113,2
DA:114,8
DA:115,10
DA:116,4
DA:117,4
DA:118,4
DA:119,6
DA:120,10
DA:121,4
DA:122,4
DA:123,4
DA:124,6
DA:126,10
DA:127,10
DA:130,10
DA:131,10
DA:133,46
DA:134,36
DA:135,36
DA:136,4
DA:138,28
DA:139,2
DA:141,24
DA:142,4
DA:144,20
DA:145,2
DA:147,16
DA:148,2
DA:150,12
DA:151,4
DA:153,8
DA:154,2
DA:156,6
DA:157,2
DA:159,4
DA:160,2
DA:162,12
DA:165,36
DA:166,24
DA:167,24
DA:170,10
DA:171,10
DA:175,36
DA:176,36
DA:179,36
DA:180,24
DA:182,12
DA:183,12
DA:188,24
DA:190,24
DA:191,0
DA:195,24
DA:196,24
DA:197,24
DA:198,24
DA:199,24
DA:200,24
DA:201,36
DA:204,24
DA:205,24
DA:207,24
DA:208,0
DA:209,24
DA:211,24
DA:212,24
DA:219,24
DA:220,24
DA:222,24
DA:223,24
DA:226,14
DA:227,14
DA:228,14
DA:229,14
DA:230,14
DA:231,14
DA:233,14
DA:234,14
DA:236,14
DA:237,2
DA:238,12
DA:240,14
DA:241,14
DA:242,14
DA:244,12
DA:245,8
DA:246,8
DA:247,8
DA:249,8
DA:252,4
DA:254,4
DA:255,4
DA:256,14
DA:259,2
DA:260,2
DA:261,2
DA:262,2
DA:263,2
DA:265,2
DA:266,2
DA:268,2
DA:270,2
DA:271,2
DA:272,2
DA:273,2
DA:274,2
DA:275,2
DA:278,2
DA:279,2
DA:282,2
DA:283,2
DA:284,2
DA:285,2
DA:286,2
DA:288,2
DA:289,2
DA:291,2
DA:293,2
DA:294,2
DA:295,2
DA:296,2
DA:297,2
DA:298,2
DA:299,2
DA:302,2
DA:303,2
DA:306,2
DA:307,2
DA:308,2
DA:309,2
DA:310,2
DA:312,2
DA:313,2
DA:316,2
DA:318,2
DA:319,2
DA:320,2
DA:321,2
DA:324,2
DA:325,2
DA:328,2
DA:329,2
DA:330,2
DA:331,2
DA:333,2
DA:335,2
DA:337,2
DA:338,2
DA:339,2
DA:340,2
DA:343,2
DA:344,2
DA:347,2
DA:348,2
DA:349,2
DA:350,2
DA:352,2
DA:354,2
DA:356,2
DA:359,2
DA:360,2
DA:372,2
DA:373,2
DA:374,2
DA:375,2
DA:376,2
DA:377,2
DA:378,2
DA:380,2
DA:381,2
DA:382,2
DA:383,2
DA:384,2
DA:387,2
DA:388,2
DA:389,2
DA:390,2
DA:391,2
DA:392,2
DA:393,2
DA:395,2
DA:396,2
DA:397,2
DA:400,2
DA:401,2
DA:402,2
DA:403,2
DA:404,2
DA:405,2
DA:406,2
DA:408,2
DA:409,2
DA:410,2
DA:411,2
DA:412,2
DA:413,2
DA:416,2
DA:417,2
DA:418,2
DA:419,2
DA:420,2
DA:421,2
DA:422,2
DA:424,2
DA:425,2
DA:426,2
DA:427,2
DA:433,32
DA:434,32
DA:435,32
DA:436,32
DA:437,32
DA:438,32
DA:439,32
DA:440,32
DA:441,32
DA:442,32
DA:443,32
DA:444,32
DA:445,32
DA:446,32
DA:447,32
DA:448,32
DA:449,32
DA:450,32
DA:451,32
DA:452,32
DA:453,32
DA:454,32
DA:455,32
DA:456,32
DA:457,32
DA:458,32
DA:459,32
DA:460,32
DA:461,32
DA:462,32
DA:463,32
DA:464,32
DA:465,32
DA:467,14
DA:468,14
DA:469,14
DA:470,14
DA:471,14
DA:472,14
DA:473,14
DA:474,14
DA:475,14
DA:476,14
DA:477,14
DA:478,14
DA:479,14
DA:482,2
DA:483,2
DA:484,2
DA:486,2
DA:487,2
DA:488,2
DA:489,2
DA:492,2
DA:493,2
DA:494,2
DA:495,2
DA:496,2
DA:497,2
DA:500,2
DA:502,2
DA:506,2
DA:507,2
DA:510,2
DA:511,2
DA:512,2
DA:513,2
DA:516,2
DA:517,2
DA:518,2
DA:519,2
DA:522,2
DA:523,2
DA:524,2
DA:525,2
DA:526,2
DA:527,2
DA:528,2
DA:529,2
DA:530,2
DA:531,2
DA:534,2
DA:535,2
DA:536,2
DA:537,2
DA:538,2
DA:539,2
DA:540,2
DA:541,2
DA:542,2
DA:543,2
DA:546,2
DA:547,2
DA:548,2
DA:549,2
DA:550,2
DA:551,2
DA:552,2
DA:553,2
DA:554,2
DA:555,2
DA:558,2
DA:559,2
DA:560,2
DA:561,2
DA:562,2
DA:563,2
DA:566,2
DA:567,2
DA:568,2
DA:569,2
DA:570,2
DA:571,2
DA:574,2
DA:575,2
DA:576,2
DA:577,2
DA:578,2
DA:579,2
DA:582,2
DA:583,2
DA:584,2
DA:585,2
DA:586,2
DA:587,2
DA:588,2
DA:589,2
DA:591,2
DA:592,2
DA:593,2
DA:594,2
DA:597,2
DA:598,2
DA:599,2
DA:600,2
DA:601,2
DA:604,2
DA:605,2
DA:606,2
DA:607,2
DA:608,2
DA:611,2
DA:612,2
DA:613,2
DA:614,2
DA:615,2
DA:618,2
DA:619,2
DA:620,2
DA:621,2
DA:622,2
DA:623,2
DA:624,2
DA:625,2
DA:626,2
DA:627,2
DA:628,2
DA:629,2
DA:630,2
DA:631,2
DA:632,2
DA:633,2
DA:634,2
DA:635,2
DA:636,2
DA:637,2
DA:638,2
DA:639,2
DA:640,2
DA:641,2
DA:642,2
DA:643,2
DA:644,2
DA:645,2
DA:646,2
DA:647,2
DA:648,2
DA:649,2
DA:651,2
DA:652,2
DA:653,2
DA:654,2
DA:655,2
DA:656,2
DA:657,2
DA:658,2
DA:661,2
DA:662,2
DA:663,2
DA:664,2
DA:665,2
DA:668,2
DA:669,2
DA:670,2
DA:673,2
DA:674,2
DA:675,2
DA:676,2
DA:677,2
DA:678,2
DA:681,2
DA:682,2
DA:684,2
DA:685,2
DA:686,2
DA:688,2
DA:690,6
DA:691,2
DA:694,2
DA:695,2
DA:696,2
DA:697,2
DA:698,2
DA:700,2
DA:701,2
DA:702,2
DA:703,2
DA:704,2
DA:705,2
DA:706,2
DA:707,2
DA:708,2
DA:709,2
DA:710,2
DA:713,2
DA:714,2
DA:715,2
DA:718,2
DA:719,2
DA:722,2
DA:723,2
DA:724,2
DA:727,2
DA:728,2
DA:729,2
DA:730,2
DA:733,2
DA:734,2
DA:735,2
DA:738,2
DA:739,2
DA:740,2
DA:743,2
DA:744,2
DA:745,2
DA:747,2
DA:748,2
DA:755,2
DA:756,2
DA:757,2
DA:761,2
DA:762,2
DA:765,2
DA:766,2
DA:767,2
DA:770,2
DA:771,2
DA:774,2
DA:775,2
DA:776,2
DA:779,2
DA:780,2
DA:783,2
DA:784,2
DA:787,2
DA:788,2
DA:791,2
DA:792,2
DA:795,2
DA:796,2
DA:799,2
DA:801,2
DA:804,2
DA:805,2
DA:806,0
DA:807,2
DA:810,2
DA:812,2
DA:814,2
DA:817,2
DA:818,2
DA:819,0
DA:820,2
BRF:0
BRH:0
LF:550
LH:546
end_of_record
SF:/home/noah/src/batuta/src/types.rs
FN:116,_RNvXs2_NtCs2Yt0WxJROpx_6batuta5typesNtB5_13WorkflowStateNtNtCs6RpC691fUBl_4core7default7Default7default
FN:27,_RNvMNtCs2Yt0WxJROpx_6batuta5typesNtB2_13WorkflowPhase3all
FN:16,_RNvMNtCs2Yt0WxJROpx_6batuta5typesNtB2_13WorkflowPhase4next
FN:81,_RNvMs1_NtCs2Yt0WxJROpx_6batuta5typesNtB5_9PhaseInfo3new
FN:101,_RNvMs1_NtCs2Yt0WxJROpx_6batuta5typesNtB5_9PhaseInfo4fail
FN:91,_RNvMs1_NtCs2Yt0WxJROpx_6batuta5typesNtB5_9PhaseInfo5start
FN:96,_RNvMs1_NtCs2Yt0WxJROpx_6batuta5typesNtB5_9PhaseInfo8complete
FN:175,_RNvMs3_NtCs2Yt0WxJROpx_6batuta5typesNtB5_13WorkflowState10fail_phase
FN:153,_RNvMs3_NtCs2Yt0WxJROpx_6batuta5typesNtB5_13WorkflowState11start_phase
FN:161,_RNvMs3_NtCs2Yt0WxJROpx_6batuta5typesNtB5_13WorkflowState14complete_phase
FN:183,_RNvMs3_NtCs2Yt0WxJROpx_6batuta5typesNtB5_13WorkflowState16get_phase_status
FN:191,_RNvMs3_NtCs2Yt0WxJROpx_6batuta5typesNtB5_13WorkflowState18is_phase_completed
FN:196,_RNvMs3_NtCs2Yt0WxJROpx_6batuta5typesNtB5_13WorkflowState19progress_percentage
FN:122,_RNvMs3_NtCs2Yt0WxJROpx_6batuta5typesNtB5_13WorkflowState3new
FN:135,_RNvMs3_NtCs2Yt0WxJROpx_6batuta5typesNtB5_13WorkflowState4load
FN:146,_RNvMs3_NtCs2Yt0WxJROpx_6batuta5typesNtB5_13WorkflowState4save
FN:326,_RNvMs6_NtCs2Yt0WxJROpx_6batuta5typesNtB5_15ProjectAnalysis19has_ml_dependencies
FN:316,_RNvMs6_NtCs2Yt0WxJROpx_6batuta5typesNtB5_15ProjectAnalysis20recommend_transpiler
FN:304,_RNvMs6_NtCs2Yt0WxJROpx_6batuta5typesNtB5_15ProjectAnalysis3new
FN:60,_RNvXs0_NtCs2Yt0WxJROpx_6batuta5typesNtB5_11PhaseStatusNtNtCs6RpC691fUBl_4core3fmt7Display3fmt
FN:224,_RNvXs4_NtCs2Yt0WxJROpx_6batuta5typesNtB5_8LanguageNtNtCs6RpC691fUBl_4core3fmt7Display3fmt
FN:257,_RNvXs5_NtCs2Yt0WxJROpx_6batuta5typesNtB5_17DependencyManagerNtNtCs6RpC691fUBl_4core3fmt7Display3fmt
FN:39,_RNvXs_NtCs2Yt0WxJROpx_6batuta5typesNtB4_13WorkflowPhaseNtNtCs6RpC691fUBl_4core3fmt7Display3fmt
FN:201,_RNCNvMs3_NtCs2Yt0WxJROpx_6batuta5typesNtB7_13WorkflowState19progress_percentage0B9_
FN:328,_RNCNvMs6_NtCs2Yt0WxJROpx_6batuta5typesNtB7_15ProjectAnalysis19has_ml_dependencies0B9_
FN:427,_RNvNtNtCsjH0PaGjVXp8_6batuta5types5testss_19test_phase_info_new
FN:457,_RNvNtNtCsjH0PaGjVXp8_6batuta5types5testss_20test_phase_info_fail
FN:622,_RNvNtNtCsjH0PaGjVXp8_6batuta5types5testss_21test_language_display
FN:437,_RNvNtNtCsjH0PaGjVXp8_6batuta5types5testss_21test_phase_info_start
FN:636,_RNvNtNtCsjH0PaGjVXp8_6batuta5types5testss_22test_language_equality
FN:367,_RNvNtNtCsjH0PaGjVXp8_6batuta5types5testss_23test_workflow_phase_all
FN:480,_RNvNtNtCsjH0PaGjVXp8_6batuta5types5testss_23test_workflow_state_new
FN:446,_RNvNtNtCsjH0PaGjVXp8_6batuta5types5testss_24test_phase_info_complete
FN:346,_RNvNtNtCsjH0PaGjVXp8_6batuta5types5testss_24test_workflow_phase_next
FN:399,_RNvNtNtCsjH0PaGjVXp8_6batuta5types5testss_25test_phase_status_display
FN:766,_RNvNtNtCsjH0PaGjVXp8_6batuta5types5testss_25test_project_analysis_new
FN:407,_RNvNtNtCsjH0PaGjVXp8_6batuta5types5testss_26test_phase_status_equality
FN:646,_RNvNtNtCsjH0PaGjVXp8_6batuta5types5testss_27test_language_serialization
FN:378,_RNvNtNtCsjH0PaGjVXp8_6batuta5types5testss_27test_workflow_phase_display
FN:495,_RNvNtNtCsjH0PaGjVXp8_6batuta5types5testss_27test_workflow_state_default
FN:729,_RNvNtNtCsjH0PaGjVXp8_6batuta5types5testss_28test_language_stats_creation
FN:696,_RNvNtNtCsjH0PaGjVXp8_6batuta5types5testss_29test_dependency_info_creation
FN:467,_RNvNtNtCsjH0PaGjVXp8_6batuta5types5testss_29test_phase_info_serialization
FN:542,_RNvNtNtCsjH0PaGjVXp8_6batuta5types5testss_30test_workflow_state_fail_phase
FN:663,_RNvNtNtCsjH0PaGjVXp8_6batuta5types5testss_31test_dependency_manager_display
FN:415,_RNvNtNtCsjH0PaGjVXp8_6batuta5types5testss_31test_phase_status_serialization
FN:502,_RNvNtNtCsjH0PaGjVXp8_6batuta5types5testss_31test_workflow_state_start_phase
FN:678,_RNvNtNtCsjH0PaGjVXp8_6batuta5types5testss_32test_dependency_manager_equality
FN:744,_RNvNtNtCsjH0PaGjVXp8_6batuta5types5testss_33test_language_stats_serialization
FN:387,_RNvNtNtCsjH0PaGjVXp8_6batuta5types5testss_33test_workflow_phase_serialization
FN:584,_RNvNtNtCsjH0PaGjVXp8_6batuta5types5testss_33test_workflow_state_save_and_load
FN:709,_RNvNtNtCsjH0PaGjVXp8_6batuta5types5testss_34test_dependency_info_serialization
FN:514,_RNvNtNtCsjH0PaGjVXp8_6batuta5types5testss_34test_workflow_state_complete_phase
FN:902,_RNvNtNtCsjH0PaGjVXp8_6batuta5types5testss_35test_project_analysis_serialization
FN:606,_RNvNtNtCsjH0PaGjVXp8_6batuta5types5testss_36test_workflow_state_load_nonexistent
FN:684,_RNvNtNtCsjH0PaGjVXp8_6batuta5types5testss_37test_dependency_manager_serialization
FN:558,_RNvNtNtCsjH0PaGjVXp8_6batuta5types5testss_38test_workflow_state_is_phase_completed
FN:570,_RNvNtNtCsjH0PaGjVXp8_6batuta5types5testss_39test_workflow_state_progress_percentage
FN:528,_RNvNtNtCsjH0PaGjVXp8_6batuta5types5testss_40test_workflow_state_complete_final_phase
FN:790,_RNvNtNtCsjH0PaGjVXp8_6batuta5types5testss_44test_project_analysis_recommend_transpiler_c
FN:848,_RNvNtNtCsjH0PaGjVXp8_6batuta5types5testss_45test_project_analysis_has_ml_dependencies_pip
FN:801,_RNvNtNtCsjH0PaGjVXp8_6batuta5types5testss_46test_project_analysis_recommend_transpiler_cpp
FN:860,_RNvNtNtCsjH0PaGjVXp8_6batuta5types5testss_47test_project_analysis_has_ml_dependencies_conda
FN:896,_RNvNtNtCsjH0PaGjVXp8_6batuta5types5testss_47test_project_analysis_has_ml_dependencies_empty
FN:884,_RNvNtNtCsjH0PaGjVXp8_6batuta5types5testss_47test_project_analysis_has_ml_dependencies_false
FN:842,_RNvNtNtCsjH0PaGjVXp8_6batuta5types5testss_47test_project_analysis_recommend_transpiler_none
FN:823,_RNvNtNtCsjH0PaGjVXp8_6batuta5types5testss_47test_project_analysis_recommend_transpiler_rust
FN:872,_RNvNtNtCsjH0PaGjVXp8_6batuta5types5testss_48test_project_analysis_has_ml_dependencies_poetry
FN:834,_RNvNtNtCsjH0PaGjVXp8_6batuta5types5testss_48test_project_analysis_recommend_transpiler_other
FN:812,_RNvNtNtCsjH0PaGjVXp8_6batuta5types5testss_48test_project_analysis_recommend_transpiler_shell
FN:779,_RNvNtNtCsjH0PaGjVXp8_6batuta5types5testss_49test_project_analysis_recommend_transpiler_python
FN:27,_RNvMNtCsjH0PaGjVXp8_6batuta5typesNtB2_13WorkflowPhase3all
FN:16,_RNvMNtCsjH0PaGjVXp8_6batuta5typesNtB2_13WorkflowPhase4next
FN:81,_RNvMs1_NtCsjH0PaGjVXp8_6batuta5typesNtB5_9PhaseInfo3new
FN:101,_RNvMs1_NtCsjH0PaGjVXp8_6batuta5typesNtB5_9PhaseInfo4fail
FN:91,_RNvMs1_NtCsjH0PaGjVXp8_6batuta5typesNtB5_9PhaseInfo5start
FN:96,_RNvMs1_NtCsjH0PaGjVXp8_6batuta5typesNtB5_9PhaseInfo8complete
FN:175,_RNvMs3_NtCsjH0PaGjVXp8_6batuta5typesNtB5_13WorkflowState10fail_phase
FN:153,_RNvMs3_NtCsjH0PaGjVXp8_6batuta5typesNtB5_13WorkflowState11start_phase
FN:161,_RNvMs3_NtCsjH0PaGjVXp8_6batuta5typesNtB5_13WorkflowState14complete_phase
FN:183,_RNvMs3_NtCsjH0PaGjVXp8_6batuta5typesNtB5_13WorkflowState16get_phase_status
FN:191,_RNvMs3_NtCsjH0PaGjVXp8_6batuta5typesNtB5_13WorkflowState18is_phase_completed
FN:196,_RNvMs3_NtCsjH0PaGjVXp8_6batuta5typesNtB5_13WorkflowState19progress_percentage
FN:122,_RNvMs3_NtCsjH0PaGjVXp8_6batuta5typesNtB5_13WorkflowState3new
FN:135,_RNvMs3_NtCsjH0PaGjVXp8_6batuta5typesNtB5_13WorkflowState4load
FN:146,_RNvMs3_NtCsjH0PaGjVXp8_6batuta5typesNtB5_13WorkflowState4save
FN:326,_RNvMs6_NtCsjH0PaGjVXp8_6batuta5typesNtB5_15ProjectAnalysis19has_ml_dependencies
FN:316,_RNvMs6_NtCsjH0PaGjVXp8_6batuta5typesNtB5_15ProjectAnalysis20recommend_transpiler
FN:304,_RNvMs6_NtCsjH0PaGjVXp8_6batuta5typesNtB5_15ProjectAnalysis3new
FN:60,_RNvXs0_NtCsjH0PaGjVXp8_6batuta5typesNtB5_11PhaseStatusNtNtCs6RpC691fUBl_4core3fmt7Display3fmt
FN:116,_RNvXs2_NtCsjH0PaGjVXp8_6batuta5typesNtB5_13WorkflowStateNtNtCs6RpC691fUBl_4core7default7Default7default
FN:224,_RNvXs4_NtCsjH0PaGjVXp8_6batuta5typesNtB5_8LanguageNtNtCs6RpC691fUBl_4core3fmt7Display3fmt
FN:257,_RNvXs5_NtCsjH0PaGjVXp8_6batuta5typesNtB5_17DependencyManagerNtNtCs6RpC691fUBl_4core3fmt7Display3fmt
FN:39,_RNvXs_NtCsjH0PaGjVXp8_6batuta5typesNtB4_13WorkflowPhaseNtNtCs6RpC691fUBl_4core3fmt7Display3fmt
FN:201,_RNCNvMs3_NtCsjH0PaGjVXp8_6batuta5typesNtB7_13WorkflowState19progress_percentage0B9_
FN:328,_RNCNvMs6_NtCsjH0PaGjVXp8_6batuta5typesNtB7_15ProjectAnalysis19has_ml_dependencies0B9_
FN:427,_RNvNtNtCshEp7d2sUZm6_6batuta5types5testss_19test_phase_info_new
FN:457,_RNvNtNtCshEp7d2sUZm6_6batuta5types5testss_20test_phase_info_fail
FN:622,_RNvNtNtCshEp7d2sUZm6_6batuta5types5testss_21test_language_display
FN:437,_RNvNtNtCshEp7d2sUZm6_6batuta5types5testss_21test_phase_info_start
FN:636,_RNvNtNtCshEp7d2sUZm6_6batuta5types5testss_22test_language_equality
FN:367,_RNvNtNtCshEp7d2sUZm6_6batuta5types5testss_23test_workflow_phase_all
FN:480,_RNvNtNtCshEp7d2sUZm6_6batuta5types5testss_23test_workflow_state_new
FN:446,_RNvNtNtCshEp7d2sUZm6_6batuta5types5testss_24test_phase_info_complete
FN:346,_RNvNtNtCshEp7d2sUZm6_6batuta5types5testss_24test_workflow_phase_next
FN:399,_RNvNtNtCshEp7d2sUZm6_6batuta5types5testss_25test_phase_status_display
FN:766,_RNvNtNtCshEp7d2sUZm6_6batuta5types5testss_25test_project_analysis_new
FN:407,_RNvNtNtCshEp7d2sUZm6_6batuta5types5testss_26test_phase_status_equality
FN:646,_RNvNtNtCshEp7d2sUZm6_6batuta5types5testss_27test_language_serialization
FN:378,_RNvNtNtCshEp7d2sUZm6_6batuta5types5testss_27test_workflow_phase_display
FN:495,_RNvNtNtCshEp7d2sUZm6_6batuta5types5testss_27test_workflow_state_default
FN:729,_RNvNtNtCshEp7d2sUZm6_6batuta5types5testss_28test_language_stats_creation
FN:696,_RNvNtNtCshEp7d2sUZm6_6batuta5types5testss_29test_dependency_info_creation
FN:467,_RNvNtNtCshEp7d2sUZm6_6batuta5types5testss_29test_phase_info_serialization
FN:542,_RNvNtNtCshEp7d2sUZm6_6batuta5types5testss_30test_workflow_state_fail_phase
FN:663,_RNvNtNtCshEp7d2sUZm6_6batuta5types5testss_31test_dependency_manager_display
FN:415,_RNvNtNtCshEp7d2sUZm6_6batuta5types5testss_31test_phase_status_serialization
FN:502,_RNvNtNtCshEp7d2sUZm6_6batuta5types5testss_31test_workflow_state_start_phase
FN:678,_RNvNtNtCshEp7d2sUZm6_6batuta5types5testss_32test_dependency_manager_equality
FN:744,_RNvNtNtCshEp7d2sUZm6_6batuta5types5testss_33test_language_stats_serialization
FN:387,_RNvNtNtCshEp7d2sUZm6_6batuta5types5testss_33test_workflow_phase_serialization
FN:584,_RNvNtNtCshEp7d2sUZm6_6batuta5types5testss_33test_workflow_state_save_and_load
FN:709,_RNvNtNtCshEp7d2sUZm6_6batuta5types5testss_34test_dependency_info_serialization
FN:514,_RNvNtNtCshEp7d2sUZm6_6batuta5types5testss_34test_workflow_state_complete_phase
FN:902,_RNvNtNtCshEp7d2sUZm6_6batuta5types5testss_35test_project_analysis_serialization
FN:606,_RNvNtNtCshEp7d2sUZm6_6batuta5types5testss_36test_workflow_state_load_nonexistent
FN:684,_RNvNtNtCshEp7d2sUZm6_6batuta5types5testss_37test_dependency_manager_serialization
FN:558,_RNvNtNtCshEp7d2sUZm6_6batuta5types5testss_38test_workflow_state_is_phase_completed
FN:570,_RNvNtNtCshEp7d2sUZm6_6batuta5types5testss_39test_workflow_state_progress_percentage
FN:528,_RNvNtNtCshEp7d2sUZm6_6batuta5types5testss_40test_workflow_state_complete_final_phase
FN:790,_RNvNtNtCshEp7d2sUZm6_6batuta5types5testss_44test_project_analysis_recommend_transpiler_c
FN:848,_RNvNtNtCshEp7d2sUZm6_6batuta5types5testss_45test_project_analysis_has_ml_dependencies_pip
FN:801,_RNvNtNtCshEp7d2sUZm6_6batuta5types5testss_46test_project_analysis_recommend_transpiler_cpp
FN:860,_RNvNtNtCshEp7d2sUZm6_6batuta5types5testss_47test_project_analysis_has_ml_dependencies_conda
FN:896,_RNvNtNtCshEp7d2sUZm6_6batuta5types5testss_47test_project_analysis_has_ml_dependencies_empty
FN:884,_RNvNtNtCshEp7d2sUZm6_6batuta5types5testss_47test_project_analysis_has_ml_dependencies_false
FN:842,_RNvNtNtCshEp7d2sUZm6_6batuta5types5testss_47test_project_analysis_recommend_transpiler_none
FN:823,_RNvNtNtCshEp7d2sUZm6_6batuta5types5testss_47test_project_analysis_recommend_transpiler_rust
FN:872,_RNvNtNtCshEp7d2sUZm6_6batuta5types5testss_48test_project_analysis_has_ml_dependencies_poetry
FN:834,_RNvNtNtCshEp7d2sUZm6_6batuta5types5testss_48test_project_analysis_recommend_transpiler_other
FN:812,_RNvNtNtCshEp7d2sUZm6_6batuta5types5testss_48test_project_analysis_recommend_transpiler_shell
FN:779,_RNvNtNtCshEp7d2sUZm6_6batuta5types5testss_49test_project_analysis_recommend_transpiler_python
FN:27,_RNvMNtCshEp7d2sUZm6_6batuta5typesNtB2_13WorkflowPhase3all
FN:16,_RNvMNtCshEp7d2sUZm6_6batuta5typesNtB2_13WorkflowPhase4next
FN:81,_RNvMs1_NtCshEp7d2sUZm6_6batuta5typesNtB5_9PhaseInfo3new
FN:101,_RNvMs1_NtCshEp7d2sUZm6_6batuta5typesNtB5_9PhaseInfo4fail
FN:91,_RNvMs1_NtCshEp7d2sUZm6_6batuta5typesNtB5_9PhaseInfo5start
FN:96,_RNvMs1_NtCshEp7d2sUZm6_6batuta5typesNtB5_9PhaseInfo8complete
FN:175,_RNvMs3_NtCshEp7d2sUZm6_6batuta5typesNtB5_13WorkflowState10fail_phase
FN:153,_RNvMs3_NtCshEp7d2sUZm6_6batuta5typesNtB5_13WorkflowState11start_phase
FN:161,_RNvMs3_NtCshEp7d2sUZm6_6batuta5typesNtB5_13WorkflowState14complete_phase
FN:183,_RNvMs3_NtCshEp7d2sUZm6_6batuta5typesNtB5_13WorkflowState16get_phase_status
FN:191,_RNvMs3_NtCshEp7d2sUZm6_6batuta5typesNtB5_13WorkflowState18is_phase_completed
FN:196,_RNvMs3_NtCshEp7d2sUZm6_6batuta5typesNtB5_13WorkflowState19progress_percentage
FN:122,_RNvMs3_NtCshEp7d2sUZm6_6batuta5typesNtB5_13WorkflowState3new
FN:135,_RNvMs3_NtCshEp7d2sUZm6_6batuta5typesNtB5_13WorkflowState4load
FN:146,_RNvMs3_NtCshEp7d2sUZm6_6batuta5typesNtB5_13WorkflowState4save
FN:326,_RNvMs6_NtCshEp7d2sUZm6_6batuta5typesNtB5_15ProjectAnalysis19has_ml_dependencies
FN:316,_RNvMs6_NtCshEp7d2sUZm6_6batuta5typesNtB5_15ProjectAnalysis20recommend_transpiler
FN:304,_RNvMs6_NtCshEp7d2sUZm6_6batuta5typesNtB5_15ProjectAnalysis3new
FN:60,_RNvXs0_NtCshEp7d2sUZm6_6batuta5typesNtB5_11PhaseStatusNtNtCs6RpC691fUBl_4core3fmt7Display3fmt
FN:116,_RNvXs2_NtCshEp7d2sUZm6_6batuta5typesNtB5_13WorkflowStateNtNtCs6RpC691fUBl_4core7default7Default7default
FN:224,_RNvXs4_NtCshEp7d2sUZm6_6batuta5typesNtB5_8LanguageNtNtCs6RpC691fUBl_4core3fmt7Display3fmt
FN:257,_RNvXs5_NtCshEp7d2sUZm6_6batuta5typesNtB5_17DependencyManagerNtNtCs6RpC691fUBl_4core3fmt7Display3fmt
FN:39,_RNvXs_NtCshEp7d2sUZm6_6batuta5typesNtB4_13WorkflowPhaseNtNtCs6RpC691fUBl_4core3fmt7Display3fmt
FN:201,_RNCNvMs3_NtCshEp7d2sUZm6_6batuta5typesNtB7_13WorkflowState19progress_percentage0B9_
FN:328,_RNCNvMs6_NtCshEp7d2sUZm6_6batuta5typesNtB7_15ProjectAnalysis19has_ml_dependencies0B9_
FN:27,_RNvMNtCsc3xvWSUKV5Z_6batuta5typesNtB2_13WorkflowPhase3all
FN:16,_RNvMNtCsc3xvWSUKV5Z_6batuta5typesNtB2_13WorkflowPhase4next
FN:81,_RNvMs1_NtCsc3xvWSUKV5Z_6batuta5typesNtB5_9PhaseInfo3new
FN:101,_RNvMs1_NtCsc3xvWSUKV5Z_6batuta5typesNtB5_9PhaseInfo4fail
FN:91,_RNvMs1_NtCsc3xvWSUKV5Z_6batuta5typesNtB5_9PhaseInfo5start
FN:96,_RNvMs1_NtCsc3xvWSUKV5Z_6batuta5typesNtB5_9PhaseInfo8complete
FN:175,_RNvMs3_NtCsc3xvWSUKV5Z_6batuta5typesNtB5_13WorkflowState10fail_phase
FN:153,_RNvMs3_NtCsc3xvWSUKV5Z_6batuta5typesNtB5_13WorkflowState11start_phase
FN:161,_RNvMs3_NtCsc3xvWSUKV5Z_6batuta5typesNtB5_13WorkflowState14complete_phase
FN:183,_RNvMs3_NtCsc3xvWSUKV5Z_6batuta5typesNtB5_13WorkflowState16get_phase_status
FN:191,_RNvMs3_NtCsc3xvWSUKV5Z_6batuta5typesNtB5_13WorkflowState18is_phase_completed
FN:196,_RNvMs3_NtCsc3xvWSUKV5Z_6batuta5typesNtB5_13WorkflowState19progress_percentage
FN:122,_RNvMs3_NtCsc3xvWSUKV5Z_6batuta5typesNtB5_13WorkflowState3new
FN:135,_RNvMs3_NtCsc3xvWSUKV5Z_6batuta5typesNtB5_13WorkflowState4load
FN:146,_RNvMs3_NtCsc3xvWSUKV5Z_6batuta5typesNtB5_13WorkflowState4save
FN:326,_RNvMs6_NtCsc3xvWSUKV5Z_6batuta5typesNtB5_15ProjectAnalysis19has_ml_dependencies
FN:316,_RNvMs6_NtCsc3xvWSUKV5Z_6batuta5typesNtB5_15ProjectAnalysis20recommend_transpiler
FN:304,_RNvMs6_NtCsc3xvWSUKV5Z_6batuta5typesNtB5_15ProjectAnalysis3new
FN:60,_RNvXs0_NtCsc3xvWSUKV5Z_6batuta5typesNtB5_11PhaseStatusNtNtCs6RpC691fUBl_4core3fmt7Display3fmt
FN:116,_RNvXs2_NtCsc3xvWSUKV5Z_6batuta5typesNtB5_13WorkflowStateNtNtCs6RpC691fUBl_4core7default7Default7default
FN:224,_RNvXs4_NtCsc3xvWSUKV5Z_6batuta5typesNtB5_8LanguageNtNtCs6RpC691fUBl_4core3fmt7Display3fmt
FN:257,_RNvXs5_NtCsc3xvWSUKV5Z_6batuta5typesNtB5_17DependencyManagerNtNtCs6RpC691fUBl_4core3fmt7Display3fmt
FN:39,_RNvXs_NtCsc3xvWSUKV5Z_6batuta5typesNtB4_13WorkflowPhaseNtNtCs6RpC691fUBl_4core3fmt7Display3fmt
FN:201,_RNCNvMs3_NtCsc3xvWSUKV5Z_6batuta5typesNtB7_13WorkflowState19progress_percentage0B9_
FN:328,_RNCNvMs6_NtCsc3xvWSUKV5Z_6batuta5typesNtB7_15ProjectAnalysis19has_ml_dependencies0B9_
FNDA:0,_RNvXs2_NtCs2Yt0WxJROpx_6batuta5typesNtB5_13WorkflowStateNtNtCs6RpC691fUBl_4core7default7Default7default
FNDA:84,_RNvMNtCs2Yt0WxJROpx_6batuta5typesNtB2_13WorkflowPhase3all
FNDA:10,_RNvMNtCs2Yt0WxJROpx_6batuta5typesNtB2_13WorkflowPhase4next
FNDA:115,_RNvMs1_NtCs2Yt0WxJROpx_6batuta5typesNtB5_9PhaseInfo3new
FNDA:3,_RNvMs1_NtCs2Yt0WxJROpx_6batuta5typesNtB5_9PhaseInfo4fail
FNDA:11,_RNvMs1_NtCs2Yt0WxJROpx_6batuta5typesNtB5_9PhaseInfo5start
FNDA:10,_RNvMs1_NtCs2Yt0WxJROpx_6batuta5typesNtB5_9PhaseInfo8complete
FNDA:3,_RNvMs3_NtCs2Yt0WxJROpx_6batuta5typesNtB5_13WorkflowState10fail_phase
FNDA:11,_RNvMs3_NtCs2Yt0WxJROpx_6batuta5typesNtB5_13WorkflowState11start_phase
FNDA:10,_RNvMs3_NtCs2Yt0WxJROpx_6batuta5typesNtB5_13WorkflowState14complete_phase
FNDA:13,_RNvMs3_NtCs2Yt0WxJROpx_6batuta5typesNtB5_13WorkflowState16get_phase_status
FNDA:13,_RNvMs3_NtCs2Yt0WxJROpx_6batuta5typesNtB5_13WorkflowState18is_phase_completed
FNDA:29,_RNvMs3_NtCs2Yt0WxJROpx_6batuta5typesNtB5_13WorkflowState19progress_percentage
FNDA:23,_RNvMs3_NtCs2Yt0WxJROpx_6batuta5typesNtB5_13WorkflowState3new
FNDA:33,_RNvMs3_NtCs2Yt0WxJROpx_6batuta5typesNtB5_13WorkflowState4load
FNDA:24,_RNvMs3_NtCs2Yt0WxJROpx_6batuta5typesNtB5_13WorkflowState4save
FNDA:8,_RNvMs6_NtCs2Yt0WxJROpx_6batuta5typesNtB5_15ProjectAnalysis19has_ml_dependencies
FNDA:6,_RNvMs6_NtCs2Yt0WxJROpx_6batuta5typesNtB5_15ProjectAnalysis20recommend_transpiler
FNDA:17,_RNvMs6_NtCs2Yt0WxJROpx_6batuta5typesNtB5_15ProjectAnalysis3new
FNDA:145,_RNvXs0_NtCs2Yt0WxJROpx_6batuta5typesNtB5_11PhaseStatusNtNtCs6RpC691fUBl_4core3fmt7Display3fmt
FNDA:18,_RNvXs4_NtCs2Yt0WxJROpx_6batuta5typesNtB5_8LanguageNtNtCs6RpC691fUBl_4core3fmt7Display3fmt
FNDA:1,_RNvXs5_NtCs2Yt0WxJROpx_6batuta5typesNtB5_17DependencyManagerNtNtCs6RpC691fUBl_4core3fmt7Display3fmt
FNDA:160,_RNvXs_NtCs2Yt0WxJROpx_6batuta5typesNtB4_13WorkflowPhaseNtNtCs6RpC691fUBl_4core3fmt7Display3fmt
FNDA:145,_RNCNvMs3_NtCs2Yt0WxJROpx_6batuta5typesNtB7_13WorkflowState19progress_percentage0B9_
FNDA:1,_RNCNvMs6_NtCs2Yt0WxJROpx_6batuta5typesNtB7_15ProjectAnalysis19has_ml_dependencies0B9_
FNDA:1,_RNvNtNtCsjH0PaGjVXp8_6batuta5types5testss_19test_phase_info_new
FNDA:1,_RNvNtNtCsjH0PaGjVXp8_6batuta5types5testss_20test_phase_info_fail
FNDA:1,_RNvNtNtCsjH0PaGjVXp8_6batuta5types5testss_21test_language_display
FNDA:1,_RNvNtNtCsjH0PaGjVXp8_6batuta5types5testss_21test_phase_info_start
FNDA:1,_RNvNtNtCsjH0PaGjVXp8_6batuta5types5testss_22test_language_equality
FNDA:1,_RNvNtNtCsjH0PaGjVXp8_6batuta5types5testss_23test_workflow_phase_all
FNDA:1,_RNvNtNtCsjH0PaGjVXp8_6batuta5types5testss_23test_workflow_state_new
FNDA:1,_RNvNtNtCsjH0PaGjVXp8_6batuta5types5testss_24test_phase_info_complete
FNDA:1,_RNvNtNtCsjH0PaGjVXp8_6batuta5types5testss_24test_workflow_phase_next
FNDA:1,_RNvNtNtCsjH0PaGjVXp8_6batuta5types5testss_25test_phase_status_display
FNDA:1,_RNvNtNtCsjH0PaGjVXp8_6batuta5types5testss_25test_project_analysis_new
FNDA:1,_RNvNtNtCsjH0PaGjVXp8_6batuta5types5testss_26test_phase_status_equality
FNDA:1,_RNvNtNtCsjH0PaGjVXp8_6batuta5types5testss_27test_language_serialization
FNDA:1,_RNvNtNtCsjH0PaGjVXp8_6batuta5types5testss_27test_workflow_phase_display
FNDA:1,_RNvNtNtCsjH0PaGjVXp8_6batuta5types5testss_27test_workflow_state_default
FNDA:1,_RNvNtNtCsjH0PaGjVXp8_6batuta5types5testss_28test_language_stats_creation
FNDA:1,_RNvNtNtCsjH0PaGjVXp8_6batuta5types5testss_29test_dependency_info_creation
FNDA:1,_RNvNtNtCsjH0PaGjVXp8_6batuta5types5testss_29test_phase_info_serialization
FNDA:1,_RNvNtNtCsjH0PaGjVXp8_6batuta5types5testss_30test_workflow_state_fail_phase
FNDA:1,_RNvNtNtCsjH0PaGjVXp8_6batuta5types5testss_31test_dependency_manager_display
FNDA:1,_RNvNtNtCsjH0PaGjVXp8_6batuta5types5testss_31test_phase_status_serialization
FNDA:1,_RNvNtNtCsjH0PaGjVXp8_6batuta5types5testss_31test_workflow_state_start_phase
FNDA:1,_RNvNtNtCsjH0PaGjVXp8_6batuta5types5testss_32test_dependency_manager_equality
FNDA:1,_RNvNtNtCsjH0PaGjVXp8_6batuta5types5testss_33test_language_stats_serialization
FNDA:1,_RNvNtNtCsjH0PaGjVXp8_6batuta5types5testss_33test_workflow_phase_serialization
FNDA:1,_RNvNtNtCsjH0PaGjVXp8_6batuta5types5testss_33test_workflow_state_save_and_load
FNDA:1,_RNvNtNtCsjH0PaGjVXp8_6batuta5types5testss_34test_dependency_info_serialization
FNDA:1,_RNvNtNtCsjH0PaGjVXp8_6batuta5types5testss_34test_workflow_state_complete_phase
FNDA:1,_RNvNtNtCsjH0PaGjVXp8_6batuta5types5testss_35test_project_analysis_serialization
FNDA:1,_RNvNtNtCsjH0PaGjVXp8_6batuta5types5testss_36test_workflow_state_load_nonexistent
FNDA:1,_RNvNtNtCsjH0PaGjVXp8_6batuta5types5testss_37test_dependency_manager_serialization
FNDA:1,_RNvNtNtCsjH0PaGjVXp8_6batuta5types5testss_38test_workflow_state_is_phase_completed
FNDA:1,_RNvNtNtCsjH0PaGjVXp8_6batuta5types5testss_39test_workflow_state_progress_percentage
FNDA:1,_RNvNtNtCsjH0PaGjVXp8_6batuta5types5testss_40test_workflow_state_complete_final_phase
FNDA:1,_RNvNtNtCsjH0PaGjVXp8_6batuta5types5testss_44test_project_analysis_recommend_transpiler_c
FNDA:1,_RNvNtNtCsjH0PaGjVXp8_6batuta5types5testss_45test_project_analysis_has_ml_dependencies_pip
FNDA:1,_RNvNtNtCsjH0PaGjVXp8_6batuta5types5testss_46test_project_analysis_recommend_transpiler_cpp
FNDA:1,_RNvNtNtCsjH0PaGjVXp8_6batuta5types5testss_47test_project_analysis_has_ml_dependencies_conda
FNDA:1,_RNvNtNtCsjH0PaGjVXp8_6batuta5types5testss_47test_project_analysis_has_ml_dependencies_empty
FNDA:1,_RNvNtNtCsjH0PaGjVXp8_6batuta5types5testss_47test_project_analysis_has_ml_dependencies_false
FNDA:1,_RNvNtNtCsjH0PaGjVXp8_6batuta5types5testss_47test_project_analysis_recommend_transpiler_none
FNDA:1,_RNvNtNtCsjH0PaGjVXp8_6batuta5types5testss_47test_project_analysis_recommend_transpiler_rust
FNDA:1,_RNvNtNtCsjH0PaGjVXp8_6batuta5types5testss_48test_project_analysis_has_ml_dependencies_poetry
FNDA:1,_RNvNtNtCsjH0PaGjVXp8_6batuta5types5testss_48test_project_analysis_recommend_transpiler_other
FNDA:1,_RNvNtNtCsjH0PaGjVXp8_6batuta5types5testss_48test_project_analysis_recommend_transpiler_shell
FNDA:1,_RNvNtNtCsjH0PaGjVXp8_6batuta5types5testss_49test_project_analysis_recommend_transpiler_python
FNDA:111,_RNvMNtCsjH0PaGjVXp8_6batuta5typesNtB2_13WorkflowPhase3all
FNDA:40,_RNvMNtCsjH0PaGjVXp8_6batuta5typesNtB2_13WorkflowPhase4next
FNDA:215,_RNvMs1_NtCsjH0PaGjVXp8_6batuta5typesNtB5_9PhaseInfo3new
FNDA:2,_RNvMs1_NtCsjH0PaGjVXp8_6batuta5typesNtB5_9PhaseInfo4fail
FNDA:69,_RNvMs1_NtCsjH0PaGjVXp8_6batuta5typesNtB5_9PhaseInfo5start
FNDA:36,_RNvMs1_NtCsjH0PaGjVXp8_6batuta5typesNtB5_9PhaseInfo8complete
FNDA:1,_RNvMs3_NtCsjH0PaGjVXp8_6batuta5typesNtB5_13WorkflowState10fail_phase
FNDA:66,_RNvMs3_NtCsjH0PaGjVXp8_6batuta5typesNtB5_13WorkflowState11start_phase
FNDA:35,_RNvMs3_NtCsjH0PaGjVXp8_6batuta5typesNtB5_13WorkflowState14complete_phase
FNDA:13,_RNvMs3_NtCsjH0PaGjVXp8_6batuta5typesNtB5_13WorkflowState16get_phase_status
FNDA:3,_RNvMs3_NtCsjH0PaGjVXp8_6batuta5typesNtB5_13WorkflowState18is_phase_completed
FNDA:36,_RNvMs3_NtCsjH0PaGjVXp8_6batuta5typesNtB5_13WorkflowState19progress_percentage
FNDA:42,_RNvMs3_NtCsjH0PaGjVXp8_6batuta5typesNtB5_13WorkflowState3new
FNDA:2,_RNvMs3_NtCsjH0PaGjVXp8_6batuta5typesNtB5_13WorkflowState4load
FNDA:1,_RNvMs3_NtCsjH0PaGjVXp8_6batuta5typesNtB5_13WorkflowState4save
FNDA:41,_RNvMs6_NtCsjH0PaGjVXp8_6batuta5typesNtB5_15ProjectAnalysis19has_ml_dependencies
FNDA:38,_RNvMs6_NtCsjH0PaGjVXp8_6batuta5typesNtB5_15ProjectAnalysis20recommend_transpiler
FNDA:54,_RNvMs6_NtCsjH0PaGjVXp8_6batuta5typesNtB5_15ProjectAnalysis3new
FNDA:159,_RNvXs0_NtCsjH0PaGjVXp8_6batuta5typesNtB5_11PhaseStatusNtNtCs6RpC691fUBl_4core3fmt7Display3fmt
FNDA:1,_RNvXs2_NtCsjH0PaGjVXp8_6batuta5typesNtB5_13WorkflowStateNtNtCs6RpC691fUBl_4core7default7Default7default
FNDA:87,_RNvXs4_NtCsjH0PaGjVXp8_6batuta5typesNtB5_8LanguageNtNtCs6RpC691fUBl_4core3fmt7Display3fmt
FNDA:35,_RNvXs5_NtCsjH0PaGjVXp8_6batuta5typesNtB5_17DependencyManagerNtNtCs6RpC691fUBl_4core3fmt7Display3fmt
FNDA:160,_RNvXs_NtCsjH0PaGjVXp8_6batuta5typesNtB4_13WorkflowPhaseNtNtCs6RpC691fUBl_4core3fmt7Display3fmt
FNDA:180,_RNCNvMs3_NtCsjH0PaGjVXp8_6batuta5typesNtB7_13WorkflowState19progress_percentage0B9_
FNDA:30,_RNCNvMs6_NtCsjH0PaGjVXp8_6batuta5typesNtB7_15ProjectAnalysis19has_ml_dependencies0B9_
FNDA:1,_RNvNtNtCshEp7d2sUZm6_6batuta5types5testss_19test_phase_info_new
FNDA:1,_RNvNtNtCshEp7d2sUZm6_6batuta5types5testss_20test_phase_info_fail
FNDA:1,_RNvNtNtCshEp7d2sUZm6_6batuta5types5testss_21test_language_display
FNDA:1,_RNvNtNtCshEp7d2sUZm6_6batuta5types5testss_21test_phase_info_start
FNDA:1,_RNvNtNtCshEp7d2sUZm6_6batuta5types5testss_22test_language_equality
FNDA:1,_RNvNtNtCshEp7d2sUZm6_6batuta5types5testss_23test_workflow_phase_all
FNDA:1,_RNvNtNtCshEp7d2sUZm6_6batuta5types5testss_23test_workflow_state_new
FNDA:1,_RNvNtNtCshEp7d2sUZm6_6batuta5types5testss_24test_phase_info_complete
FNDA:1,_RNvNtNtCshEp7d2sUZm6_6batuta5types5testss_24test_workflow_phase_next
FNDA:1,_RNvNtNtCshEp7d2sUZm6_6batuta5types5testss_25test_phase_status_display
FNDA:1,_RNvNtNtCshEp7d2sUZm6_6batuta5types5testss_25test_project_analysis_new
FNDA:1,_RNvNtNtCshEp7d2sUZm6_6batuta5types5testss_26test_phase_status_equality
FNDA:1,_RNvNtNtCshEp7d2sUZm6_6batuta5types5testss_27test_language_serialization
FNDA:1,_RNvNtNtCshEp7d2sUZm6_6batuta5types5testss_27test_workflow_phase_display
FNDA:1,_RNvNtNtCshEp7d2sUZm6_6batuta5types5testss_27test_workflow_state_default
FNDA:1,_RNvNtNtCshEp7d2sUZm6_6batuta5types5testss_28test_language_stats_creation
FNDA:1,_RNvNtNtCshEp7d2sUZm6_6batuta5types5testss_29test_dependency_info_creation
FNDA:1,_RNvNtNtCshEp7d2sUZm6_6batuta5types5testss_29test_phase_info_serialization
FNDA:1,_RNvNtNtCshEp7d2sUZm6_6batuta5types5testss_30test_workflow_state_fail_phase
FNDA:1,_RNvNtNtCshEp7d2sUZm6_6batuta5types5testss_31test_dependency_manager_display
FNDA:1,_RNvNtNtCshEp7d2sUZm6_6batuta5types5testss_31test_phase_status_serialization
FNDA:1,_RNvNtNtCshEp7d2sUZm6_6batuta5types5testss_31test_workflow_state_start_phase
FNDA:1,_RNvNtNtCshEp7d2sUZm6_6batuta5types5testss_32test_dependency_manager_equality
FNDA:1,_RNvNtNtCshEp7d2sUZm6_6batuta5types5testss_33test_language_stats_serialization
FNDA:1,_RNvNtNtCshEp7d2sUZm6_6batuta5types5testss_33test_workflow_phase_serialization
FNDA:1,_RNvNtNtCshEp7d2sUZm6_6batuta5types5testss_33test_workflow_state_save_and_load
FNDA:1,_RNvNtNtCshEp7d2sUZm6_6batuta5types5testss_34test_dependency_info_serialization
FNDA:1,_RNvNtNtCshEp7d2sUZm6_6batuta5types5testss_34test_workflow_state_complete_phase
FNDA:1,_RNvNtNtCshEp7d2sUZm6_6batuta5types5testss_35test_project_analysis_serialization
FNDA:1,_RNvNtNtCshEp7d2sUZm6_6batuta5types5testss_36test_workflow_state_load_nonexistent
FNDA:1,_RNvNtNtCshEp7d2sUZm6_6batuta5types5testss_37test_dependency_manager_serialization
FNDA:1,_RNvNtNtCshEp7d2sUZm6_6batuta5types5testss_38test_workflow_state_is_phase_completed
FNDA:1,_RNvNtNtCshEp7d2sUZm6_6batuta5types5testss_39test_workflow_state_progress_percentage
FNDA:1,_RNvNtNtCshEp7d2sUZm6_6batuta5types5testss_40test_workflow_state_complete_final_phase
FNDA:1,_RNvNtNtCshEp7d2sUZm6_6batuta5types5testss_44test_project_analysis_recommend_transpiler_c
FNDA:1,_RNvNtNtCshEp7d2sUZm6_6batuta5types5testss_45test_project_analysis_has_ml_dependencies_pip
FNDA:1,_RNvNtNtCshEp7d2sUZm6_6batuta5types5testss_46test_project_analysis_recommend_transpiler_cpp
FNDA:1,_RNvNtNtCshEp7d2sUZm6_6batuta5types5testss_47test_project_analysis_has_ml_dependencies_conda
FNDA:1,_RNvNtNtCshEp7d2sUZm6_6batuta5types5testss_47test_project_analysis_has_ml_dependencies_empty
FNDA:1,_RNvNtNtCshEp7d2sUZm6_6batuta5types5testss_47test_project_analysis_has_ml_dependencies_false
FNDA:1,_RNvNtNtCshEp7d2sUZm6_6batuta5types5testss_47test_project_analysis_recommend_transpiler_none
FNDA:1,_RNvNtNtCshEp7d2sUZm6_6batuta5types5testss_47test_project_analysis_recommend_transpiler_rust
FNDA:1,_RNvNtNtCshEp7d2sUZm6_6batuta5types5testss_48test_project_analysis_has_ml_dependencies_poetry
FNDA:1,_RNvNtNtCshEp7d2sUZm6_6batuta5types5testss_48test_project_analysis_recommend_transpiler_other
FNDA:1,_RNvNtNtCshEp7d2sUZm6_6batuta5types5testss_48test_project_analysis_recommend_transpiler_shell
FNDA:1,_RNvNtNtCshEp7d2sUZm6_6batuta5types5testss_49test_project_analysis_recommend_transpiler_python
FNDA:111,_RNvMNtCshEp7d2sUZm6_6batuta5typesNtB2_13WorkflowPhase3all
FNDA:40,_RNvMNtCshEp7d2sUZm6_6batuta5typesNtB2_13WorkflowPhase4next
FNDA:215,_RNvMs1_NtCshEp7d2sUZm6_6batuta5typesNtB5_9PhaseInfo3new
FNDA:2,_RNvMs1_NtCshEp7d2sUZm6_6batuta5typesNtB5_9PhaseInfo4fail
FNDA:69,_RNvMs1_NtCshEp7d2sUZm6_6batuta5typesNtB5_9PhaseInfo5start
FNDA:36,_RNvMs1_NtCshEp7d2sUZm6_6batuta5typesNtB5_9PhaseInfo8complete
FNDA:1,_RNvMs3_NtCshEp7d2sUZm6_6batuta5typesNtB5_13WorkflowState10fail_phase
FNDA:66,_RNvMs3_NtCshEp7d2sUZm6_6batuta5typesNtB5_13WorkflowState11start_phase
FNDA:35,_RNvMs3_NtCshEp7d2sUZm6_6batuta5typesNtB5_13WorkflowState14complete_phase
FNDA:13,_RNvMs3_NtCshEp7d2sUZm6_6batuta5typesNtB5_13WorkflowState16get_phase_status
FNDA:3,_RNvMs3_NtCshEp7d2sUZm6_6batuta5typesNtB5_13WorkflowState18is_phase_completed
FNDA:36,_RNvMs3_NtCshEp7d2sUZm6_6batuta5typesNtB5_13WorkflowState19progress_percentage
FNDA:42,_RNvMs3_NtCshEp7d2sUZm6_6batuta5typesNtB5_13WorkflowState3new
FNDA:2,_RNvMs3_NtCshEp7d2sUZm6_6batuta5typesNtB5_13WorkflowState4load
FNDA:1,_RNvMs3_NtCshEp7d2sUZm6_6batuta5typesNtB5_13WorkflowState4save
FNDA:41,_RNvMs6_NtCshEp7d2sUZm6_6batuta5typesNtB5_15ProjectAnalysis19has_ml_dependencies
FNDA:38,_RNvMs6_NtCshEp7d2sUZm6_6batuta5typesNtB5_15ProjectAnalysis20recommend_transpiler
FNDA:54,_RNvMs6_NtCshEp7d2sUZm6_6batuta5typesNtB5_15ProjectAnalysis3new
FNDA:159,_RNvXs0_NtCshEp7d2sUZm6_6batuta5typesNtB5_11PhaseStatusNtNtCs6RpC691fUBl_4core3fmt7Display3fmt
FNDA:1,_RNvXs2_NtCshEp7d2sUZm6_6batuta5typesNtB5_13WorkflowStateNtNtCs6RpC691fUBl_4core7default7Default7default
FNDA:87,_RNvXs4_NtCshEp7d2sUZm6_6batuta5typesNtB5_8LanguageNtNtCs6RpC691fUBl_4core3fmt7Display3fmt
FNDA:35,_RNvXs5_NtCshEp7d2sUZm6_6batuta5typesNtB5_17DependencyManagerNtNtCs6RpC691fUBl_4core3fmt7Display3fmt
FNDA:160,_RNvXs_NtCshEp7d2sUZm6_6batuta5typesNtB4_13WorkflowPhaseNtNtCs6RpC691fUBl_4core3fmt7Display3fmt
FNDA:180,_RNCNvMs3_NtCshEp7d2sUZm6_6batuta5typesNtB7_13WorkflowState19progress_percentage0B9_
FNDA:30,_RNCNvMs6_NtCshEp7d2sUZm6_6batuta5typesNtB7_15ProjectAnalysis19has_ml_dependencies0B9_
FNDA:0,_RNvMNtCsc3xvWSUKV5Z_6batuta5typesNtB2_13WorkflowPhase3all
FNDA:0,_RNvMNtCsc3xvWSUKV5Z_6batuta5typesNtB2_13WorkflowPhase4next
FNDA:0,_RNvMs1_NtCsc3xvWSUKV5Z_6batuta5typesNtB5_9PhaseInfo3new
FNDA:0,_RNvMs1_NtCsc3xvWSUKV5Z_6batuta5typesNtB5_9PhaseInfo4fail
FNDA:0,_RNvMs1_NtCsc3xvWSUKV5Z_6batuta5typesNtB5_9PhaseInfo5start
FNDA:0,_RNvMs1_NtCsc3xvWSUKV5Z_6batuta5typesNtB5_9PhaseInfo8complete
FNDA:0,_RNvMs3_NtCsc3xvWSUKV5Z_6batuta5typesNtB5_13WorkflowState10fail_phase
FNDA:0,_RNvMs3_NtCsc3xvWSUKV5Z_6batuta5typesNtB5_13WorkflowState11start_phase
FNDA:0,_RNvMs3_NtCsc3xvWSUKV5Z_6batuta5typesNtB5_13WorkflowState14complete_phase
FNDA:0,_RNvMs3_NtCsc3xvWSUKV5Z_6batuta5typesNtB5_13WorkflowState16get_phase_status
FNDA:0,_RNvMs3_NtCsc3xvWSUKV5Z_6batuta5typesNtB5_13WorkflowState18is_phase_completed
FNDA:0,_RNvMs3_NtCsc3xvWSUKV5Z_6batuta5typesNtB5_13WorkflowState19progress_percentage
FNDA:0,_RNvMs3_NtCsc3xvWSUKV5Z_6batuta5typesNtB5_13WorkflowState3new
FNDA:0,_RNvMs3_NtCsc3xvWSUKV5Z_6batuta5typesNtB5_13WorkflowState4load
FNDA:0,_RNvMs3_NtCsc3xvWSUKV5Z_6batuta5typesNtB5_13WorkflowState4save
FNDA:0,_RNvMs6_NtCsc3xvWSUKV5Z_6batuta5typesNtB5_15ProjectAnalysis19has_ml_dependencies
FNDA:0,_RNvMs6_NtCsc3xvWSUKV5Z_6batuta5typesNtB5_15ProjectAnalysis20recommend_transpiler
FNDA:0,_RNvMs6_NtCsc3xvWSUKV5Z_6batuta5typesNtB5_15ProjectAnalysis3new
FNDA:0,_RNvXs0_NtCsc3xvWSUKV5Z_6batuta5typesNtB5_11PhaseStatusNtNtCs6RpC691fUBl_4core3fmt7Display3fmt
FNDA:0,_RNvXs2_NtCsc3xvWSUKV5Z_6batuta5typesNtB5_13WorkflowStateNtNtCs6RpC691fUBl_4core7default7Default7default
FNDA:0,_RNvXs4_NtCsc3xvWSUKV5Z_6batuta5typesNtB5_8LanguageNtNtCs6RpC691fUBl_4core3fmt7Display3fmt
FNDA:0,_RNvXs5_NtCsc3xvWSUKV5Z_6batuta5typesNtB5_17DependencyManagerNtNtCs6RpC691fUBl_4core3fmt7Display3fmt
FNDA:0,_RNvXs_NtCsc3xvWSUKV5Z_6batuta5typesNtB4_13WorkflowPhaseNtNtCs6RpC691fUBl_4core3fmt7Display3fmt
FNDA:0,_RNCNvMs3_NtCsc3xvWSUKV5Z_6batuta5typesNtB7_13WorkflowState19progress_percentage0B9_
FNDA:0,_RNCNvMs6_NtCsc3xvWSUKV5Z_6batuta5typesNtB7_15ProjectAnalysis19has_ml_dependencies0B9_
FNF:71
FNH:71
DA:16,90
DA:17,90
DA:18,78
DA:19,4
DA:20,2
DA:21,2
DA:22,4
DA:24,90
DA:27,306
DA:28,306
DA:29,306
DA:30,306
DA:31,306
DA:32,306
DA:33,306
DA:35,306
DA:39,480
DA:40,480
DA:41,96
DA:42,96
DA:43,96
DA:44,96
DA:45,96
DA:47,480
DA:60,463
DA:61,463
DA:62,345
DA:63,50
DA:64,65
DA:65,3
DA:67,463
DA:81,545
DA:82,545
DA:83,545
DA:84,545
DA:85,545
DA:86,545
DA:87,545
DA:88,545
DA:89,545
DA:91,149
DA:92,149
DA:93,149
DA:94,149
DA:96,82
DA:97,82
DA:98,82
DA:99,82
DA:101,7
DA:102,7
DA:103,7
DA:104,7
DA:105,7
DA:116,2
DA:117,2
DA:118,2
DA:122,107
DA:123,107
DA:124,535
DA:125,535
DA:126,535
DA:128,107
DA:129,107
DA:130,107
DA:131,107
DA:132,107
DA:135,37
DA:136,37
DA:137,25
DA:138,12
DA:140,12
DA:141,12
DA:142,12
DA:143,37
DA:146,26
DA:147,26
DA:148,26
DA:149,26
DA:150,26
DA:153,143
DA:154,143
DA:155,143
DA:156,143
DA:157,143
DA:158,143
DA:161,80
DA:162,80
DA:163,80
DA:164,80
DA:167,80
DA:168,78
DA:169,78
DA:170,2
DA:171,2
DA:172,80
DA:175,5
DA:176,5
DA:177,5
DA:178,5
DA:179,5
DA:180,5
DA:183,39
DA:184,39
DA:185,39
DA:186,39
DA:187,39
DA:188,39
DA:191,19
DA:192,19
DA:193,19
DA:196,101
DA:197,101
DA:198,101
DA:199,101
DA:200,101
DA:201,505
DA:202,101
DA:204,101
DA:205,101
DA:224,192
DA:225,192
DA:226,113
DA:227,2
DA:228,2
DA:229,62
DA:230,3
DA:231,2
DA:232,2
DA:233,2
DA:234,2
DA:235,2
DA:237,192
DA:257,71
DA:258,71
DA:259,51
DA:260,2
DA:261,2
DA:262,2
DA:263,2
DA:264,2
DA:265,2
DA:266,2
DA:267,2
DA:268,2
DA:269,2
DA:271,71
DA:304,125
DA:305,125
DA:306,125
DA:307,125
DA:308,125
DA:309,125
DA:310,125
DA:311,125
DA:312,125
DA:313,125
DA:314,125
DA:316,82
DA:317,82
DA:318,53
DA:319,4
DA:320,2
DA:321,5
DA:322,2
DA:324,82
DA:326,90
DA:328,90
DA:329,2
DA:330,61
DA:333,61
DA:334,90
DA:346,2
DA:347,2
DA:348,2
DA:351,2
DA:352,2
DA:355,2
DA:356,2
DA:359,2
DA:360,2
DA:363,2
DA:364,2
DA:367,2
DA:368,2
DA:369,2
DA:370,2
DA:371,2
DA:372,2
DA:373,2
DA:374,2
DA:375,2
DA:378,2
DA:379,2
DA:380,2
DA:381,2
DA:382,2
DA:383,2
DA:384,2
DA:387,2
DA:388,2
DA:389,2
DA:390,2
DA:391,2
DA:392,2
DA:399,2
DA:400,2
DA:401,2
DA:402,2
DA:403,2
DA:404,2
DA:407,2
DA:408,2
DA:409,2
DA:410,2
DA:411,2
DA:412,2
DA:415,2
DA:416,2
DA:417,2
DA:418,2
DA:419,2
DA:420,2
DA:427,2
DA:428,2
DA:429,2
DA:430,2
DA:431,2
DA:432,2
DA:433,2
DA:434,2
DA:437,2
DA:438,2
DA:439,2
DA:440,2
DA:441,2
DA:442,2
DA:443,2
DA:446,2
DA:447,2
DA:448,2
DA:449,2
DA:450,2
DA:451,2
DA:452,2
DA:453,2
DA:454,2
DA:457,2
DA:458,2
DA:459,2
DA:460,2
DA:461,2
DA:462,2
DA:463,2
DA:464,2
DA:467,2
DA:468,2
DA:469,2
DA:470,2
DA:471,2
DA:472,2
DA:473,2
DA:480,2
DA:481,2
DA:482,2
DA:483,2
DA:485,10
DA:486,10
DA:487,10
DA:488,10
DA:492,2
DA:495,2
DA:496,2
DA:497,2
DA:498,2
DA:499,2
DA:502,2
DA:503,2
DA:504,2
DA:506,2
DA:507,2
DA:508,2
DA:511,2
DA:514,2
DA:515,2
DA:516,2
DA:517,2
DA:519,2
DA:520,2
DA:524,2
DA:525,2
DA:528,2
DA:529,2
DA:530,2
DA:531,2
DA:533,2
DA:534,2
DA:538,2
DA:539,2
DA:542,2
DA:543,2
DA:544,2
DA:545,2
DA:547,2
DA:548,2
DA:551,2
DA:553,2
DA:554,2
DA:555,2
DA:558,2
DA:559,2
DA:560,2
DA:562,2
DA:563,2
DA:565,2
DA:566,2
DA:567,2
DA:570,2
DA:571,2
DA:572,2
DA:574,2
DA:575,2
DA:576,2
DA:578,2
DA:579,2
DA:580,2
DA:581,2
DA:584,2
DA:587,2
DA:588,2
DA:590,2
DA:591,2
DA:592,2
DA:594,2
DA:595,2
DA:597,2
DA:598,2
DA:599,2
DA:600,2
DA:603,2
DA:606,2
DA:609,2
DA:610,2
DA:612,2
DA:613,2
DA:614,2
DA:615,2
DA:622,2
DA:623,2
DA:624,2
DA:625,2
DA:626,2
DA:627,2
DA:628,2
DA:629,2
DA:630,2
DA:631,2
DA:632,2
DA:633,2
DA:636,2
DA:637,2
DA:638,2
DA:639,2
DA:640,2
DA:641,2
DA:643,2
DA:646,2
DA:647,2
DA:648,2
DA:649,2
DA:650,2
DA:652,2
DA:653,2
DA:654,2
DA:655,2
DA:656,2
DA:663,2
DA:664,2
DA:665,2
DA:666,2
DA:667,2
DA:668,2
DA:669,2
DA:670,2
DA:671,2
DA:672,2
DA:673,2
DA:674,2
DA:675,2
DA:678,2
DA:679,2
DA:680,2
DA:681,2
DA:684,2
DA:685,2
DA:686,2
DA:687,2
DA:688,2
DA:689,2
DA:696,2
DA:697,2
DA:698,2
DA:699,2
DA:700,2
DA:701,2
DA:703,2
DA:704,2
DA:705,2
DA:706,2
DA:709,2
DA:710,2
DA:711,2
DA:712,2
DA:713,2
DA:714,2
DA:716,2
DA:717,2
DA:719,2
DA:720,2
DA:721,2
DA:722,2
DA:729,2
DA:730,2
DA:731,2
DA:732,2
DA:733,2
DA:734,2
DA:735,2
DA:737,2
DA:738,2
DA:739,2
DA:740,2
DA:741,2
DA:744,2
DA:745,2
DA:746,2
DA:747,2
DA:748,2
DA:749,2
DA:750,2
DA:752,2
DA:753,2
DA:755,2
DA:756,2
DA:757,2
DA:758,2
DA:759,2
DA:766,2
DA:767,2
DA:769,2
DA:770,2
DA:771,2
DA:772,2
DA:773,2
DA:774,2
DA:775,2
DA:776,2
DA:779,2
DA:780,2
DA:781,2
DA:783,2
DA:784,2
DA:787,2
DA:790,2
DA:791,2
DA:792,2
DA:794,2
DA:795,2
DA:798,2
DA:801,2
DA:802,2
DA:803,2
DA:805,2
DA:806,2
DA:809,2
DA:812,2
DA:813,2
DA:814,2
DA:816,2
DA:817,2
DA:820,2
DA:823,2
DA:824,2
DA:825,2
DA:827,2
DA:828,2
DA:831,2
DA:834,2
DA:835,2
DA:836,2
DA:838,2
DA:839,2
DA:842,2
DA:843,2
DA:844,2
DA:845,2
DA:848,2
DA:849,2
DA:850,2
DA:851,2
DA:852,2
DA:853,2
DA:854,2
DA:856,2
DA:857,2
DA:860,2
DA:861,2
DA:862,2
DA:863,2
DA:864,2
DA:865,2
DA:866,2
DA:868,2
DA:869,2
DA:872,2
DA:873,2
DA:874,2
DA:875,2
DA:876,2
DA:877,2
DA:878,2
DA:880,2
DA:881,2
DA:884,2
DA:885,2
DA:886,2
DA:887,2
DA:888,2
DA:889,2
DA:890,2
DA:892,2
DA:893,2
DA:896,2
DA:897,2
DA:898,2
DA:899,2
DA:902,2
DA:903,2
DA:904,2
DA:905,2
DA:906,2
DA:907,2
DA:909,2
DA:910,2
DA:912,2
DA:913,2
DA:914,2
DA:915,2
DA:916,2
DA:917,2
BRF:0
BRH:0
LF:551
LH:551
end_of_record
SF:/home/noah/src/batuta/src/wasm.rs
FN:110,_RNCNvMse_NtCsjH0PaGjVXp8_6batuta4wasmNtB7_14AnalysisResult7to_json0B9_
FN:163,_RNCNvMsv_NtCsjH0PaGjVXp8_6batuta4wasmNtB7_16ConversionResult7to_json0B9_
FN:240,_RNCNvNtCsjH0PaGjVXp8_6batuta4wasm13convert_numpy0B5_
FN:334,_RNCNvNtCsjH0PaGjVXp8_6batuta4wasm15convert_pytorch0B5_
FN:286,_RNCNvNtCsjH0PaGjVXp8_6batuta4wasm15convert_sklearn0B5_
FN:96,_RNvMse_NtCsjH0PaGjVXp8_6batuta4wasmNtB5_14AnalysisResult11has_pytorch
FN:90,_RNvMse_NtCsjH0PaGjVXp8_6batuta4wasmNtB5_14AnalysisResult11has_sklearn
FN:102,_RNvMse_NtCsjH0PaGjVXp8_6batuta4wasmNtB5_14AnalysisResult13lines_of_code
FN:108,_RNvMse_NtCsjH0PaGjVXp8_6batuta4wasmNtB5_14AnalysisResult7to_json
FN:78,_RNvMse_NtCsjH0PaGjVXp8_6batuta4wasmNtB5_14AnalysisResult8language
FN:84,_RNvMse_NtCsjH0PaGjVXp8_6batuta4wasmNtB5_14AnalysisResult9has_numpy
FN:155,_RNvMsv_NtCsjH0PaGjVXp8_6batuta4wasmNtB5_16ConversionResult10complexity
FN:131,_RNvMsv_NtCsjH0PaGjVXp8_6batuta4wasmNtB5_16ConversionResult13original_code
FN:149,_RNvMsv_NtCsjH0PaGjVXp8_6batuta4wasmNtB5_16ConversionResult22backend_recommendation
FN:143,_RNvMsv_NtCsjH0PaGjVXp8_6batuta4wasmNtB5_16ConversionResult7imports
FN:161,_RNvMsv_NtCsjH0PaGjVXp8_6batuta4wasmNtB5_16ConversionResult7to_json
FN:137,_RNvMsv_NtCsjH0PaGjVXp8_6batuta4wasmNtB5_16ConversionResult9rust_code
FN:176,_RNvNtCsjH0PaGjVXp8_6batuta4wasm12analyze_code
FN:216,_RNvNtCsjH0PaGjVXp8_6batuta4wasm13convert_numpy
FN:310,_RNvNtCsjH0PaGjVXp8_6batuta4wasm15convert_pytorch
FN:264,_RNvNtCsjH0PaGjVXp8_6batuta4wasm15convert_sklearn
FN:358,_RNvNtCsjH0PaGjVXp8_6batuta4wasm17backend_recommend
FN:386,_RNvNtCsjH0PaGjVXp8_6batuta4wasm7version
FN:53,_RNvNtCsjH0PaGjVXp8_6batuta4wasm9wasm_init
FN:419,_RNvNtNtCsjH0PaGjVXp8_6batuta4wasm5testss_34test_analysis_result_serialization
FN:503,_RNvNtNtCsjH0PaGjVXp8_6batuta4wasm5testss_35test_conversion_result_all_backends
FN:484,_RNvNtNtCsjH0PaGjVXp8_6batuta4wasm5testss_36test_conversion_result_serialization
FN:438,_RNvNtNtCsjH0PaGjVXp8_6batuta4wasm5testss_39test_analysis_result_multiple_languages
FN:400,_RNvNtNtCsjH0PaGjVXp8_6batuta4wasm5testss_40test_analysis_result_direct_construction
FN:466,_RNvNtNtCsjH0PaGjVXp8_6batuta4wasm5testss_42test_conversion_result_direct_construction
FN:110,_RNCNvMse_NtCsc3xvWSUKV5Z_6batuta4wasmNtB7_14AnalysisResult7to_json0B9_
FN:163,_RNCNvMsv_NtCsc3xvWSUKV5Z_6batuta4wasmNtB7_16ConversionResult7to_json0B9_
FN:240,_RNCNvNtCsc3xvWSUKV5Z_6batuta4wasm13convert_numpy0B5_
FN:334,_RNCNvNtCsc3xvWSUKV5Z_6batuta4wasm15convert_pytorch0B5_
FN:286,_RNCNvNtCsc3xvWSUKV5Z_6batuta4wasm15convert_sklearn0B5_
FN:96,_RNvMse_NtCsc3xvWSUKV5Z_6batuta4wasmNtB5_14AnalysisResult11has_pytorch
FN:90,_RNvMse_NtCsc3xvWSUKV5Z_6batuta4wasmNtB5_14AnalysisResult11has_sklearn
FN:102,_RNvMse_NtCsc3xvWSUKV5Z_6batuta4wasmNtB5_14AnalysisResult13lines_of_code
FN:108,_RNvMse_NtCsc3xvWSUKV5Z_6batuta4wasmNtB5_14AnalysisResult7to_json
FN:78,_RNvMse_NtCsc3xvWSUKV5Z_6batuta4wasmNtB5_14AnalysisResult8language
FN:84,_RNvMse_NtCsc3xvWSUKV5Z_6batuta4wasmNtB5_14AnalysisResult9has_numpy
FN:155,_RNvMsv_NtCsc3xvWSUKV5Z_6batuta4wasmNtB5_16ConversionResult10complexity
FN:131,_RNvMsv_NtCsc3xvWSUKV5Z_6batuta4wasmNtB5_16ConversionResult13original_code
FN:149,_RNvMsv_NtCsc3xvWSUKV5Z_6batuta4wasmNtB5_16ConversionResult22backend_recommendation
FN:143,_RNvMsv_NtCsc3xvWSUKV5Z_6batuta4wasmNtB5_16ConversionResult7imports
FN:161,_RNvMsv_NtCsc3xvWSUKV5Z_6batuta4wasmNtB5_16ConversionResult7to_json
FN:137,_RNvMsv_NtCsc3xvWSUKV5Z_6batuta4wasmNtB5_16ConversionResult9rust_code
FN:176,_RNvNtCsc3xvWSUKV5Z_6batuta4wasm12analyze_code
FN:216,_RNvNtCsc3xvWSUKV5Z_6batuta4wasm13convert_numpy
FN:310,_RNvNtCsc3xvWSUKV5Z_6batuta4wasm15convert_pytorch
FN:264,_RNvNtCsc3xvWSUKV5Z_6batuta4wasm15convert_sklearn
FN:358,_RNvNtCsc3xvWSUKV5Z_6batuta4wasm17backend_recommend
FN:386,_RNvNtCsc3xvWSUKV5Z_6batuta4wasm7version
FN:53,_RNvNtCsc3xvWSUKV5Z_6batuta4wasm9wasm_init
FNDA:0,_RNCNvMse_NtCsjH0PaGjVXp8_6batuta4wasmNtB7_14AnalysisResult7to_json0B9_
FNDA:0,_RNCNvMsv_NtCsjH0PaGjVXp8_6batuta4wasmNtB7_16ConversionResult7to_json0B9_
FNDA:0,_RNCNvNtCsjH0PaGjVXp8_6batuta4wasm13convert_numpy0B5_
FNDA:0,_RNCNvNtCsjH0PaGjVXp8_6batuta4wasm15convert_pytorch0B5_
FNDA:0,_RNCNvNtCsjH0PaGjVXp8_6batuta4wasm15convert_sklearn0B5_
FNDA:0,_RNvMse_NtCsjH0PaGjVXp8_6batuta4wasmNtB5_14AnalysisResult11has_pytorch
FNDA:0,_RNvMse_NtCsjH0PaGjVXp8_6batuta4wasmNtB5_14AnalysisResult11has_sklearn
FNDA:0,_RNvMse_NtCsjH0PaGjVXp8_6batuta4wasmNtB5_14AnalysisResult13lines_of_code
FNDA:0,_RNvMse_NtCsjH0PaGjVXp8_6batuta4wasmNtB5_14AnalysisResult7to_json
FNDA:0,_RNvMse_NtCsjH0PaGjVXp8_6batuta4wasmNtB5_14AnalysisResult8language
FNDA:0,_RNvMse_NtCsjH0PaGjVXp8_6batuta4wasmNtB5_14AnalysisResult9has_numpy
FNDA:0,_RNvMsv_NtCsjH0PaGjVXp8_6batuta4wasmNtB5_16ConversionResult10complexity
FNDA:0,_RNvMsv_NtCsjH0PaGjVXp8_6batuta4wasmNtB5_16ConversionResult13original_code
FNDA:0,_RNvMsv_NtCsjH0PaGjVXp8_6batuta4wasmNtB5_16ConversionResult22backend_recommendation
FNDA:0,_RNvMsv_NtCsjH0PaGjVXp8_6batuta4wasmNtB5_16ConversionResult7imports
FNDA:0,_RNvMsv_NtCsjH0PaGjVXp8_6batuta4wasmNtB5_16ConversionResult7to_json
FNDA:0,_RNvMsv_NtCsjH0PaGjVXp8_6batuta4wasmNtB5_16ConversionResult9rust_code
FNDA:0,_RNvNtCsjH0PaGjVXp8_6batuta4wasm12analyze_code
FNDA:0,_RNvNtCsjH0PaGjVXp8_6batuta4wasm13convert_numpy
FNDA:0,_RNvNtCsjH0PaGjVXp8_6batuta4wasm15convert_pytorch
FNDA:0,_RNvNtCsjH0PaGjVXp8_6batuta4wasm15convert_sklearn
FNDA:0,_RNvNtCsjH0PaGjVXp8_6batuta4wasm17backend_recommend
FNDA:0,_RNvNtCsjH0PaGjVXp8_6batuta4wasm7version
FNDA:0,_RNvNtCsjH0PaGjVXp8_6batuta4wasm9wasm_init
FNDA:1,_RNvNtNtCsjH0PaGjVXp8_6batuta4wasm5testss_34test_analysis_result_serialization
FNDA:1,_RNvNtNtCsjH0PaGjVXp8_6batuta4wasm5testss_35test_conversion_result_all_backends
FNDA:1,_RNvNtNtCsjH0PaGjVXp8_6batuta4wasm5testss_36test_conversion_result_serialization
FNDA:1,_RNvNtNtCsjH0PaGjVXp8_6batuta4wasm5testss_39test_analysis_result_multiple_languages
FNDA:1,_RNvNtNtCsjH0PaGjVXp8_6batuta4wasm5testss_40test_analysis_result_direct_construction
FNDA:1,_RNvNtNtCsjH0PaGjVXp8_6batuta4wasm5testss_42test_conversion_result_direct_construction
FNDA:0,_RNCNvMse_NtCsc3xvWSUKV5Z_6batuta4wasmNtB7_14AnalysisResult7to_json0B9_
FNDA:0,_RNCNvMsv_NtCsc3xvWSUKV5Z_6batuta4wasmNtB7_16ConversionResult7to_json0B9_
FNDA:0,_RNCNvNtCsc3xvWSUKV5Z_6batuta4wasm13convert_numpy0B5_
FNDA:0,_RNCNvNtCsc3xvWSUKV5Z_6batuta4wasm15convert_pytorch0B5_
FNDA:0,_RNCNvNtCsc3xvWSUKV5Z_6batuta4wasm15convert_sklearn0B5_
FNDA:0,_RNvMse_NtCsc3xvWSUKV5Z_6batuta4wasmNtB5_14AnalysisResult11has_pytorch
FNDA:0,_RNvMse_NtCsc3xvWSUKV5Z_6batuta4wasmNtB5_14AnalysisResult11has_sklearn
FNDA:0,_RNvMse_NtCsc3xvWSUKV5Z_6batuta4wasmNtB5_14AnalysisResult13lines_of_code
FNDA:0,_RNvMse_NtCsc3xvWSUKV5Z_6batuta4wasmNtB5_14AnalysisResult7to_json
FNDA:0,_RNvMse_NtCsc3xvWSUKV5Z_6batuta4wasmNtB5_14AnalysisResult8language
FNDA:0,_RNvMse_NtCsc3xvWSUKV5Z_6batuta4wasmNtB5_14AnalysisResult9has_numpy
FNDA:0,_RNvMsv_NtCsc3xvWSUKV5Z_6batuta4wasmNtB5_16ConversionResult10complexity
FNDA:0,_RNvMsv_NtCsc3xvWSUKV5Z_6batuta4wasmNtB5_16ConversionResult13original_code
FNDA:0,_RNvMsv_NtCsc3xvWSUKV5Z_6batuta4wasmNtB5_16ConversionResult22backend_recommendation
FNDA:0,_RNvMsv_NtCsc3xvWSUKV5Z_6batuta4wasmNtB5_16ConversionResult7imports
FNDA:0,_RNvMsv_NtCsc3xvWSUKV5Z_6batuta4wasmNtB5_16ConversionResult7to_json
FNDA:0,_RNvMsv_NtCsc3xvWSUKV5Z_6batuta4wasmNtB5_16ConversionResult9rust_code
FNDA:0,_RNvNtCsc3xvWSUKV5Z_6batuta4wasm12analyze_code
FNDA:0,_RNvNtCsc3xvWSUKV5Z_6batuta4wasm13convert_numpy
FNDA:0,_RNvNtCsc3xvWSUKV5Z_6batuta4wasm15convert_pytorch
FNDA:0,_RNvNtCsc3xvWSUKV5Z_6batuta4wasm15convert_sklearn
FNDA:0,_RNvNtCsc3xvWSUKV5Z_6batuta4wasm17backend_recommend
FNDA:0,_RNvNtCsc3xvWSUKV5Z_6batuta4wasm7version
FNDA:0,_RNvNtCsc3xvWSUKV5Z_6batuta4wasm9wasm_init
FNF:30
FNH:6
DA:53,0
DA:58,0
DA:59,0
DA:78,0
DA:79,0
DA:80,0
DA:84,0
DA:85,0
DA:86,0
DA:90,0
DA:91,0
DA:92,0
DA:96,0
DA:97,0
DA:98,0
DA:102,0
DA:103,0
DA:104,0
DA:108,0
DA:109,0
DA:110,0
DA:111,0
DA:131,0
DA:132,0
DA:133,0
DA:137,0
DA:138,0
DA:139,0
DA:143,0
DA:144,0
DA:145,0
DA:149,0
DA:150,0
DA:151,0
DA:155,0
DA:156,0
DA:157,0
DA:161,0
DA:162,0
DA:163,0
DA:164,0
DA:176,0
DA:177,0
DA:180,0
DA:181,0
DA:182,0
DA:183,0
DA:184,0
DA:185,0
DA:186,0
DA:187,0
DA:189,0
DA:193,0
DA:194,0
DA:195,0
DA:197,0
DA:198,0
DA:199,0
DA:200,0
DA:201,0
DA:202,0
DA:203,0
DA:204,0
DA:216,0
DA:217,0
DA:220,0
DA:221,0
DA:222,0
DA:223,0
DA:224,0
DA:225,0
DA:226,0
DA:227,0
DA:228,0
DA:229,0
DA:230,0
DA:231,0
DA:232,0
DA:233,0
DA:235,0
DA:238,0
DA:239,0
DA:240,0
DA:242,0
DA:243,0
DA:245,0
DA:246,0
DA:247,0
DA:248,0
DA:249,0
DA:250,0
DA:251,0
DA:252,0
DA:264,0
DA:265,0
DA:268,0
DA:269,0
DA:270,0
DA:271,0
DA:272,0
DA:273,0
DA:274,0
DA:275,0
DA:276,0
DA:277,0
DA:278,0
DA:279,0
DA:281,0
DA:284,0
DA:285,0
DA:286,0
DA:288,0
DA:289,0
DA:291,0
DA:292,0
DA:293,0
DA:294,0
DA:295,0
DA:296,0
DA:297,0
DA:298,0
DA:310,0
DA:311,0
DA:314,0
DA:315,0
DA:316,0
DA:317,0
DA:318,0
DA:319,0
DA:320,0
DA:321,0
DA:322,0
DA:323,0
DA:324,0
DA:325,0
DA:326,0
DA:327,0
DA:329,0
DA:332,0
DA:333,0
DA:334,0
DA:336,0
DA:337,0
DA:339,0
DA:340,0
DA:341,0
DA:342,0
DA:343,0
DA:344,0
DA:345,0
DA:346,0
DA:358,0
DA:359,0
DA:361,0
DA:362,0
DA:363,0
DA:364,0
DA:365,0
DA:366,0
DA:367,0
DA:369,0
DA:371,0
DA:373,0
DA:374,0
DA:375,0
DA:377,0
DA:380,0
DA:381,0
DA:386,0
DA:387,0
DA:388,0
DA:400,1
DA:401,1
DA:402,1
DA:403,1
DA:404,1
DA:405,1
DA:406,1
DA:407,1
DA:410,1
DA:411,1
DA:412,1
DA:413,1
DA:414,1
DA:415,1
DA:419,1
DA:420,1
DA:421,1
DA:422,1
DA:423,1
DA:424,1
DA:425,1
DA:426,1
DA:428,1
DA:429,1
DA:431,1
DA:432,1
DA:433,1
DA:434,1
DA:438,1
DA:439,1
DA:440,1
DA:441,1
DA:442,1
DA:443,1
DA:444,1
DA:445,1
DA:446,1
DA:448,1
DA:449,1
DA:450,1
DA:451,1
DA:452,1
DA:453,1
DA:454,1
DA:455,1
DA:456,1
DA:457,1
DA:458,1
DA:466,1
DA:467,1
DA:468,1
DA:469,1
DA:470,1
DA:471,1
DA:472,1
DA:473,1
DA:475,1
DA:476,1
DA:477,1
DA:478,1
DA:479,1
DA:480,1
DA:484,1
DA:485,1
DA:486,1
DA:487,1
DA:488,1
DA:489,1
DA:490,1
DA:491,1
DA:493,1
DA:494,1
DA:496,1
DA:497,1
DA:498,1
DA:499,1
DA:503,1
DA:504,1
DA:505,1
DA:506,1
DA:507,1
DA:508,1
DA:509,1
DA:510,1
DA:511,1
DA:513,1
DA:514,1
DA:515,1
DA:516,1
DA:517,1
DA:518,1
DA:519,1
DA:520,1
DA:522,1
DA:523,1
DA:524,1
DA:525,1
DA:526,1
DA:527,1
DA:528,1
DA:529,1
DA:530,1
BRF:0
BRH:0
LF:278
LH:102
end_of_record